
reforth:     file format elf64-x86-64


Disassembly of section .init:

0000000000003000 <_init>:
    3000:	50                   	push   %rax
    3001:	e8 1a 3d 00 00       	call   6d20 <frame_dummy>
    3006:	e8 d5 50 00 00       	call   80e0 <__do_global_ctors_aux>
    300b:	58                   	pop    %rax
    300c:	c3                   	ret    

Disassembly of section .plt:

0000000000003010 <waitpid@plt-0x10>:
    3010:	ff 35 0a be 00 00    	push   0xbe0a(%rip)        # ee20 <_GLOBAL_OFFSET_TABLE_+0x8>
    3016:	ff 25 0c be 00 00    	jmp    *0xbe0c(%rip)        # ee28 <_GLOBAL_OFFSET_TABLE_+0x10>
    301c:	0f 1f 40 00          	nopl   0x0(%rax)

0000000000003020 <waitpid@plt>:
    3020:	ff 25 0a be 00 00    	jmp    *0xbe0a(%rip)        # ee30 <waitpid>
    3026:	68 00 00 00 00       	push   $0x0
    302b:	e9 e0 ff ff ff       	jmp    3010 <_init+0x10>

0000000000003030 <ioctl@plt>:
    3030:	ff 25 02 be 00 00    	jmp    *0xbe02(%rip)        # ee38 <ioctl>
    3036:	68 01 00 00 00       	push   $0x1
    303b:	e9 d0 ff ff ff       	jmp    3010 <_init+0x10>

0000000000003040 <memmove@plt>:
    3040:	ff 25 fa bd 00 00    	jmp    *0xbdfa(%rip)        # ee40 <memmove>
    3046:	68 02 00 00 00       	push   $0x2
    304b:	e9 c0 ff ff ff       	jmp    3010 <_init+0x10>

0000000000003050 <snprintf@plt>:
    3050:	ff 25 f2 bd 00 00    	jmp    *0xbdf2(%rip)        # ee48 <snprintf>
    3056:	68 03 00 00 00       	push   $0x3
    305b:	e9 b0 ff ff ff       	jmp    3010 <_init+0x10>

0000000000003060 <getenv@plt>:
    3060:	ff 25 ea bd 00 00    	jmp    *0xbdea(%rip)        # ee50 <getenv>
    3066:	68 04 00 00 00       	push   $0x4
    306b:	e9 a0 ff ff ff       	jmp    3010 <_init+0x10>

0000000000003070 <usleep@plt>:
    3070:	ff 25 e2 bd 00 00    	jmp    *0xbde2(%rip)        # ee58 <usleep>
    3076:	68 05 00 00 00       	push   $0x5
    307b:	e9 90 ff ff ff       	jmp    3010 <_init+0x10>

0000000000003080 <getpid@plt>:
    3080:	ff 25 da bd 00 00    	jmp    *0xbdda(%rip)        # ee60 <getpid>
    3086:	68 06 00 00 00       	push   $0x6
    308b:	e9 80 ff ff ff       	jmp    3010 <_init+0x10>

0000000000003090 <dup2@plt>:
    3090:	ff 25 d2 bd 00 00    	jmp    *0xbdd2(%rip)        # ee68 <dup2>
    3096:	68 07 00 00 00       	push   $0x7
    309b:	e9 70 ff ff ff       	jmp    3010 <_init+0x10>

00000000000030a0 <malloc@plt>:
    30a0:	ff 25 ca bd 00 00    	jmp    *0xbdca(%rip)        # ee70 <malloc>
    30a6:	68 08 00 00 00       	push   $0x8
    30ab:	e9 60 ff ff ff       	jmp    3010 <_init+0x10>

00000000000030b0 <putenv@plt>:
    30b0:	ff 25 c2 bd 00 00    	jmp    *0xbdc2(%rip)        # ee78 <putenv>
    30b6:	68 09 00 00 00       	push   $0x9
    30bb:	e9 50 ff ff ff       	jmp    3010 <_init+0x10>

00000000000030c0 <__stack_chk_fail@plt>:
    30c0:	ff 25 ba bd 00 00    	jmp    *0xbdba(%rip)        # ee80 <__stack_chk_fail>
    30c6:	68 0a 00 00 00       	push   $0xa
    30cb:	e9 40 ff ff ff       	jmp    3010 <_init+0x10>

00000000000030d0 <strtol@plt>:
    30d0:	ff 25 b2 bd 00 00    	jmp    *0xbdb2(%rip)        # ee88 <strtol>
    30d6:	68 0b 00 00 00       	push   $0xb
    30db:	e9 30 ff ff ff       	jmp    3010 <_init+0x10>

00000000000030e0 <pipe@plt>:
    30e0:	ff 25 aa bd 00 00    	jmp    *0xbdaa(%rip)        # ee90 <pipe>
    30e6:	68 0c 00 00 00       	push   $0xc
    30eb:	e9 20 ff ff ff       	jmp    3010 <_init+0x10>

00000000000030f0 <calloc@plt>:
    30f0:	ff 25 a2 bd 00 00    	jmp    *0xbda2(%rip)        # ee98 <calloc>
    30f6:	68 0d 00 00 00       	push   $0xd
    30fb:	e9 10 ff ff ff       	jmp    3010 <_init+0x10>

0000000000003100 <write@plt>:
    3100:	ff 25 9a bd 00 00    	jmp    *0xbd9a(%rip)        # eea0 <write>
    3106:	68 0e 00 00 00       	push   $0xe
    310b:	e9 00 ff ff ff       	jmp    3010 <_init+0x10>

0000000000003110 <strcat@plt>:
    3110:	ff 25 92 bd 00 00    	jmp    *0xbd92(%rip)        # eea8 <strcat>
    3116:	68 0f 00 00 00       	push   $0xf
    311b:	e9 f0 fe ff ff       	jmp    3010 <_init+0x10>

0000000000003120 <rand@plt>:
    3120:	ff 25 8a bd 00 00    	jmp    *0xbd8a(%rip)        # eeb0 <rand>
    3126:	68 10 00 00 00       	push   $0x10
    312b:	e9 e0 fe ff ff       	jmp    3010 <_init+0x10>

0000000000003130 <signal@plt>:
    3130:	ff 25 82 bd 00 00    	jmp    *0xbd82(%rip)        # eeb8 <signal>
    3136:	68 11 00 00 00       	push   $0x11
    313b:	e9 d0 fe ff ff       	jmp    3010 <_init+0x10>

0000000000003140 <read@plt>:
    3140:	ff 25 7a bd 00 00    	jmp    *0xbd7a(%rip)        # eec0 <read>
    3146:	68 12 00 00 00       	push   $0x12
    314b:	e9 c0 fe ff ff       	jmp    3010 <_init+0x10>

0000000000003150 <strncmp@plt>:
    3150:	ff 25 72 bd 00 00    	jmp    *0xbd72(%rip)        # eec8 <strncmp>
    3156:	68 13 00 00 00       	push   $0x13
    315b:	e9 b0 fe ff ff       	jmp    3010 <_init+0x10>

0000000000003160 <strncpy@plt>:
    3160:	ff 25 6a bd 00 00    	jmp    *0xbd6a(%rip)        # eed0 <strncpy>
    3166:	68 14 00 00 00       	push   $0x14
    316b:	e9 a0 fe ff ff       	jmp    3010 <_init+0x10>

0000000000003170 <realloc@plt>:
    3170:	ff 25 62 bd 00 00    	jmp    *0xbd62(%rip)        # eed8 <realloc>
    3176:	68 15 00 00 00       	push   $0x15
    317b:	e9 90 fe ff ff       	jmp    3010 <_init+0x10>

0000000000003180 <fork@plt>:
    3180:	ff 25 5a bd 00 00    	jmp    *0xbd5a(%rip)        # eee0 <fork>
    3186:	68 16 00 00 00       	push   $0x16
    318b:	e9 80 fe ff ff       	jmp    3010 <_init+0x10>

0000000000003190 <execlp@plt>:
    3190:	ff 25 52 bd 00 00    	jmp    *0xbd52(%rip)        # eee8 <execlp>
    3196:	68 17 00 00 00       	push   $0x17
    319b:	e9 70 fe ff ff       	jmp    3010 <_init+0x10>

00000000000031a0 <fread@plt>:
    31a0:	ff 25 4a bd 00 00    	jmp    *0xbd4a(%rip)        # eef0 <fread>
    31a6:	68 18 00 00 00       	push   $0x18
    31ab:	e9 60 fe ff ff       	jmp    3010 <_init+0x10>

00000000000031b0 <strdup@plt>:
    31b0:	ff 25 42 bd 00 00    	jmp    *0xbd42(%rip)        # eef8 <strdup>
    31b6:	68 19 00 00 00       	push   $0x19
    31bb:	e9 50 fe ff ff       	jmp    3010 <_init+0x10>

00000000000031c0 <regcomp@plt>:
    31c0:	ff 25 3a bd 00 00    	jmp    *0xbd3a(%rip)        # ef00 <regcomp>
    31c6:	68 1a 00 00 00       	push   $0x1a
    31cb:	e9 40 fe ff ff       	jmp    3010 <_init+0x10>

00000000000031d0 <fopen@plt>:
    31d0:	ff 25 32 bd 00 00    	jmp    *0xbd32(%rip)        # ef08 <fopen>
    31d6:	68 1b 00 00 00       	push   $0x1b
    31db:	e9 30 fe ff ff       	jmp    3010 <_init+0x10>

00000000000031e0 <localtime@plt>:
    31e0:	ff 25 2a bd 00 00    	jmp    *0xbd2a(%rip)        # ef10 <localtime>
    31e6:	68 1c 00 00 00       	push   $0x1c
    31eb:	e9 20 fe ff ff       	jmp    3010 <_init+0x10>

00000000000031f0 <memset@plt>:
    31f0:	ff 25 22 bd 00 00    	jmp    *0xbd22(%rip)        # ef18 <memset>
    31f6:	68 1d 00 00 00       	push   $0x1d
    31fb:	e9 10 fe ff ff       	jmp    3010 <_init+0x10>

0000000000003200 <srand@plt>:
    3200:	ff 25 1a bd 00 00    	jmp    *0xbd1a(%rip)        # ef20 <srand>
    3206:	68 1e 00 00 00       	push   $0x1e
    320b:	e9 00 fe ff ff       	jmp    3010 <_init+0x10>

0000000000003210 <fclose@plt>:
    3210:	ff 25 12 bd 00 00    	jmp    *0xbd12(%rip)        # ef28 <fclose>
    3216:	68 1f 00 00 00       	push   $0x1f
    321b:	e9 f0 fd ff ff       	jmp    3010 <_init+0x10>

0000000000003220 <tcgetattr@plt>:
    3220:	ff 25 0a bd 00 00    	jmp    *0xbd0a(%rip)        # ef30 <tcgetattr>
    3226:	68 20 00 00 00       	push   $0x20
    322b:	e9 e0 fd ff ff       	jmp    3010 <_init+0x10>

0000000000003230 <regexec@plt>:
    3230:	ff 25 02 bd 00 00    	jmp    *0xbd02(%rip)        # ef38 <regexec>
    3236:	68 21 00 00 00       	push   $0x21
    323b:	e9 d0 fd ff ff       	jmp    3010 <_init+0x10>

0000000000003240 <time@plt>:
    3240:	ff 25 fa bc 00 00    	jmp    *0xbcfa(%rip)        # ef40 <time>
    3246:	68 22 00 00 00       	push   $0x22
    324b:	e9 c0 fd ff ff       	jmp    3010 <_init+0x10>

0000000000003250 <poll@plt>:
    3250:	ff 25 f2 bc 00 00    	jmp    *0xbcf2(%rip)        # ef48 <poll>
    3256:	68 23 00 00 00       	push   $0x23
    325b:	e9 b0 fd ff ff       	jmp    3010 <_init+0x10>

0000000000003260 <strcmp@plt>:
    3260:	ff 25 ea bc 00 00    	jmp    *0xbcea(%rip)        # ef50 <strcmp>
    3266:	68 24 00 00 00       	push   $0x24
    326b:	e9 a0 fd ff ff       	jmp    3010 <_init+0x10>

0000000000003270 <fputc@plt>:
    3270:	ff 25 e2 bc 00 00    	jmp    *0xbce2(%rip)        # ef58 <fputc>
    3276:	68 25 00 00 00       	push   $0x25
    327b:	e9 90 fd ff ff       	jmp    3010 <_init+0x10>

0000000000003280 <strftime@plt>:
    3280:	ff 25 da bc 00 00    	jmp    *0xbcda(%rip)        # ef60 <strftime>
    3286:	68 26 00 00 00       	push   $0x26
    328b:	e9 80 fd ff ff       	jmp    3010 <_init+0x10>

0000000000003290 <fwrite@plt>:
    3290:	ff 25 d2 bc 00 00    	jmp    *0xbcd2(%rip)        # ef68 <fwrite>
    3296:	68 27 00 00 00       	push   $0x27
    329b:	e9 70 fd ff ff       	jmp    3010 <_init+0x10>

00000000000032a0 <exit@plt>:
    32a0:	ff 25 ca bc 00 00    	jmp    *0xbcca(%rip)        # ef70 <exit>
    32a6:	68 28 00 00 00       	push   $0x28
    32ab:	e9 60 fd ff ff       	jmp    3010 <_init+0x10>

00000000000032b0 <fileno@plt>:
    32b0:	ff 25 c2 bc 00 00    	jmp    *0xbcc2(%rip)        # ef78 <fileno>
    32b6:	68 29 00 00 00       	push   $0x29
    32bb:	e9 50 fd ff ff       	jmp    3010 <_init+0x10>

00000000000032c0 <__libc_start_main@plt>:
    32c0:	ff 25 ba bc 00 00    	jmp    *0xbcba(%rip)        # ef80 <__libc_start_main>
    32c6:	68 2a 00 00 00       	push   $0x2a
    32cb:	e9 40 fd ff ff       	jmp    3010 <_init+0x10>

00000000000032d0 <strlen@plt>:
    32d0:	ff 25 b2 bc 00 00    	jmp    *0xbcb2(%rip)        # ef88 <strlen>
    32d6:	68 2b 00 00 00       	push   $0x2b
    32db:	e9 30 fd ff ff       	jmp    3010 <_init+0x10>

00000000000032e0 <regfree@plt>:
    32e0:	ff 25 aa bc 00 00    	jmp    *0xbcaa(%rip)        # ef90 <regfree>
    32e6:	68 2c 00 00 00       	push   $0x2c
    32eb:	e9 20 fd ff ff       	jmp    3010 <_init+0x10>

00000000000032f0 <strchr@plt>:
    32f0:	ff 25 a2 bc 00 00    	jmp    *0xbca2(%rip)        # ef98 <strchr>
    32f6:	68 2d 00 00 00       	push   $0x2d
    32fb:	e9 10 fd ff ff       	jmp    3010 <_init+0x10>

0000000000003300 <setsid@plt>:
    3300:	ff 25 9a bc 00 00    	jmp    *0xbc9a(%rip)        # efa0 <setsid>
    3306:	68 2e 00 00 00       	push   $0x2e
    330b:	e9 00 fd ff ff       	jmp    3010 <_init+0x10>

0000000000003310 <tcsetattr@plt>:
    3310:	ff 25 92 bc 00 00    	jmp    *0xbc92(%rip)        # efa8 <tcsetattr>
    3316:	68 2f 00 00 00       	push   $0x2f
    331b:	e9 f0 fc ff ff       	jmp    3010 <_init+0x10>

0000000000003320 <close@plt>:
    3320:	ff 25 8a bc 00 00    	jmp    *0xbc8a(%rip)        # efb0 <close>
    3326:	68 30 00 00 00       	push   $0x30
    332b:	e9 e0 fc ff ff       	jmp    3010 <_init+0x10>

0000000000003330 <free@plt>:
    3330:	ff 25 82 bc 00 00    	jmp    *0xbc82(%rip)        # efb8 <free>
    3336:	68 31 00 00 00       	push   $0x31
    333b:	e9 d0 fc ff ff       	jmp    3010 <_init+0x10>

Disassembly of section .plt.got:

0000000000003340 <__cxa_finalize@plt>:
    3340:	ff 25 7a bc 00 00    	jmp    *0xbc7a(%rip)        # efc0 <__cxa_finalize>
    3346:	66 90                	xchg   %ax,%ax

0000000000003348 <__deregister_frame_info@plt>:
    3348:	ff 25 7a bc 00 00    	jmp    *0xbc7a(%rip)        # efc8 <__deregister_frame_info>
    334e:	66 90                	xchg   %ax,%ax

0000000000003350 <__register_frame_info@plt>:
    3350:	ff 25 8a bc 00 00    	jmp    *0xbc8a(%rip)        # efe0 <__register_frame_info>
    3356:	66 90                	xchg   %ax,%ax

Disassembly of section .text:

0000000000003360 <number.cold>:
    3360:	0f 0b                	ud2    

0000000000003362 <at_xy.cold>:
    3362:	0f 0b                	ud2    
    3364:	66 2e 0f 1f 84 00 00 	cs nopw 0x0(%rax,%rax,1)
    336b:	00 00 00 
    336e:	66 90                	xchg   %ax,%ax

0000000000003370 <main>:
    3370:	41 57                	push   %r15
    3372:	41 89 ff             	mov    %edi,%r15d
    3375:	31 ff                	xor    %edi,%edi
    3377:	41 56                	push   %r14
    3379:	4c 8d 35 20 53 01 00 	lea    0x15320(%rip),%r14        # 186a0 <call>
    3380:	41 55                	push   %r13
    3382:	41 54                	push   %r12
    3384:	55                   	push   %rbp
    3385:	53                   	push   %rbx
    3386:	48 8d 1d 5a 1d 00 00 	lea    0x1d5a(%rip),%rbx        # 50e7 <main+0x1d77>
    338d:	48 81 ec 58 81 00 00 	sub    $0x8158,%rsp
    3394:	48 89 74 24 30       	mov    %rsi,0x30(%rsp)
    3399:	64 48 8b 04 25 28 00 	mov    %fs:0x28,%rax
    33a0:	00 00 
    33a2:	48 89 84 24 48 81 00 	mov    %rax,0x8148(%rsp)
    33a9:	00 
    33aa:	31 c0                	xor    %eax,%eax
    33ac:	e8 8f fe ff ff       	call   3240 <time@plt>
    33b1:	89 c7                	mov    %eax,%edi
    33b3:	e8 48 fe ff ff       	call   3200 <srand@plt>
    33b8:	48 8b 05 c9 b8 00 00 	mov    0xb8c9(%rip),%rax        # ec88 <stdin>
    33bf:	48 89 1d f2 55 01 00 	mov    %rbx,0x155f2(%rip)        # 189b8 <call+0x318>
    33c6:	48 8d 0d 33 c2 00 00 	lea    0xc233(%rip),%rcx        # f600 <list_normals>
    33cd:	48 8d 35 14 dc 01 00 	lea    0x1dc14(%rip),%rsi        # 20fe8 <head+0x948>
    33d4:	48 c7 05 11 dc 01 00 	movq   $0x0,0x1dc11(%rip)        # 20ff0 <head+0x950>
    33db:	00 00 00 00 
    33df:	4c 8d 89 98 0a 00 00 	lea    0xa98(%rcx),%r9
    33e6:	49 bb ab aa aa aa aa 	movabs $0xaaaaaaaaaaaaaaab,%r11
    33ed:	aa aa aa 
    33f0:	48 89 05 31 ce 00 00 	mov    %rax,0xce31(%rip)        # 10228 <stdin_current>
    33f7:	48 8b 05 82 b8 00 00 	mov    0xb882(%rip),%rax        # ec80 <stdout>
    33fe:	4c 8d ae b8 f6 ff ff 	lea    -0x948(%rsi),%r13
    3405:	4c 8d 15 94 d2 00 00 	lea    0xd294(%rip),%r10        # 106a0 <body>
    340c:	48 89 05 0d ce 00 00 	mov    %rax,0xce0d(%rip)        # 10220 <stdout_current>
    3413:	48 8d 05 30 5c 00 00 	lea    0x5c30(%rip),%rax        # 904a <_fini+0xf29>
    341a:	48 89 05 c7 db 01 00 	mov    %rax,0x1dbc7(%rip)        # 20fe8 <head+0x948>
    3421:	0f 1f 80 00 00 00 00 	nopl   0x0(%rax)
    3428:	48 0f bf 01          	movswq (%rcx),%rax
    342c:	48 8b 69 08          	mov    0x8(%rcx),%rbp
    3430:	48 89 f7             	mov    %rsi,%rdi
    3433:	48 89 c2             	mov    %rax,%rdx
    3436:	48 8d 04 40          	lea    (%rax,%rax,2),%rax
    343a:	4c 8d 04 52          	lea    (%rdx,%rdx,2),%r8
    343e:	48 c1 e0 03          	shl    $0x3,%rax
    3442:	4b 89 6c c5 00       	mov    %rbp,0x0(%r13,%r8,8)
    3447:	4c 8b 41 10          	mov    0x10(%rcx),%r8
    344b:	49 8d 74 05 00       	lea    0x0(%r13,%rax,1),%rsi
    3450:	4d 85 c0             	test   %r8,%r8
    3453:	74 17                	je     346c <main+0xfc>
    3455:	48 c1 f8 03          	sar    $0x3,%rax
    3459:	48 8d 2d d0 1b 00 00 	lea    0x1bd0(%rip),%rbp        # 5030 <main+0x1cc0>
    3460:	49 0f af c3          	imul   %r11,%rax
    3464:	49 89 2c c6          	mov    %rbp,(%r14,%rax,8)
    3468:	4d 89 04 c2          	mov    %r8,(%r10,%rax,8)
    346c:	48 8d 04 52          	lea    (%rdx,%rdx,2),%rax
    3470:	48 83 c1 18          	add    $0x18,%rcx
    3474:	49 8d 44 c5 00       	lea    0x0(%r13,%rax,8),%rax
    3479:	48 89 70 10          	mov    %rsi,0x10(%rax)
    347d:	48 89 78 08          	mov    %rdi,0x8(%rax)
    3481:	49 39 c9             	cmp    %rcx,%r9
    3484:	75 a2                	jne    3428 <main+0xb8>
    3486:	48 8d 05 c2 5b 00 00 	lea    0x5bc2(%rip),%rax        # 904f <_fini+0xf2e>
    348d:	48 89 1d 2c 55 01 00 	mov    %rbx,0x1552c(%rip)        # 189c0 <call+0x320>
    3494:	48 8d 2d 65 db 01 00 	lea    0x1db65(%rip),%rbp        # 21000 <head+0x960>
    349b:	49 bb ab aa aa aa aa 	movabs $0xaaaaaaaaaaaaaaab,%r11
    34a2:	aa aa aa 
    34a5:	48 89 05 54 db 01 00 	mov    %rax,0x1db54(%rip)        # 21000 <head+0x960>
    34ac:	48 8d 0d 6d bb 00 00 	lea    0xbb6d(%rip),%rcx        # f020 <list_hiddens>
    34b3:	4c 8d 15 e6 d1 00 00 	lea    0xd1e6(%rip),%r10        # 106a0 <body>
    34ba:	48 89 35 37 db 01 00 	mov    %rsi,0x1db37(%rip)        # 20ff8 <head+0x958>
    34c1:	4c 8d 89 80 04 00 00 	lea    0x480(%rcx),%r9
    34c8:	48 89 35 39 db 01 00 	mov    %rsi,0x1db39(%rip)        # 21008 <head+0x968>
    34cf:	48 89 ee             	mov    %rbp,%rsi
    34d2:	66 0f 1f 44 00 00    	nopw   0x0(%rax,%rax,1)
    34d8:	48 0f bf 01          	movswq (%rcx),%rax
    34dc:	4c 8b 61 08          	mov    0x8(%rcx),%r12
    34e0:	49 89 f0             	mov    %rsi,%r8
    34e3:	48 89 c2             	mov    %rax,%rdx
    34e6:	48 8d 04 40          	lea    (%rax,%rax,2),%rax
    34ea:	48 8d 3c 52          	lea    (%rdx,%rdx,2),%rdi
    34ee:	48 c1 e0 03          	shl    $0x3,%rax
    34f2:	4d 89 64 fd 00       	mov    %r12,0x0(%r13,%rdi,8)
    34f7:	48 8b 79 10          	mov    0x10(%rcx),%rdi
    34fb:	49 8d 74 05 00       	lea    0x0(%r13,%rax,1),%rsi
    3500:	48 85 ff             	test   %rdi,%rdi
    3503:	74 17                	je     351c <main+0x1ac>
    3505:	48 c1 f8 03          	sar    $0x3,%rax
    3509:	4c 8d 25 20 1b 00 00 	lea    0x1b20(%rip),%r12        # 5030 <main+0x1cc0>
    3510:	49 0f af c3          	imul   %r11,%rax
    3514:	4d 89 24 c6          	mov    %r12,(%r14,%rax,8)
    3518:	49 89 3c c2          	mov    %rdi,(%r10,%rax,8)
    351c:	48 8d 04 52          	lea    (%rdx,%rdx,2),%rax
    3520:	48 83 c1 18          	add    $0x18,%rcx
    3524:	49 8d 44 c5 00       	lea    0x0(%r13,%rax,8),%rax
    3529:	48 89 70 10          	mov    %rsi,0x10(%rax)
    352d:	4c 89 40 08          	mov    %r8,0x8(%rax)
    3531:	49 39 c9             	cmp    %rcx,%r9
    3534:	75 a2                	jne    34d8 <main+0x168>
    3536:	48 89 2d 6b 51 23 00 	mov    %rbp,0x23516b(%rip)        # 2386a8 <normal>
    353d:	48 8d 0d 5c bf 00 00 	lea    0xbf5c(%rip),%rcx        # f4a0 <list_macros>
    3544:	49 bb ab aa aa aa aa 	movabs $0xaaaaaaaaaaaaaaab,%r11
    354b:	aa aa aa 
    354e:	4c 8d 15 4b d1 00 00 	lea    0xd14b(%rip),%r10        # 106a0 <body>
    3555:	48 89 35 b4 da 01 00 	mov    %rsi,0x1dab4(%rip)        # 21010 <head+0x970>
    355c:	4c 8d 89 50 01 00 00 	lea    0x150(%rcx),%r9
    3563:	31 f6                	xor    %esi,%esi
    3565:	0f 1f 00             	nopl   (%rax)
    3568:	48 0f bf 01          	movswq (%rcx),%rax
    356c:	48 8b 69 08          	mov    0x8(%rcx),%rbp
    3570:	48 89 f7             	mov    %rsi,%rdi
    3573:	48 89 c2             	mov    %rax,%rdx
    3576:	48 8d 04 40          	lea    (%rax,%rax,2),%rax
    357a:	4c 8d 04 52          	lea    (%rdx,%rdx,2),%r8
    357e:	48 c1 e0 03          	shl    $0x3,%rax
    3582:	4b 89 6c c5 00       	mov    %rbp,0x0(%r13,%r8,8)
    3587:	4c 8b 41 10          	mov    0x10(%rcx),%r8
    358b:	49 8d 74 05 00       	lea    0x0(%r13,%rax,1),%rsi
    3590:	4d 85 c0             	test   %r8,%r8
    3593:	74 17                	je     35ac <main+0x23c>
    3595:	48 c1 f8 03          	sar    $0x3,%rax
    3599:	48 8d 2d 90 1a 00 00 	lea    0x1a90(%rip),%rbp        # 5030 <main+0x1cc0>
    35a0:	49 0f af c3          	imul   %r11,%rax
    35a4:	49 89 2c c6          	mov    %rbp,(%r14,%rax,8)
    35a8:	4d 89 04 c2          	mov    %r8,(%r10,%rax,8)
    35ac:	48 8d 04 52          	lea    (%rdx,%rdx,2),%rax
    35b0:	48 83 c1 18          	add    $0x18,%rcx
    35b4:	49 8d 44 c5 00       	lea    0x0(%r13,%rax,8),%rax
    35b9:	48 89 70 10          	mov    %rsi,0x10(%rax)
    35bd:	48 89 78 08          	mov    %rdi,0x8(%rax)
    35c1:	49 39 c9             	cmp    %rcx,%r9
    35c4:	75 a2                	jne    3568 <main+0x1f8>
    35c6:	48 8d 05 db 50 23 00 	lea    0x2350db(%rip),%rax        # 2386a8 <normal>
    35cd:	b9 00 04 00 00       	mov    $0x400,%ecx
    35d2:	48 8d bc 24 40 01 00 	lea    0x140(%rsp),%rdi
    35d9:	00 
    35da:	c7 84 24 80 00 00 00 	movl   $0xe,0x80(%rsp)
    35e1:	0e 00 00 00 
    35e5:	48 89 05 b4 50 23 00 	mov    %rax,0x2350b4(%rip)        # 2386a0 <current>
    35ec:	48 8d 05 a5 e1 01 00 	lea    0x1e1a5(%rip),%rax        # 21798 <head+0x10f8>
    35f3:	48 89 84 24 b0 00 00 	mov    %rax,0xb0(%rsp)
    35fa:	00 
    35fb:	48 8d 05 9e 50 03 00 	lea    0x3509e(%rip),%rax        # 386a0 <code>
    3602:	48 89 84 24 88 00 00 	mov    %rax,0x88(%rsp)
    3609:	00 
    360a:	31 c0                	xor    %eax,%eax
    360c:	48 89 7c 24 38       	mov    %rdi,0x38(%rsp)
    3611:	f3 48 ab             	rep stos %rax,%es:(%rdi)
    3614:	48 8d 3d 45 5e 00 00 	lea    0x5e45(%rip),%rdi        # 9460 <src_base>
    361b:	48 89 35 8e 50 23 00 	mov    %rsi,0x23508e(%rip)        # 2386b0 <macro>
    3622:	e8 89 fb ff ff       	call   31b0 <strdup@plt>
    3627:	48 89 44 24 20       	mov    %rax,0x20(%rsp)
    362c:	49 89 c4             	mov    %rax,%r12
    362f:	41 83 ff 01          	cmp    $0x1,%r15d
    3633:	0f 8f 7b 2c 00 00    	jg     62b4 <main+0x2f44>
    3639:	48 8d 05 a2 1a 00 00 	lea    0x1aa2(%rip),%rax        # 50e2 <main+0x1d72>
    3640:	4c 8b 64 24 20       	mov    0x20(%rsp),%r12
    3645:	49 63 ff             	movslq %r15d,%rdi
    3648:	48 8d 2d bb b9 00 00 	lea    0xb9bb(%rip),%rbp        # f00a <init+0x2>
    364f:	48 89 05 52 50 01 00 	mov    %rax,0x15052(%rip)        # 186a8 <call+0x8>
    3656:	48 8d 05 39 1a 00 00 	lea    0x1a39(%rip),%rax        # 5096 <main+0x1d26>
    365d:	48 89 05 6c 50 01 00 	mov    %rax,0x1506c(%rip)        # 186d0 <call+0x30>
    3664:	48 8d 05 ff 19 00 00 	lea    0x19ff(%rip),%rax        # 506a <main+0x1cfa>
    366b:	48 89 05 46 50 01 00 	mov    %rax,0x15046(%rip)        # 186b8 <call+0x18>
    3672:	48 8d 05 b7 19 00 00 	lea    0x19b7(%rip),%rax        # 5030 <main+0x1cc0>
    3679:	48 89 05 a8 53 01 00 	mov    %rax,0x153a8(%rip)        # 18a28 <call+0x388>
    3680:	48 8d 05 ad 0a 00 00 	lea    0xaad(%rip),%rax        # 4134 <main+0xdc4>
    3687:	48 89 05 22 50 01 00 	mov    %rax,0x15022(%rip)        # 186b0 <call+0x10>
    368e:	48 8d 05 54 19 00 00 	lea    0x1954(%rip),%rax        # 4fe9 <main+0x1c79>
    3695:	48 89 05 3c 50 01 00 	mov    %rax,0x1503c(%rip)        # 186d8 <call+0x38>
    369c:	48 8d 05 2b 19 00 00 	lea    0x192b(%rip),%rax        # 4fce <main+0x1c5e>
    36a3:	48 89 05 ee 51 01 00 	mov    %rax,0x151ee(%rip)        # 18898 <call+0x1f8>
    36aa:	48 8d 05 f5 18 00 00 	lea    0x18f5(%rip),%rax        # 4fa6 <main+0x1c36>
    36b1:	48 89 05 80 53 01 00 	mov    %rax,0x15380(%rip)        # 18a38 <call+0x398>
    36b8:	48 8d 05 bc 18 00 00 	lea    0x18bc(%rip),%rax        # 4f7b <main+0x1c0b>
    36bf:	48 89 05 6a 53 01 00 	mov    %rax,0x1536a(%rip)        # 18a30 <call+0x390>
    36c6:	48 8d 05 8a 18 00 00 	lea    0x188a(%rip),%rax        # 4f57 <main+0x1be7>
    36cd:	48 89 05 6c 53 01 00 	mov    %rax,0x1536c(%rip)        # 18a40 <call+0x3a0>
    36d4:	48 8d 05 33 18 00 00 	lea    0x1833(%rip),%rax        # 4f0e <main+0x1b9e>
    36db:	48 89 05 66 53 01 00 	mov    %rax,0x15366(%rip)        # 18a48 <call+0x3a8>
    36e2:	48 8d 05 06 18 00 00 	lea    0x1806(%rip),%rax        # 4eef <main+0x1b7f>
    36e9:	48 89 05 d0 4f 01 00 	mov    %rax,0x14fd0(%rip)        # 186c0 <call+0x20>
    36f0:	48 8d 05 e0 17 00 00 	lea    0x17e0(%rip),%rax        # 4ed7 <main+0x1b67>
    36f7:	48 89 05 ca 4f 01 00 	mov    %rax,0x14fca(%rip)        # 186c8 <call+0x28>
    36fe:	48 8d 05 b9 17 00 00 	lea    0x17b9(%rip),%rax        # 4ebe <main+0x1b4e>
    3705:	48 89 05 0c 50 01 00 	mov    %rax,0x1500c(%rip)        # 18718 <call+0x78>
    370c:	48 8d 05 92 17 00 00 	lea    0x1792(%rip),%rax        # 4ea5 <main+0x1b35>
    3713:	48 89 05 06 50 01 00 	mov    %rax,0x15006(%rip)        # 18720 <call+0x80>
    371a:	48 8d 05 67 17 00 00 	lea    0x1767(%rip),%rax        # 4e88 <main+0x1b18>
    3721:	48 89 05 00 50 01 00 	mov    %rax,0x15000(%rip)        # 18728 <call+0x88>
    3728:	48 8d 05 2f 17 00 00 	lea    0x172f(%rip),%rax        # 4e5e <main+0x1aee>
    372f:	48 89 05 fa 4f 01 00 	mov    %rax,0x14ffa(%rip)        # 18730 <call+0x90>
    3736:	48 8d 05 0b 17 00 00 	lea    0x170b(%rip),%rax        # 4e48 <main+0x1ad8>
    373d:	48 89 05 0c 50 01 00 	mov    %rax,0x1500c(%rip)        # 18750 <call+0xb0>
    3744:	48 8d 05 cb 16 00 00 	lea    0x16cb(%rip),%rax        # 4e16 <main+0x1aa6>
    374b:	48 89 05 06 50 01 00 	mov    %rax,0x15006(%rip)        # 18758 <call+0xb8>
    3752:	48 8d 05 93 16 00 00 	lea    0x1693(%rip),%rax        # 4dec <main+0x1a7c>
    3759:	48 89 05 00 50 01 00 	mov    %rax,0x15000(%rip)        # 18760 <call+0xc0>
    3760:	48 8d 05 5b 16 00 00 	lea    0x165b(%rip),%rax        # 4dc2 <main+0x1a52>
    3767:	48 89 05 ca 4f 01 00 	mov    %rax,0x14fca(%rip)        # 18738 <call+0x98>
    376e:	48 8d 05 26 16 00 00 	lea    0x1626(%rip),%rax        # 4d9b <main+0x1a2b>
    3775:	48 89 05 c4 4f 01 00 	mov    %rax,0x14fc4(%rip)        # 18740 <call+0xa0>
    377c:	48 8d 05 f6 15 00 00 	lea    0x15f6(%rip),%rax        # 4d79 <main+0x1a09>
    3783:	48 89 05 be 4f 01 00 	mov    %rax,0x14fbe(%rip)        # 18748 <call+0xa8>
    378a:	48 8d 05 c6 15 00 00 	lea    0x15c6(%rip),%rax        # 4d57 <main+0x19e7>
    3791:	48 89 05 d0 4f 01 00 	mov    %rax,0x14fd0(%rip)        # 18768 <call+0xc8>
    3798:	48 8d 05 9d 15 00 00 	lea    0x159d(%rip),%rax        # 4d3c <main+0x19cc>
    379f:	48 89 05 12 54 01 00 	mov    %rax,0x15412(%rip)        # 18bb8 <call+0x518>
    37a6:	48 8d 05 6d 15 00 00 	lea    0x156d(%rip),%rax        # 4d1a <main+0x19aa>
    37ad:	48 89 05 bc 4f 01 00 	mov    %rax,0x14fbc(%rip)        # 18770 <call+0xd0>
    37b4:	48 8d 05 3d 15 00 00 	lea    0x153d(%rip),%rax        # 4cf8 <main+0x1988>
    37bb:	48 89 05 b6 4f 01 00 	mov    %rax,0x14fb6(%rip)        # 18778 <call+0xd8>
    37c2:	48 8d 05 14 15 00 00 	lea    0x1514(%rip),%rax        # 4cdd <main+0x196d>
    37c9:	48 89 05 e0 53 01 00 	mov    %rax,0x153e0(%rip)        # 18bb0 <call+0x510>
    37d0:	48 8d 05 e4 14 00 00 	lea    0x14e4(%rip),%rax        # 4cbb <main+0x194b>
    37d7:	48 89 05 a2 4f 01 00 	mov    %rax,0x14fa2(%rip)        # 18780 <call+0xe0>
    37de:	48 8d 05 a1 14 00 00 	lea    0x14a1(%rip),%rax        # 4c86 <main+0x1916>
    37e5:	48 89 05 9c 4f 01 00 	mov    %rax,0x14f9c(%rip)        # 18788 <call+0xe8>
    37ec:	48 8d 05 5e 14 00 00 	lea    0x145e(%rip),%rax        # 4c51 <main+0x18e1>
    37f3:	48 89 05 96 4f 01 00 	mov    %rax,0x14f96(%rip)        # 18790 <call+0xf0>
    37fa:	48 8d 05 13 14 00 00 	lea    0x1413(%rip),%rax        # 4c14 <main+0x18a4>
    3801:	48 89 05 90 4f 01 00 	mov    %rax,0x14f90(%rip)        # 18798 <call+0xf8>
    3808:	48 8d 05 cf 13 00 00 	lea    0x13cf(%rip),%rax        # 4bde <main+0x186e>
    380f:	48 89 05 8a 4f 01 00 	mov    %rax,0x14f8a(%rip)        # 187a0 <call+0x100>
    3816:	48 8d 05 a3 13 00 00 	lea    0x13a3(%rip),%rax        # 4bc0 <main+0x1850>
    381d:	48 89 05 2c 52 01 00 	mov    %rax,0x1522c(%rip)        # 18a50 <call+0x3b0>
    3824:	48 8d 05 78 13 00 00 	lea    0x1378(%rip),%rax        # 4ba3 <main+0x1833>
    382b:	48 89 05 26 52 01 00 	mov    %rax,0x15226(%rip)        # 18a58 <call+0x3b8>
    3832:	48 8d 05 54 13 00 00 	lea    0x1354(%rip),%rax        # 4b8d <main+0x181d>
    3839:	48 89 05 a0 53 01 00 	mov    %rax,0x153a0(%rip)        # 18be0 <call+0x540>
    3840:	48 8d 05 22 13 00 00 	lea    0x1322(%rip),%rax        # 4b69 <main+0x17f9>
    3847:	48 89 05 12 52 01 00 	mov    %rax,0x15212(%rip)        # 18a60 <call+0x3c0>
    384e:	48 8d 05 ed 12 00 00 	lea    0x12ed(%rip),%rax        # 4b42 <main+0x17d2>
    3855:	48 89 05 0c 52 01 00 	mov    %rax,0x1520c(%rip)        # 18a68 <call+0x3c8>
    385c:	48 8d 05 bf 12 00 00 	lea    0x12bf(%rip),%rax        # 4b22 <main+0x17b2>
    3863:	48 89 05 66 53 01 00 	mov    %rax,0x15366(%rip)        # 18bd0 <call+0x530>
    386a:	48 8d 05 9a 12 00 00 	lea    0x129a(%rip),%rax        # 4b0b <main+0x179b>
    3871:	48 89 05 f8 51 01 00 	mov    %rax,0x151f8(%rip)        # 18a70 <call+0x3d0>
    3878:	48 8d 05 4c 12 00 00 	lea    0x124c(%rip),%rax        # 4acb <main+0x175b>
    387f:	48 89 05 f2 51 01 00 	mov    %rax,0x151f2(%rip)        # 18a78 <call+0x3d8>
    3886:	48 8d 05 eb 11 00 00 	lea    0x11eb(%rip),%rax        # 4a78 <main+0x1708>
    388d:	48 89 05 ec 51 01 00 	mov    %rax,0x151ec(%rip)        # 18a80 <call+0x3e0>
    3894:	48 8d 05 bb 11 00 00 	lea    0x11bb(%rip),%rax        # 4a56 <main+0x16e6>
    389b:	48 89 05 4e 4e 01 00 	mov    %rax,0x14e4e(%rip)        # 186f0 <call+0x50>
    38a2:	48 8d 05 92 11 00 00 	lea    0x1192(%rip),%rax        # 4a3b <main+0x16cb>
    38a9:	48 89 05 28 53 01 00 	mov    %rax,0x15328(%rip)        # 18bd8 <call+0x538>
    38b0:	48 8d 05 69 09 00 00 	lea    0x969(%rip),%rax        # 4220 <main+0xeb0>
    38b7:	48 89 05 3a 4e 01 00 	mov    %rax,0x14e3a(%rip)        # 186f8 <call+0x58>
    38be:	48 8d 05 30 11 00 00 	lea    0x1130(%rip),%rax        # 49f5 <main+0x1685>
    38c5:	48 89 05 1c 4e 01 00 	mov    %rax,0x14e1c(%rip)        # 186e8 <call+0x48>
    38cc:	48 8d 05 05 11 00 00 	lea    0x1105(%rip),%rax        # 49d8 <main+0x1668>
    38d3:	48 89 05 26 4e 01 00 	mov    %rax,0x14e26(%rip)        # 18700 <call+0x60>
    38da:	48 8d 05 b9 10 00 00 	lea    0x10b9(%rip),%rax        # 499a <main+0x162a>
    38e1:	48 89 05 f8 4d 01 00 	mov    %rax,0x14df8(%rip)        # 186e0 <call+0x40>
    38e8:	48 8d 05 7b 10 00 00 	lea    0x107b(%rip),%rax        # 496a <main+0x15fa>
    38ef:	48 89 05 12 4e 01 00 	mov    %rax,0x14e12(%rip)        # 18708 <call+0x68>
    38f6:	48 8d 05 52 10 00 00 	lea    0x1052(%rip),%rax        # 494f <main+0x15df>
    38fd:	48 89 05 bc 52 01 00 	mov    %rax,0x152bc(%rip)        # 18bc0 <call+0x520>
    3904:	48 8d 05 14 10 00 00 	lea    0x1014(%rip),%rax        # 491f <main+0x15af>
    390b:	48 89 05 fe 4d 01 00 	mov    %rax,0x14dfe(%rip)        # 18710 <call+0x70>
    3912:	48 8d 05 f4 08 00 00 	lea    0x8f4(%rip),%rax        # 420d <main+0xe9d>
    3919:	48 89 05 a8 52 01 00 	mov    %rax,0x152a8(%rip)        # 18bc8 <call+0x528>
    3920:	48 8d 05 e2 0f 00 00 	lea    0xfe2(%rip),%rax        # 4909 <main+0x1599>
    3927:	48 89 05 7a 4e 01 00 	mov    %rax,0x14e7a(%rip)        # 187a8 <call+0x108>
    392e:	48 8d 05 ae 0f 00 00 	lea    0xfae(%rip),%rax        # 48e3 <main+0x1573>
    3935:	48 89 05 74 4e 01 00 	mov    %rax,0x14e74(%rip)        # 187b0 <call+0x110>
    393c:	48 8d 05 7a 0f 00 00 	lea    0xf7a(%rip),%rax        # 48bd <main+0x154d>
    3943:	48 89 05 6e 4e 01 00 	mov    %rax,0x14e6e(%rip)        # 187b8 <call+0x118>
    394a:	48 8d 05 55 0f 00 00 	lea    0xf55(%rip),%rax        # 48a6 <main+0x1536>
    3951:	48 89 05 68 4e 01 00 	mov    %rax,0x14e68(%rip)        # 187c0 <call+0x120>
    3958:	48 8d 05 21 0f 00 00 	lea    0xf21(%rip),%rax        # 4880 <main+0x1510>
    395f:	48 89 05 62 4e 01 00 	mov    %rax,0x14e62(%rip)        # 187c8 <call+0x128>
    3966:	48 8d 05 f4 0e 00 00 	lea    0xef4(%rip),%rax        # 4861 <main+0x14f1>
    396d:	48 89 05 5c 4e 01 00 	mov    %rax,0x14e5c(%rip)        # 187d0 <call+0x130>
    3974:	48 8d 05 d1 0e 00 00 	lea    0xed1(%rip),%rax        # 484c <main+0x14dc>
    397b:	48 89 05 56 4e 01 00 	mov    %rax,0x14e56(%rip)        # 187d8 <call+0x138>
    3982:	48 8d 05 aa 0e 00 00 	lea    0xeaa(%rip),%rax        # 4833 <main+0x14c3>
    3989:	48 89 05 50 4e 01 00 	mov    %rax,0x14e50(%rip)        # 187e0 <call+0x140>
    3990:	48 8d 05 7c 0e 00 00 	lea    0xe7c(%rip),%rax        # 4813 <main+0x14a3>
    3997:	48 89 05 4a 4e 01 00 	mov    %rax,0x14e4a(%rip)        # 187e8 <call+0x148>
    399e:	48 8d 05 4b 0e 00 00 	lea    0xe4b(%rip),%rax        # 47f0 <main+0x1480>
    39a5:	48 89 05 44 4e 01 00 	mov    %rax,0x14e44(%rip)        # 187f0 <call+0x150>
    39ac:	48 8d 05 1a 0e 00 00 	lea    0xe1a(%rip),%rax        # 47cd <main+0x145d>
    39b3:	48 89 05 3e 4e 01 00 	mov    %rax,0x14e3e(%rip)        # 187f8 <call+0x158>
    39ba:	48 8d 05 f2 0d 00 00 	lea    0xdf2(%rip),%rax        # 47b3 <main+0x1443>
    39c1:	48 89 05 38 4e 01 00 	mov    %rax,0x14e38(%rip)        # 18800 <call+0x160>
    39c8:	48 8d 05 c2 0d 00 00 	lea    0xdc2(%rip),%rax        # 4791 <main+0x1421>
    39cf:	48 89 05 32 4e 01 00 	mov    %rax,0x14e32(%rip)        # 18808 <call+0x168>
    39d6:	48 8d 05 92 0d 00 00 	lea    0xd92(%rip),%rax        # 476f <main+0x13ff>
    39dd:	48 89 05 2c 4e 01 00 	mov    %rax,0x14e2c(%rip)        # 18810 <call+0x170>
    39e4:	48 8d 05 6b 0d 00 00 	lea    0xd6b(%rip),%rax        # 4756 <main+0x13e6>
    39eb:	48 89 05 26 4e 01 00 	mov    %rax,0x14e26(%rip)        # 18818 <call+0x178>
    39f2:	48 8d 05 44 0d 00 00 	lea    0xd44(%rip),%rax        # 473d <main+0x13cd>
    39f9:	48 89 05 20 4e 01 00 	mov    %rax,0x14e20(%rip)        # 18820 <call+0x180>
    3a00:	48 8d 05 1d 0d 00 00 	lea    0xd1d(%rip),%rax        # 4724 <main+0x13b4>
    3a07:	48 89 05 1a 4e 01 00 	mov    %rax,0x14e1a(%rip)        # 18828 <call+0x188>
    3a0e:	48 8d 05 fa 0c 00 00 	lea    0xcfa(%rip),%rax        # 470f <main+0x139f>
    3a15:	48 89 05 8c 51 01 00 	mov    %rax,0x1518c(%rip)        # 18ba8 <call+0x508>
    3a1c:	48 8d 05 c8 0c 00 00 	lea    0xcc8(%rip),%rax        # 46eb <main+0x137b>
    3a23:	48 89 05 06 4e 01 00 	mov    %rax,0x14e06(%rip)        # 18830 <call+0x190>
    3a2a:	48 8d 05 96 0c 00 00 	lea    0xc96(%rip),%rax        # 46c7 <main+0x1357>
    3a31:	48 89 05 00 4e 01 00 	mov    %rax,0x14e00(%rip)        # 18838 <call+0x198>
    3a38:	48 8d 05 64 0c 00 00 	lea    0xc64(%rip),%rax        # 46a3 <main+0x1333>
    3a3f:	48 89 05 fa 4d 01 00 	mov    %rax,0x14dfa(%rip)        # 18840 <call+0x1a0>
    3a46:	48 8d 05 32 0c 00 00 	lea    0xc32(%rip),%rax        # 467f <main+0x130f>
    3a4d:	48 89 05 f4 4d 01 00 	mov    %rax,0x14df4(%rip)        # 18848 <call+0x1a8>
    3a54:	48 8d 05 0b 0c 00 00 	lea    0xc0b(%rip),%rax        # 4666 <main+0x12f6>
    3a5b:	48 89 05 ee 4d 01 00 	mov    %rax,0x14dee(%rip)        # 18850 <call+0x1b0>
    3a62:	48 8d 05 e7 0b 00 00 	lea    0xbe7(%rip),%rax        # 4650 <main+0x12e0>
    3a69:	48 89 05 e8 4d 01 00 	mov    %rax,0x14de8(%rip)        # 18858 <call+0x1b8>
    3a70:	48 8d 05 b9 0b 00 00 	lea    0xbb9(%rip),%rax        # 4630 <main+0x12c0>
    3a77:	48 89 05 e2 4d 01 00 	mov    %rax,0x14de2(%rip)        # 18860 <call+0x1c0>
    3a7e:	48 8d 05 93 0b 00 00 	lea    0xb93(%rip),%rax        # 4618 <main+0x12a8>
    3a85:	48 89 05 c4 4e 01 00 	mov    %rax,0x14ec4(%rip)        # 18950 <call+0x2b0>
    3a8c:	48 8d 05 5c 0b 00 00 	lea    0xb5c(%rip),%rax        # 45ef <main+0x127f>
    3a93:	48 89 05 d6 4d 01 00 	mov    %rax,0x14dd6(%rip)        # 18870 <call+0x1d0>
    3a9a:	48 8d 05 25 0b 00 00 	lea    0xb25(%rip),%rax        # 45c6 <main+0x1256>
    3aa1:	48 89 05 c0 4d 01 00 	mov    %rax,0x14dc0(%rip)        # 18868 <call+0x1c8>
    3aa8:	48 8d 05 01 0b 00 00 	lea    0xb01(%rip),%rax        # 45b0 <main+0x1240>
    3aaf:	48 89 05 c2 4d 01 00 	mov    %rax,0x14dc2(%rip)        # 18878 <call+0x1d8>
    3ab6:	48 8d 05 dd 0a 00 00 	lea    0xadd(%rip),%rax        # 459a <main+0x122a>
    3abd:	48 89 05 bc 4d 01 00 	mov    %rax,0x14dbc(%rip)        # 18880 <call+0x1e0>
    3ac4:	48 8d 05 ba 0a 00 00 	lea    0xaba(%rip),%rax        # 4585 <main+0x1215>
    3acb:	48 89 05 b6 4d 01 00 	mov    %rax,0x14db6(%rip)        # 18888 <call+0x1e8>
    3ad2:	48 8d 05 97 0a 00 00 	lea    0xa97(%rip),%rax        # 4570 <main+0x1200>
    3ad9:	48 89 05 b0 4d 01 00 	mov    %rax,0x14db0(%rip)        # 18890 <call+0x1f0>
    3ae0:	48 8d 05 51 0a 00 00 	lea    0xa51(%rip),%rax        # 4538 <main+0x11c8>
    3ae7:	48 89 05 b2 4d 01 00 	mov    %rax,0x14db2(%rip)        # 188a0 <call+0x200>
    3aee:	48 8d 05 10 0a 00 00 	lea    0xa10(%rip),%rax        # 4505 <main+0x1195>
    3af5:	48 89 05 ac 4d 01 00 	mov    %rax,0x14dac(%rip)        # 188a8 <call+0x208>
    3afc:	48 8d 05 dc 09 00 00 	lea    0x9dc(%rip),%rax        # 44df <main+0x116f>
    3b03:	48 89 05 d6 4f 01 00 	mov    %rax,0x14fd6(%rip)        # 18ae0 <call+0x440>
    3b0a:	48 8d 05 a8 09 00 00 	lea    0x9a8(%rip),%rax        # 44b9 <main+0x1149>
    3b11:	48 89 05 d0 4f 01 00 	mov    %rax,0x14fd0(%rip)        # 18ae8 <call+0x448>
    3b18:	48 8d 05 70 09 00 00 	lea    0x970(%rip),%rax        # 448f <main+0x111f>
    3b1f:	48 89 05 da 4f 01 00 	mov    %rax,0x14fda(%rip)        # 18b00 <call+0x460>
    3b26:	48 8d 05 63 05 00 00 	lea    0x563(%rip),%rax        # 4090 <main+0xd20>
    3b2d:	48 89 05 d4 4f 01 00 	mov    %rax,0x14fd4(%rip)        # 18b08 <call+0x468>
    3b34:	48 8d 05 2b 09 00 00 	lea    0x92b(%rip),%rax        # 4466 <main+0x10f6>
    3b3b:	48 89 05 ce 4f 01 00 	mov    %rax,0x14fce(%rip)        # 18b10 <call+0x470>
    3b42:	48 8d 05 fd 08 00 00 	lea    0x8fd(%rip),%rax        # 4446 <main+0x10d6>
    3b49:	48 89 05 00 50 01 00 	mov    %rax,0x15000(%rip)        # 18b50 <call+0x4b0>
    3b50:	48 8d 05 cf 08 00 00 	lea    0x8cf(%rip),%rax        # 4426 <main+0x10b6>
    3b57:	48 89 05 ba 4f 01 00 	mov    %rax,0x14fba(%rip)        # 18b18 <call+0x478>
    3b5e:	48 8d 05 a1 08 00 00 	lea    0x8a1(%rip),%rax        # 4406 <main+0x1096>
    3b65:	48 89 05 1c 4f 01 00 	mov    %rax,0x14f1c(%rip)        # 18a88 <call+0x3e8>
    3b6c:	48 8d 05 73 08 00 00 	lea    0x873(%rip),%rax        # 43e6 <main+0x1076>
    3b73:	48 89 05 16 4f 01 00 	mov    %rax,0x14f16(%rip)        # 18a90 <call+0x3f0>
    3b7a:	48 8d 05 45 08 00 00 	lea    0x845(%rip),%rax        # 43c6 <main+0x1056>
    3b81:	48 89 05 10 4f 01 00 	mov    %rax,0x14f10(%rip)        # 18a98 <call+0x3f8>
    3b88:	48 8d 05 17 08 00 00 	lea    0x817(%rip),%rax        # 43a6 <main+0x1036>
    3b8f:	48 89 05 22 4d 01 00 	mov    %rax,0x14d22(%rip)        # 188b8 <call+0x218>
    3b96:	48 8d 05 e9 07 00 00 	lea    0x7e9(%rip),%rax        # 4386 <main+0x1016>
    3b9d:	48 89 05 1c 4d 01 00 	mov    %rax,0x14d1c(%rip)        # 188c0 <call+0x220>
    3ba4:	48 8d 05 76 07 00 00 	lea    0x776(%rip),%rax        # 4321 <main+0xfb1>
    3bab:	48 89 05 6e 4f 01 00 	mov    %rax,0x14f6e(%rip)        # 18b20 <call+0x480>
    3bb2:	48 8d 05 27 07 00 00 	lea    0x727(%rip),%rax        # 42e0 <main+0xf70>
    3bb9:	48 89 05 18 4d 01 00 	mov    %rax,0x14d18(%rip)        # 188d8 <call+0x238>
    3bc0:	48 8d 05 9a 04 00 00 	lea    0x49a(%rip),%rax        # 4061 <main+0xcf1>
    3bc7:	48 89 05 fa 4c 01 00 	mov    %rax,0x14cfa(%rip)        # 188c8 <call+0x228>
    3bce:	48 8d 05 d7 06 00 00 	lea    0x6d7(%rip),%rax        # 42ac <main+0xf3c>
    3bd5:	48 89 05 c4 4e 01 00 	mov    %rax,0x14ec4(%rip)        # 18aa0 <call+0x400>
    3bdc:	48 8d 05 d6 04 00 00 	lea    0x4d6(%rip),%rax        # 40b9 <main+0xd49>
    3be3:	48 89 05 3e 4f 01 00 	mov    %rax,0x14f3e(%rip)        # 18b28 <call+0x488>
    3bea:	48 8d 05 8b 06 00 00 	lea    0x68b(%rip),%rax        # 427c <main+0xf0c>
    3bf1:	48 89 05 d8 4c 01 00 	mov    %rax,0x14cd8(%rip)        # 188d0 <call+0x230>
    3bf8:	48 8d 05 8e 26 00 00 	lea    0x268e(%rip),%rax        # 628d <main+0x2f1d>
    3bff:	48 89 05 a2 4e 01 00 	mov    %rax,0x14ea2(%rip)        # 18aa8 <call+0x408>
    3c06:	48 8d 05 67 26 00 00 	lea    0x2667(%rip),%rax        # 6274 <main+0x2f04>
    3c0d:	48 89 05 9c 4e 01 00 	mov    %rax,0x14e9c(%rip)        # 18ab0 <call+0x410>
    3c14:	48 8d 05 40 26 00 00 	lea    0x2640(%rip),%rax        # 625b <main+0x2eeb>
    3c1b:	48 89 05 96 4e 01 00 	mov    %rax,0x14e96(%rip)        # 18ab8 <call+0x418>
    3c22:	48 8d 05 1c 26 00 00 	lea    0x261c(%rip),%rax        # 6245 <main+0x2ed5>
    3c29:	48 89 05 90 4e 01 00 	mov    %rax,0x14e90(%rip)        # 18ac0 <call+0x420>
    3c30:	48 8d 05 f1 25 00 00 	lea    0x25f1(%rip),%rax        # 6228 <main+0x2eb8>
    3c37:	48 89 05 8a 4e 01 00 	mov    %rax,0x14e8a(%rip)        # 18ac8 <call+0x428>
    3c3e:	48 8d 05 c8 25 00 00 	lea    0x25c8(%rip),%rax        # 620d <main+0x2e9d>
    3c45:	48 89 05 84 4e 01 00 	mov    %rax,0x14e84(%rip)        # 18ad0 <call+0x430>
    3c4c:	48 8d 05 9f 25 00 00 	lea    0x259f(%rip),%rax        # 61f2 <main+0x2e82>
    3c53:	48 89 05 7e 4e 01 00 	mov    %rax,0x14e7e(%rip)        # 18ad8 <call+0x438>
    3c5a:	48 8d 05 6f 25 00 00 	lea    0x256f(%rip),%rax        # 61d0 <main+0x2e60>
    3c61:	48 89 05 20 4d 01 00 	mov    %rax,0x14d20(%rip)        # 18988 <call+0x2e8>
    3c68:	48 8d 05 17 25 00 00 	lea    0x2517(%rip),%rax        # 6186 <main+0x2e16>
    3c6f:	48 89 05 1a 4d 01 00 	mov    %rax,0x14d1a(%rip)        # 18990 <call+0x2f0>
    3c76:	48 8d 05 ce 24 00 00 	lea    0x24ce(%rip),%rax        # 614b <main+0x2ddb>
    3c7d:	48 89 05 5c 4c 01 00 	mov    %rax,0x14c5c(%rip)        # 188e0 <call+0x240>
    3c84:	48 8d 05 9a 24 00 00 	lea    0x249a(%rip),%rax        # 6125 <main+0x2db5>
    3c8b:	48 89 05 56 4c 01 00 	mov    %rax,0x14c56(%rip)        # 188e8 <call+0x248>
    3c92:	48 8d 05 66 24 00 00 	lea    0x2466(%rip),%rax        # 60ff <main+0x2d8f>
    3c99:	48 89 05 50 4c 01 00 	mov    %rax,0x14c50(%rip)        # 188f0 <call+0x250>
    3ca0:	48 8d 05 3b 24 00 00 	lea    0x243b(%rip),%rax        # 60e2 <main+0x2d72>
    3ca7:	48 89 05 ea 4c 01 00 	mov    %rax,0x14cea(%rip)        # 18998 <call+0x2f8>
    3cae:	48 8d 05 0c 24 00 00 	lea    0x240c(%rip),%rax        # 60c1 <main+0x2d51>
    3cb5:	48 89 05 e4 4c 01 00 	mov    %rax,0x14ce4(%rip)        # 189a0 <call+0x300>
    3cbc:	48 8d 05 de 23 00 00 	lea    0x23de(%rip),%rax        # 60a1 <main+0x2d31>
    3cc3:	48 89 05 66 4e 01 00 	mov    %rax,0x14e66(%rip)        # 18b30 <call+0x490>
    3cca:	48 8d 05 b0 23 00 00 	lea    0x23b0(%rip),%rax        # 6081 <main+0x2d11>
    3cd1:	48 89 05 60 4e 01 00 	mov    %rax,0x14e60(%rip)        # 18b38 <call+0x498>
    3cd8:	48 8d 05 82 23 00 00 	lea    0x2382(%rip),%rax        # 6061 <main+0x2cf1>
    3cdf:	48 89 05 62 4e 01 00 	mov    %rax,0x14e62(%rip)        # 18b48 <call+0x4a8>
    3ce6:	48 8d 05 54 23 00 00 	lea    0x2354(%rip),%rax        # 6041 <main+0x2cd1>
    3ced:	48 89 05 4c 4e 01 00 	mov    %rax,0x14e4c(%rip)        # 18b40 <call+0x4a0>
    3cf4:	48 8d 05 18 23 00 00 	lea    0x2318(%rip),%rax        # 6013 <main+0x2ca3>
    3cfb:	48 89 05 f6 4b 01 00 	mov    %rax,0x14bf6(%rip)        # 188f8 <call+0x258>
    3d02:	48 8d 05 e5 22 00 00 	lea    0x22e5(%rip),%rax        # 5fee <main+0x2c7e>
    3d09:	48 89 05 f0 4b 01 00 	mov    %rax,0x14bf0(%rip)        # 18900 <call+0x260>
    3d10:	48 8d 05 b6 22 00 00 	lea    0x22b6(%rip),%rax        # 5fcd <main+0x2c5d>
    3d17:	48 89 05 ea 4b 01 00 	mov    %rax,0x14bea(%rip)        # 18908 <call+0x268>
    3d1e:	48 8d 05 8b 22 00 00 	lea    0x228b(%rip),%rax        # 5fb0 <main+0x2c40>
    3d25:	48 89 05 7c 4c 01 00 	mov    %rax,0x14c7c(%rip)        # 189a8 <call+0x308>
    3d2c:	48 8d 05 43 22 00 00 	lea    0x2243(%rip),%rax        # 5f76 <main+0x2c06>
    3d33:	48 89 05 76 4c 01 00 	mov    %rax,0x14c76(%rip)        # 189b0 <call+0x310>
    3d3a:	48 8d 05 00 22 00 00 	lea    0x2200(%rip),%rax        # 5f41 <main+0x2bd1>
    3d41:	48 89 05 c8 4b 01 00 	mov    %rax,0x14bc8(%rip)        # 18910 <call+0x270>
    3d48:	48 8d 05 c9 21 00 00 	lea    0x21c9(%rip),%rax        # 5f18 <main+0x2ba8>
    3d4f:	48 89 05 9a 4d 01 00 	mov    %rax,0x14d9a(%rip)        # 18af0 <call+0x450>
    3d56:	48 8d 05 84 21 00 00 	lea    0x2184(%rip),%rax        # 5ee1 <main+0x2b71>
    3d5d:	48 89 05 94 4d 01 00 	mov    %rax,0x14d94(%rip)        # 18af8 <call+0x458>
    3d64:	48 8d 05 41 21 00 00 	lea    0x2141(%rip),%rax        # 5eac <main+0x2b3c>
    3d6b:	48 89 05 3e 4b 01 00 	mov    %rax,0x14b3e(%rip)        # 188b0 <call+0x210>
    3d72:	48 8d 05 07 21 00 00 	lea    0x2107(%rip),%rax        # 5e80 <main+0x2b10>
    3d79:	48 89 05 98 4b 01 00 	mov    %rax,0x14b98(%rip)        # 18918 <call+0x278>
    3d80:	48 8d 05 d8 20 00 00 	lea    0x20d8(%rip),%rax        # 5e5f <main+0x2aef>
    3d87:	48 89 05 92 4b 01 00 	mov    %rax,0x14b92(%rip)        # 18920 <call+0x280>
    3d8e:	48 8d 05 9c 20 00 00 	lea    0x209c(%rip),%rax        # 5e31 <main+0x2ac1>
    3d95:	48 89 05 fc 4d 01 00 	mov    %rax,0x14dfc(%rip)        # 18b98 <call+0x4f8>
    3d9c:	48 8d 05 63 20 00 00 	lea    0x2063(%rip),%rax        # 5e06 <main+0x2a96>
    3da3:	48 89 05 f6 4d 01 00 	mov    %rax,0x14df6(%rip)        # 18ba0 <call+0x500>
    3daa:	48 8d 05 0b 20 00 00 	lea    0x200b(%rip),%rax        # 5dbc <main+0x2a4c>
    3db1:	48 89 05 70 4b 01 00 	mov    %rax,0x14b70(%rip)        # 18928 <call+0x288>
    3db8:	48 8d 05 b8 1f 00 00 	lea    0x1fb8(%rip),%rax        # 5d77 <main+0x2a07>
    3dbf:	48 89 05 6a 4b 01 00 	mov    %rax,0x14b6a(%rip)        # 18930 <call+0x290>
    3dc6:	48 8d 05 69 1f 00 00 	lea    0x1f69(%rip),%rax        # 5d36 <main+0x29c6>
    3dcd:	48 89 05 64 4b 01 00 	mov    %rax,0x14b64(%rip)        # 18938 <call+0x298>
    3dd4:	48 8d 05 45 1f 00 00 	lea    0x1f45(%rip),%rax        # 5d20 <main+0x29b0>
    3ddb:	48 89 05 5e 4b 01 00 	mov    %rax,0x14b5e(%rip)        # 18940 <call+0x2a0>
    3de2:	48 8d 05 25 1f 00 00 	lea    0x1f25(%rip),%rax        # 5d0e <main+0x299e>
    3de9:	48 89 05 58 4b 01 00 	mov    %rax,0x14b58(%rip)        # 18948 <call+0x2a8>
    3df0:	48 8d 05 df 1e 00 00 	lea    0x1edf(%rip),%rax        # 5cd6 <main+0x2966>
    3df7:	48 89 05 5a 4b 01 00 	mov    %rax,0x14b5a(%rip)        # 18958 <call+0x2b8>
    3dfe:	48 8d 05 b5 1e 00 00 	lea    0x1eb5(%rip),%rax        # 5cba <main+0x294a>
    3e05:	48 89 05 5c 4b 01 00 	mov    %rax,0x14b5c(%rip)        # 18968 <call+0x2c8>
    3e0c:	48 8d 05 70 1e 00 00 	lea    0x1e70(%rip),%rax        # 5c83 <main+0x2913>
    3e13:	48 89 05 56 4b 01 00 	mov    %rax,0x14b56(%rip)        # 18970 <call+0x2d0>
    3e1a:	48 8d 05 b7 1d 00 00 	lea    0x1db7(%rip),%rax        # 5bd8 <main+0x2868>
    3e21:	48 89 05 a0 4b 01 00 	mov    %rax,0x14ba0(%rip)        # 189c8 <call+0x328>
    3e28:	48 8d 05 d5 1c 00 00 	lea    0x1cd5(%rip),%rax        # 5b04 <main+0x2794>
    3e2f:	48 89 05 9a 4b 01 00 	mov    %rax,0x14b9a(%rip)        # 189d0 <call+0x330>
    3e36:	48 8d 05 5e 1c 00 00 	lea    0x1c5e(%rip),%rax        # 5a9b <main+0x272b>
    3e3d:	48 89 05 94 4b 01 00 	mov    %rax,0x14b94(%rip)        # 189d8 <call+0x338>
    3e44:	48 8d 05 f5 1b 00 00 	lea    0x1bf5(%rip),%rax        # 5a40 <main+0x26d0>
    3e4b:	48 89 05 8e 4b 01 00 	mov    %rax,0x14b8e(%rip)        # 189e0 <call+0x340>
    3e52:	48 8d 05 79 1b 00 00 	lea    0x1b79(%rip),%rax        # 59d2 <main+0x2662>
    3e59:	48 89 05 88 4b 01 00 	mov    %rax,0x14b88(%rip)        # 189e8 <call+0x348>
    3e60:	48 8d 05 ee 1a 00 00 	lea    0x1aee(%rip),%rax        # 5955 <main+0x25e5>
    3e67:	48 89 05 82 4b 01 00 	mov    %rax,0x14b82(%rip)        # 189f0 <call+0x350>
    3e6e:	48 8d 05 81 1a 00 00 	lea    0x1a81(%rip),%rax        # 58f6 <main+0x2586>
    3e75:	48 89 05 7c 4b 01 00 	mov    %rax,0x14b7c(%rip)        # 189f8 <call+0x358>
    3e7c:	48 8d 05 db 02 00 00 	lea    0x2db(%rip),%rax        # 415e <main+0xdee>
    3e83:	48 89 05 86 4b 01 00 	mov    %rax,0x14b86(%rip)        # 18a10 <call+0x370>
    3e8a:	48 8d 05 d9 19 00 00 	lea    0x19d9(%rip),%rax        # 586a <main+0x24fa>
    3e91:	48 89 05 80 4b 01 00 	mov    %rax,0x14b80(%rip)        # 18a18 <call+0x378>
    3e98:	48 8d 05 bf 02 00 00 	lea    0x2bf(%rip),%rax        # 415e <main+0xdee>
    3e9f:	48 89 05 c2 4c 01 00 	mov    %rax,0x14cc2(%rip)        # 18b68 <call+0x4c8>
    3ea6:	48 8d 05 6d 19 00 00 	lea    0x196d(%rip),%rax        # 581a <main+0x24aa>
    3ead:	48 89 05 4c 4b 01 00 	mov    %rax,0x14b4c(%rip)        # 18a00 <call+0x360>
    3eb4:	48 8d 05 0c 19 00 00 	lea    0x190c(%rip),%rax        # 57c7 <main+0x2457>
    3ebb:	48 89 05 46 4b 01 00 	mov    %rax,0x14b46(%rip)        # 18a08 <call+0x368>
    3ec2:	48 8d 05 a3 18 00 00 	lea    0x18a3(%rip),%rax        # 576c <main+0x23fc>
    3ec9:	48 89 05 50 4b 01 00 	mov    %rax,0x14b50(%rip)        # 18a20 <call+0x380>
    3ed0:	48 8d 05 76 18 00 00 	lea    0x1876(%rip),%rax        # 574d <main+0x23dd>
    3ed7:	48 89 05 82 4a 01 00 	mov    %rax,0x14a82(%rip)        # 18960 <call+0x2c0>
    3ede:	48 8d 05 46 18 00 00 	lea    0x1846(%rip),%rax        # 572b <main+0x23bb>
    3ee5:	48 89 05 8c 4a 01 00 	mov    %rax,0x14a8c(%rip)        # 18978 <call+0x2d8>
    3eec:	48 8d 05 fb 17 00 00 	lea    0x17fb(%rip),%rax        # 56ee <main+0x237e>
    3ef3:	48 89 05 5e 4c 01 00 	mov    %rax,0x14c5e(%rip)        # 18b58 <call+0x4b8>
    3efa:	48 8d 05 cc 17 00 00 	lea    0x17cc(%rip),%rax        # 56cd <main+0x235d>
    3f01:	48 89 05 58 4c 01 00 	mov    %rax,0x14c58(%rip)        # 18b60 <call+0x4c0>
    3f08:	48 8d 05 9d 17 00 00 	lea    0x179d(%rip),%rax        # 56ac <main+0x233c>
    3f0f:	48 89 05 5a 4c 01 00 	mov    %rax,0x14c5a(%rip)        # 18b70 <call+0x4d0>
    3f16:	48 8d 05 69 17 00 00 	lea    0x1769(%rip),%rax        # 5686 <main+0x2316>
    3f1d:	48 89 05 54 4c 01 00 	mov    %rax,0x14c54(%rip)        # 18b78 <call+0x4d8>
    3f24:	48 8d 05 36 17 00 00 	lea    0x1736(%rip),%rax        # 5661 <main+0x22f1>
    3f2b:	48 89 05 4e 4c 01 00 	mov    %rax,0x14c4e(%rip)        # 18b80 <call+0x4e0>
    3f32:	48 8d 05 b1 16 00 00 	lea    0x16b1(%rip),%rax        # 55ea <main+0x227a>
    3f39:	48 89 05 48 4c 01 00 	mov    %rax,0x14c48(%rip)        # 18b88 <call+0x4e8>
    3f40:	48 8d 05 65 16 00 00 	lea    0x1665(%rip),%rax        # 55ac <main+0x223c>
    3f47:	48 0f bf 15 b9 b0 00 	movswq 0xb0b9(%rip),%rdx        # f008 <init>
    3f4e:	00 
    3f4f:	48 89 05 3a 4c 01 00 	mov    %rax,0x14c3a(%rip)        # 18b90 <call+0x4f0>
    3f56:	48 8d 05 26 16 00 00 	lea    0x1626(%rip),%rax        # 5583 <main+0x2213>
    3f5d:	48 89 05 84 4c 01 00 	mov    %rax,0x14c84(%rip)        # 18be8 <call+0x548>
    3f64:	48 8d 05 d6 15 00 00 	lea    0x15d6(%rip),%rax        # 5541 <main+0x21d1>
    3f6b:	48 89 05 7e 4c 01 00 	mov    %rax,0x14c7e(%rip)        # 18bf0 <call+0x550>
    3f72:	48 8d 05 ab 15 00 00 	lea    0x15ab(%rip),%rax        # 5524 <main+0x21b4>
    3f79:	48 89 05 78 4c 01 00 	mov    %rax,0x14c78(%rip)        # 18bf8 <call+0x558>
    3f80:	48 8d 05 80 15 00 00 	lea    0x1580(%rip),%rax        # 5507 <main+0x2197>
    3f87:	48 89 05 7a 4c 01 00 	mov    %rax,0x14c7a(%rip)        # 18c08 <call+0x568>
    3f8e:	48 8d 05 48 14 00 00 	lea    0x1448(%rip),%rax        # 53dd <main+0x206d>
    3f95:	48 89 05 64 4c 01 00 	mov    %rax,0x14c64(%rip)        # 18c00 <call+0x560>
    3f9c:	48 8d 05 15 14 00 00 	lea    0x1415(%rip),%rax        # 53b8 <main+0x2048>
    3fa3:	48 89 05 66 4c 01 00 	mov    %rax,0x14c66(%rip)        # 18c10 <call+0x570>
    3faa:	48 8d 05 ca 13 00 00 	lea    0x13ca(%rip),%rax        # 537b <main+0x200b>
    3fb1:	48 89 05 60 4c 01 00 	mov    %rax,0x14c60(%rip)        # 18c18 <call+0x578>
    3fb8:	48 8d 05 7f 13 00 00 	lea    0x137f(%rip),%rax        # 533e <main+0x1fce>
    3fbf:	48 89 05 5a 4c 01 00 	mov    %rax,0x14c5a(%rip)        # 18c20 <call+0x580>
    3fc6:	48 8d 05 3a 13 00 00 	lea    0x133a(%rip),%rax        # 5307 <main+0x1f97>
    3fcd:	48 89 05 54 4c 01 00 	mov    %rax,0x14c54(%rip)        # 18c28 <call+0x588>
    3fd4:	48 8d 05 08 13 00 00 	lea    0x1308(%rip),%rax        # 52e3 <main+0x1f73>
    3fdb:	48 89 05 4e 4c 01 00 	mov    %rax,0x14c4e(%rip)        # 18c30 <call+0x590>
    3fe2:	48 8d 05 bc 12 00 00 	lea    0x12bc(%rip),%rax        # 52a5 <main+0x1f35>
    3fe9:	48 89 1d 50 4c 01 00 	mov    %rbx,0x14c50(%rip)        # 18c40 <call+0x5a0>
    3ff0:	48 8d 9c 24 58 61 00 	lea    0x6158(%rsp),%rbx
    3ff7:	00 
    3ff8:	48 89 05 39 4c 01 00 	mov    %rax,0x14c39(%rip)        # 18c38 <call+0x598>
    3fff:	48 8d 05 15 12 00 00 	lea    0x1215(%rip),%rax        # 521b <main+0x1eab>
    4006:	48 89 5c 24 18       	mov    %rbx,0x18(%rsp)
    400b:	48 8d 9c 24 58 41 00 	lea    0x4158(%rsp),%rbx
    4012:	00 
    4013:	48 89 05 66 49 01 00 	mov    %rax,0x14966(%rip)        # 18980 <call+0x2e0>
    401a:	48 89 d0             	mov    %rdx,%rax
    401d:	49 8b 14 d6          	mov    (%r14,%rdx,8),%rdx
    4021:	48 89 5c 24 60       	mov    %rbx,0x60(%rsp)
    4026:	48 89 5c 24 10       	mov    %rbx,0x10(%rsp)
    402b:	48 8d 9c 24 58 21 00 	lea    0x2158(%rsp),%rbx
    4032:	00 
    4033:	48 89 5c 24 58       	mov    %rbx,0x58(%rsp)
    4038:	48 89 5c 24 08       	mov    %rbx,0x8(%rsp)
    403d:	48 8d 9c 24 58 01 00 	lea    0x158(%rsp),%rbx
    4044:	00 
    4045:	c7 44 24 2c 00 00 00 	movl   $0x0,0x2c(%rsp)
    404c:	00 
    404d:	c7 44 24 68 00 00 00 	movl   $0x0,0x68(%rsp)
    4054:	00 
    4055:	48 89 5c 24 48       	mov    %rbx,0x48(%rsp)
    405a:	48 89 7c 24 40       	mov    %rdi,0x40(%rsp)
    405f:	ff e2                	jmp    *%rdx
    4061:	48 8d bc 24 b0 00 00 	lea    0xb0(%rsp),%rdi
    4068:	00 
    4069:	e8 12 34 00 00       	call   7480 <label>
    406e:	48 8b 8c 24 88 00 00 	mov    0x88(%rsp),%rcx
    4075:	00 
    4076:	48 8d 3d fe 0e 00 00 	lea    0xefe(%rip),%rdi        # 4f7b <main+0x1c0b>
    407d:	48 8d 15 1c c6 00 00 	lea    0xc61c(%rip),%rdx        # 106a0 <body>
    4084:	48 0f bf c0          	movswq %ax,%rax
    4088:	49 89 3c c6          	mov    %rdi,(%r14,%rax,8)
    408c:	48 89 0c c2          	mov    %rcx,(%rdx,%rax,8)
    4090:	4c 89 e7             	mov    %r12,%rdi
    4093:	48 8d b4 24 88 00 00 	lea    0x88(%rsp),%rsi
    409a:	00 
    409b:	48 83 eb 08          	sub    $0x8,%rbx
    409f:	48 83 c5 02          	add    $0x2,%rbp
    40a3:	e8 98 30 00 00       	call   7140 <ncompile>
    40a8:	48 0f bf 55 fe       	movswq -0x2(%rbp),%rdx
    40ad:	4c 8b 23             	mov    (%rbx),%r12
    40b0:	48 89 d0             	mov    %rdx,%rax
    40b3:	49 8b 14 d6          	mov    (%r14,%rdx,8),%rdx
    40b7:	ff e2                	jmp    *%rdx
    40b9:	49 6b d4 18          	imul   $0x18,%r12,%rdx
    40bd:	48 8b 05 dc 45 23 00 	mov    0x2345dc(%rip),%rax        # 2386a0 <current>
    40c4:	48 83 eb 08          	sub    $0x8,%rbx
    40c8:	4c 8d 3d d1 c5 00 00 	lea    0xc5d1(%rip),%r15        # 106a0 <body>
    40cf:	48 8d b4 24 88 00 00 	lea    0x88(%rsp),%rsi
    40d6:	00 
    40d7:	48 8b 00             	mov    (%rax),%rax
    40da:	48 89 74 24 18       	mov    %rsi,0x18(%rsp)
    40df:	4c 01 ea             	add    %r13,%rdx
    40e2:	48 89 50 10          	mov    %rdx,0x10(%rax)
    40e6:	4c 29 e8             	sub    %r13,%rax
    40e9:	49 89 c4             	mov    %rax,%r12
    40ec:	48 8d 05 1b 0e 00 00 	lea    0xe1b(%rip),%rax        # 4f0e <main+0x1b9e>
    40f3:	49 c1 fc 03          	sar    $0x3,%r12
    40f7:	66 45 69 e4 ab aa    	imul   $0xaaab,%r12w,%r12w
    40fd:	4d 0f bf e4          	movswq %r12w,%r12
    4101:	4b 89 04 e6          	mov    %rax,(%r14,%r12,8)
    4105:	4b 8b 3c e7          	mov    (%r15,%r12,8),%rdi
    4109:	48 8b 84 24 88 00 00 	mov    0x88(%rsp),%rax
    4110:	00 
    4111:	48 89 44 24 50       	mov    %rax,0x50(%rsp)
    4116:	e8 25 30 00 00       	call   7140 <ncompile>
    411b:	48 8b 74 24 18       	mov    0x18(%rsp),%rsi
    4120:	48 89 ef             	mov    %rbp,%rdi
    4123:	e8 18 30 00 00       	call   7140 <ncompile>
    4128:	48 8b 44 24 50       	mov    0x50(%rsp),%rax
    412d:	4b 89 04 e7          	mov    %rax,(%r15,%r12,8)
    4131:	4c 8b 23             	mov    (%rbx),%r12
    4134:	48 8b 7c 24 08       	mov    0x8(%rsp),%rdi
    4139:	48 8b 47 e0          	mov    -0x20(%rdi),%rax
    413d:	48 8b 4f e8          	mov    -0x18(%rdi),%rcx
    4141:	48 83 ef 20          	sub    $0x20,%rdi
    4145:	48 89 7c 24 08       	mov    %rdi,0x8(%rsp)
    414a:	48 0f bf 10          	movswq (%rax),%rdx
    414e:	48 8d 68 02          	lea    0x2(%rax),%rbp
    4152:	48 89 4c 24 18       	mov    %rcx,0x18(%rsp)
    4157:	48 89 d0             	mov    %rdx,%rax
    415a:	41 ff 24 d6          	jmp    *(%r14,%rdx,8)
    415e:	4c 89 23             	mov    %r12,(%rbx)
    4161:	bf 7a 00 00 00       	mov    $0x7a,%edi
    4166:	48 83 c3 28          	add    $0x28,%rbx
    416a:	48 83 c5 02          	add    $0x2,%rbp
    416e:	48 8b 05 63 45 23 00 	mov    0x234563(%rip),%rax        # 2386d8 <mode>
    4175:	48 8d b4 24 88 00 00 	lea    0x88(%rsp),%rsi
    417c:	00 
    417d:	48 c7 05 50 45 23 00 	movq   $0x0,0x234550(%rip)        # 2386d8 <mode>
    4184:	00 00 00 00 
    4188:	48 89 74 24 50       	mov    %rsi,0x50(%rsp)
    418d:	48 89 43 e0          	mov    %rax,-0x20(%rbx)
    4191:	e8 4a 2e 00 00       	call   6fe0 <compile>
    4196:	4c 8b a4 24 88 00 00 	mov    0x88(%rsp),%r12
    419d:	00 
    419e:	48 8b 74 24 50       	mov    0x50(%rsp),%rsi
    41a3:	31 ff                	xor    %edi,%edi
    41a5:	e8 36 2e 00 00       	call   6fe0 <compile>
    41aa:	4c 89 63 e8          	mov    %r12,-0x18(%rbx)
    41ae:	48 8d bc 24 b0 00 00 	lea    0xb0(%rsp),%rdi
    41b5:	00 
    41b6:	e8 c5 32 00 00       	call   7480 <label>
    41bb:	48 8b 8c 24 88 00 00 	mov    0x88(%rsp),%rcx
    41c2:	00 
    41c3:	48 8b 74 24 50       	mov    0x50(%rsp),%rsi
    41c8:	48 8d 15 d1 c4 00 00 	lea    0xc4d1(%rip),%rdx        # 106a0 <body>
    41cf:	4c 0f bf e0          	movswq %ax,%r12
    41d3:	48 8d 3d a1 0d 00 00 	lea    0xda1(%rip),%rdi        # 4f7b <main+0x1c0b>
    41da:	49 0f bf c4          	movswq %r12w,%rax
    41de:	48 89 0c c2          	mov    %rcx,(%rdx,%rax,8)
    41e2:	49 89 3c c6          	mov    %rdi,(%r14,%rax,8)
    41e6:	31 ff                	xor    %edi,%edi
    41e8:	e8 53 2f 00 00       	call   7140 <ncompile>
    41ed:	48 0f bf 55 fe       	movswq -0x2(%rbp),%rdx
    41f2:	4c 89 63 f0          	mov    %r12,-0x10(%rbx)
    41f6:	41 bc 03 00 00 00    	mov    $0x3,%r12d
    41fc:	48 c7 43 f8 00 00 00 	movq   $0x0,-0x8(%rbx)
    4203:	00 
    4204:	48 89 d0             	mov    %rdx,%rax
    4207:	49 8b 14 d6          	mov    (%r14,%rdx,8),%rdx
    420b:	ff e2                	jmp    *%rdx
    420d:	4d 85 e4             	test   %r12,%r12
    4210:	0f 84 8c 21 00 00    	je     63a2 <main+0x3032>
    4216:	66 2e 0f 1f 84 00 00 	cs nopw 0x0(%rax,%rax,1)
    421d:	00 00 00 
    4220:	48 8b 7c 24 18       	mov    0x18(%rsp),%rdi
    4225:	48 8b 47 e8          	mov    -0x18(%rdi),%rax
    4229:	48 83 ef 18          	sub    $0x18,%rdi
    422d:	48 89 7c 24 18       	mov    %rdi,0x18(%rsp)
    4232:	48 0f bf 10          	movswq (%rax),%rdx
    4236:	48 01 d0             	add    %rdx,%rax
    4239:	48 0f bf 10          	movswq (%rax),%rdx
    423d:	48 8d 68 02          	lea    0x2(%rax),%rbp
    4241:	48 89 d0             	mov    %rdx,%rax
    4244:	41 ff 24 d6          	jmp    *(%r14,%rdx,8)
    4248:	49 8b 17             	mov    (%r15),%rdx
    424b:	48 8b 84 24 88 00 00 	mov    0x88(%rsp),%rax
    4252:	00 
    4253:	48 83 eb 18          	sub    $0x18,%rbx
    4257:	48 89 94 24 98 00 00 	mov    %rdx,0x98(%rsp)
    425e:	00 
    425f:	49 8b 4f f0          	mov    -0x10(%r15),%rcx
    4263:	4d 8b 67 f8          	mov    -0x8(%r15),%r12
    4267:	48 29 c8             	sub    %rcx,%rax
    426a:	66 89 01             	mov    %ax,(%rcx)
    426d:	49 8b 47 e8          	mov    -0x18(%r15),%rax
    4271:	48 89 05 60 44 23 00 	mov    %rax,0x234460(%rip)        # 2386d8 <mode>
    4278:	49 89 57 e8          	mov    %rdx,-0x18(%r15)
    427c:	48 8d 15 1d c4 00 00 	lea    0xc41d(%rip),%rdx        # 106a0 <body>
    4283:	48 8b 4b f8          	mov    -0x8(%rbx),%rcx
    4287:	48 8d 43 f8          	lea    -0x8(%rbx),%rax
    428b:	48 83 c5 02          	add    $0x2,%rbp
    428f:	4a 8b 14 e2          	mov    (%rdx,%r12,8),%rdx
    4293:	48 83 eb 10          	sub    $0x10,%rbx
    4297:	48 89 0a             	mov    %rcx,(%rdx)
    429a:	48 0f bf 55 fe       	movswq -0x2(%rbp),%rdx
    429f:	4c 8b 60 f8          	mov    -0x8(%rax),%r12
    42a3:	48 89 d0             	mov    %rdx,%rax
    42a6:	49 8b 14 d6          	mov    (%r14,%rdx,8),%rdx
    42aa:	ff e2                	jmp    *%rdx
    42ac:	48 8d bc 24 b0 00 00 	lea    0xb0(%rsp),%rdi
    42b3:	00 
    42b4:	e8 c7 31 00 00       	call   7480 <label>
    42b9:	48 8b 8c 24 88 00 00 	mov    0x88(%rsp),%rcx
    42c0:	00 
    42c1:	48 8d 35 8f 0c 00 00 	lea    0xc8f(%rip),%rsi        # 4f57 <main+0x1be7>
    42c8:	48 8d 15 d1 c3 00 00 	lea    0xc3d1(%rip),%rdx        # 106a0 <body>
    42cf:	48 0f bf c0          	movswq %ax,%rax
    42d3:	49 89 34 c6          	mov    %rsi,(%r14,%rax,8)
    42d7:	48 89 0c c2          	mov    %rcx,(%rdx,%rax,8)
    42db:	e9 b0 fd ff ff       	jmp    4090 <main+0xd20>
    42e0:	48 8d bc 24 b0 00 00 	lea    0xb0(%rsp),%rdi
    42e7:	00 
    42e8:	48 83 c5 02          	add    $0x2,%rbp
    42ec:	e8 8f 31 00 00       	call   7480 <label>
    42f1:	48 8b 8c 24 88 00 00 	mov    0x88(%rsp),%rcx
    42f8:	00 
    42f9:	48 8d 15 a0 c3 00 00 	lea    0xc3a0(%rip),%rdx        # 106a0 <body>
    4300:	48 8d 35 9f 0c 00 00 	lea    0xc9f(%rip),%rsi        # 4fa6 <main+0x1c36>
    4307:	48 0f bf c0          	movswq %ax,%rax
    430b:	48 89 0c c2          	mov    %rcx,(%rdx,%rax,8)
    430f:	48 0f bf 55 fe       	movswq -0x2(%rbp),%rdx
    4314:	49 89 34 c6          	mov    %rsi,(%r14,%rax,8)
    4318:	48 89 d0             	mov    %rdx,%rax
    431b:	49 8b 14 d6          	mov    (%r14,%rdx,8),%rdx
    431f:	ff e2                	jmp    *%rdx
    4321:	48 8b 84 24 b0 00 00 	mov    0xb0(%rsp),%rax
    4328:	00 
    4329:	4c 89 23             	mov    %r12,(%rbx)
    432c:	4c 8d 7b 08          	lea    0x8(%rbx),%r15
    4330:	4c 29 e8             	sub    %r13,%rax
    4333:	48 3d e8 7f 01 00    	cmp    $0x17fe8,%rax
    4339:	0f 8f 0c 28 00 00    	jg     6b4b <main+0x37db>
    433f:	48 8d bc 24 b0 00 00 	lea    0xb0(%rsp),%rdi
    4346:	00 
    4347:	48 8d 1d e2 0c 00 00 	lea    0xce2(%rip),%rbx        # 5030 <main+0x1cc0>
    434e:	48 83 c5 02          	add    $0x2,%rbp
    4352:	e8 29 31 00 00       	call   7480 <label>
    4357:	48 8b b4 24 88 00 00 	mov    0x88(%rsp),%rsi
    435e:	00 
    435f:	48 8d 0d 3a c3 00 00 	lea    0xc33a(%rip),%rcx        # 106a0 <body>
    4366:	48 0f bf d0          	movswq %ax,%rdx
    436a:	49 89 1c d6          	mov    %rbx,(%r14,%rdx,8)
    436e:	49 89 d4             	mov    %rdx,%r12
    4371:	4c 89 fb             	mov    %r15,%rbx
    4374:	48 89 34 d1          	mov    %rsi,(%rcx,%rdx,8)
    4378:	48 0f bf 55 fe       	movswq -0x2(%rbp),%rdx
    437d:	48 89 d0             	mov    %rdx,%rax
    4380:	49 8b 14 d6          	mov    (%r14,%rdx,8),%rdx
    4384:	ff e2                	jmp    *%rdx
    4386:	48 0f bf 55 00       	movswq 0x0(%rbp),%rdx
    438b:	48 8d 05 16 43 23 00 	lea    0x234316(%rip),%rax        # 2386a8 <normal>
    4392:	48 83 c5 02          	add    $0x2,%rbp
    4396:	48 89 05 03 43 23 00 	mov    %rax,0x234303(%rip)        # 2386a0 <current>
    439d:	48 89 d0             	mov    %rdx,%rax
    43a0:	49 8b 14 d6          	mov    (%r14,%rdx,8),%rdx
    43a4:	ff e2                	jmp    *%rdx
    43a6:	48 0f bf 55 00       	movswq 0x0(%rbp),%rdx
    43ab:	48 8d 05 fe 42 23 00 	lea    0x2342fe(%rip),%rax        # 2386b0 <macro>
    43b2:	48 83 c5 02          	add    $0x2,%rbp
    43b6:	48 89 05 e3 42 23 00 	mov    %rax,0x2342e3(%rip)        # 2386a0 <current>
    43bd:	48 89 d0             	mov    %rdx,%rax
    43c0:	49 8b 14 d6          	mov    (%r14,%rdx,8),%rdx
    43c4:	ff e2                	jmp    *%rdx
    43c6:	48 0f bf 55 00       	movswq 0x0(%rbp),%rdx
    43cb:	4c 89 23             	mov    %r12,(%rbx)
    43ce:	48 83 c5 02          	add    $0x2,%rbp
    43d2:	48 83 c3 08          	add    $0x8,%rbx
    43d6:	4c 8b 25 c3 42 23 00 	mov    0x2342c3(%rip),%r12        # 2386a0 <current>
    43dd:	48 89 d0             	mov    %rdx,%rax
    43e0:	49 8b 14 d6          	mov    (%r14,%rdx,8),%rdx
    43e4:	ff e2                	jmp    *%rdx
    43e6:	48 0f bf 55 00       	movswq 0x0(%rbp),%rdx
    43eb:	4c 89 23             	mov    %r12,(%rbx)
    43ee:	48 83 c5 02          	add    $0x2,%rbp
    43f2:	48 83 c3 08          	add    $0x8,%rbx
    43f6:	4c 8b 25 ab 42 23 00 	mov    0x2342ab(%rip),%r12        # 2386a8 <normal>
    43fd:	48 89 d0             	mov    %rdx,%rax
    4400:	49 8b 14 d6          	mov    (%r14,%rdx,8),%rdx
    4404:	ff e2                	jmp    *%rdx
    4406:	48 0f bf 55 00       	movswq 0x0(%rbp),%rdx
    440b:	4c 89 23             	mov    %r12,(%rbx)
    440e:	48 83 c5 02          	add    $0x2,%rbp
    4412:	48 83 c3 08          	add    $0x8,%rbx
    4416:	4c 8b 25 93 42 23 00 	mov    0x234293(%rip),%r12        # 2386b0 <macro>
    441d:	48 89 d0             	mov    %rdx,%rax
    4420:	49 8b 14 d6          	mov    (%r14,%rdx,8),%rdx
    4424:	ff e2                	jmp    *%rdx
    4426:	48 0f bf 55 00       	movswq 0x0(%rbp),%rdx
    442b:	4c 89 23             	mov    %r12,(%rbx)
    442e:	48 83 c5 02          	add    $0x2,%rbp
    4432:	48 83 c3 08          	add    $0x8,%rbx
    4436:	4c 8d 25 9b 42 23 00 	lea    0x23429b(%rip),%r12        # 2386d8 <mode>
    443d:	48 89 d0             	mov    %rdx,%rax
    4440:	49 8b 14 d6          	mov    (%r14,%rdx,8),%rdx
    4444:	ff e2                	jmp    *%rdx
    4446:	48 0f bf 55 00       	movswq 0x0(%rbp),%rdx
    444b:	4c 89 23             	mov    %r12,(%rbx)
    444e:	48 83 c5 02          	add    $0x2,%rbp
    4452:	48 83 c3 08          	add    $0x8,%rbx
    4456:	4c 8d 25 83 42 23 00 	lea    0x234283(%rip),%r12        # 2386e0 <source>
    445d:	48 89 d0             	mov    %rdx,%rax
    4460:	49 8b 14 d6          	mov    (%r14,%rdx,8),%rdx
    4464:	ff e2                	jmp    *%rdx
    4466:	4c 89 e7             	mov    %r12,%rdi
    4469:	48 8d b4 24 88 00 00 	lea    0x88(%rsp),%rsi
    4470:	00 
    4471:	48 83 eb 08          	sub    $0x8,%rbx
    4475:	48 83 c5 02          	add    $0x2,%rbp
    4479:	e8 22 2d 00 00       	call   71a0 <scompile>
    447e:	48 0f bf 55 fe       	movswq -0x2(%rbp),%rdx
    4483:	4c 8b 23             	mov    (%rbx),%r12
    4486:	48 89 d0             	mov    %rdx,%rax
    4489:	49 8b 14 d6          	mov    (%r14,%rdx,8),%rdx
    448d:	ff e2                	jmp    *%rdx
    448f:	41 0f bf fc          	movswl %r12w,%edi
    4493:	48 8d b4 24 88 00 00 	lea    0x88(%rsp),%rsi
    449a:	00 
    449b:	48 83 eb 08          	sub    $0x8,%rbx
    449f:	48 83 c5 02          	add    $0x2,%rbp
    44a3:	e8 38 2b 00 00       	call   6fe0 <compile>
    44a8:	48 0f bf 55 fe       	movswq -0x2(%rbp),%rdx
    44ad:	4c 8b 23             	mov    (%rbx),%r12
    44b0:	48 89 d0             	mov    %rdx,%rax
    44b3:	49 8b 14 d6          	mov    (%r14,%rdx,8),%rdx
    44b7:	ff e2                	jmp    *%rdx
    44b9:	4c 89 23             	mov    %r12,(%rbx)
    44bc:	31 c0                	xor    %eax,%eax
    44be:	4c 8d 7b 08          	lea    0x8(%rbx),%r15
    44c2:	48 83 c5 02          	add    $0x2,%rbp
    44c6:	4c 89 fb             	mov    %r15,%rbx
    44c9:	e8 62 2e 00 00       	call   7330 <sparse>
    44ce:	48 0f bf 55 fe       	movswq -0x2(%rbp),%rdx
    44d3:	49 89 c4             	mov    %rax,%r12
    44d6:	48 89 d0             	mov    %rdx,%rax
    44d9:	49 8b 14 d6          	mov    (%r14,%rdx,8),%rdx
    44dd:	ff e2                	jmp    *%rdx
    44df:	4c 89 23             	mov    %r12,(%rbx)
    44e2:	31 c0                	xor    %eax,%eax
    44e4:	4c 8d 43 08          	lea    0x8(%rbx),%r8
    44e8:	48 83 c5 02          	add    $0x2,%rbp
    44ec:	4c 89 c3             	mov    %r8,%rbx
    44ef:	e8 9c 2d 00 00       	call   7290 <parse>
    44f4:	48 0f bf 55 fe       	movswq -0x2(%rbp),%rdx
    44f9:	49 89 c4             	mov    %rax,%r12
    44fc:	48 89 d0             	mov    %rdx,%rax
    44ff:	49 8b 14 d6          	mov    (%r14,%rdx,8),%rdx
    4503:	ff e2                	jmp    *%rdx
    4505:	4c 8d 7b f8          	lea    -0x8(%rbx),%r15
    4509:	48 8b 7b f8          	mov    -0x8(%rbx),%rdi
    450d:	49 8b 77 f8          	mov    -0x8(%r15),%rsi
    4511:	4d 85 e4             	test   %r12,%r12
    4514:	7e 08                	jle    451e <main+0x11ae>
    4516:	4c 89 e2             	mov    %r12,%rdx
    4519:	e8 22 eb ff ff       	call   3040 <memmove@plt>
    451e:	48 0f bf 55 00       	movswq 0x0(%rbp),%rdx
    4523:	4d 8b 67 f0          	mov    -0x10(%r15),%r12
    4527:	49 8d 5f f0          	lea    -0x10(%r15),%rbx
    452b:	48 83 c5 02          	add    $0x2,%rbp
    452f:	48 89 d0             	mov    %rdx,%rax
    4532:	49 8b 14 d6          	mov    (%r14,%rdx,8),%rdx
    4536:	ff e2                	jmp    *%rdx
    4538:	4c 8d 7b f8          	lea    -0x8(%rbx),%r15
    453c:	48 8b 7b f8          	mov    -0x8(%rbx),%rdi
    4540:	49 8b 77 f8          	mov    -0x8(%r15),%rsi
    4544:	4d 85 e4             	test   %r12,%r12
    4547:	7e 0d                	jle    4556 <main+0x11e6>
    4549:	4a 8d 14 e5 00 00 00 	lea    0x0(,%r12,8),%rdx
    4550:	00 
    4551:	e8 ea ea ff ff       	call   3040 <memmove@plt>
    4556:	48 0f bf 55 00       	movswq 0x0(%rbp),%rdx
    455b:	4d 8b 67 f0          	mov    -0x10(%r15),%r12
    455f:	49 8d 5f f0          	lea    -0x10(%r15),%rbx
    4563:	48 83 c5 02          	add    $0x2,%rbp
    4567:	48 89 d0             	mov    %rdx,%rax
    456a:	49 8b 14 d6          	mov    (%r14,%rdx,8),%rdx
    456e:	ff e2                	jmp    *%rdx
    4570:	48 0f bf 55 00       	movswq 0x0(%rbp),%rdx
    4575:	49 d1 fc             	sar    %r12
    4578:	48 83 c5 02          	add    $0x2,%rbp
    457c:	48 89 d0             	mov    %rdx,%rax
    457f:	49 8b 14 d6          	mov    (%r14,%rdx,8),%rdx
    4583:	ff e2                	jmp    *%rdx
    4585:	48 0f bf 55 00       	movswq 0x0(%rbp),%rdx
    458a:	4d 01 e4             	add    %r12,%r12
    458d:	48 83 c5 02          	add    $0x2,%rbp
    4591:	48 89 d0             	mov    %rdx,%rax
    4594:	49 8b 14 d6          	mov    (%r14,%rdx,8),%rdx
    4598:	ff e2                	jmp    *%rdx
    459a:	48 0f bf 55 00       	movswq 0x0(%rbp),%rdx
    459f:	49 83 ec 01          	sub    $0x1,%r12
    45a3:	48 83 c5 02          	add    $0x2,%rbp
    45a7:	48 89 d0             	mov    %rdx,%rax
    45aa:	49 8b 14 d6          	mov    (%r14,%rdx,8),%rdx
    45ae:	ff e2                	jmp    *%rdx
    45b0:	48 0f bf 55 00       	movswq 0x0(%rbp),%rdx
    45b5:	49 83 c4 01          	add    $0x1,%r12
    45b9:	48 83 c5 02          	add    $0x2,%rbp
    45bd:	48 89 d0             	mov    %rdx,%rax
    45c0:	49 8b 14 d6          	mov    (%r14,%rdx,8),%rdx
    45c4:	ff e2                	jmp    *%rdx
    45c6:	48 8b 43 f8          	mov    -0x8(%rbx),%rax
    45ca:	48 0f bf 55 00       	movswq 0x0(%rbp),%rdx
    45cf:	48 83 eb 08          	sub    $0x8,%rbx
    45d3:	49 39 c4             	cmp    %rax,%r12
    45d6:	48 89 84 24 98 00 00 	mov    %rax,0x98(%rsp)
    45dd:	00 
    45de:	4c 0f 4c e0          	cmovl  %rax,%r12
    45e2:	48 89 d0             	mov    %rdx,%rax
    45e5:	49 8b 14 d6          	mov    (%r14,%rdx,8),%rdx
    45e9:	48 83 c5 02          	add    $0x2,%rbp
    45ed:	ff e2                	jmp    *%rdx
    45ef:	48 8b 43 f8          	mov    -0x8(%rbx),%rax
    45f3:	48 0f bf 55 00       	movswq 0x0(%rbp),%rdx
    45f8:	48 83 eb 08          	sub    $0x8,%rbx
    45fc:	49 39 c4             	cmp    %rax,%r12
    45ff:	48 89 84 24 98 00 00 	mov    %rax,0x98(%rsp)
    4606:	00 
    4607:	4c 0f 4f e0          	cmovg  %rax,%r12
    460b:	48 89 d0             	mov    %rdx,%rax
    460e:	49 8b 14 d6          	mov    (%r14,%rdx,8),%rdx
    4612:	48 83 c5 02          	add    $0x2,%rbp
    4616:	ff e2                	jmp    *%rdx
    4618:	48 0f bf 55 00       	movswq 0x0(%rbp),%rdx
    461d:	49 f7 dc             	neg    %r12
    4620:	4d 19 e4             	sbb    %r12,%r12
    4623:	48 83 c5 02          	add    $0x2,%rbp
    4627:	48 89 d0             	mov    %rdx,%rax
    462a:	49 8b 14 d6          	mov    (%r14,%rdx,8),%rdx
    462e:	ff e2                	jmp    *%rdx
    4630:	48 0f bf 55 00       	movswq 0x0(%rbp),%rdx
    4635:	4d 85 e4             	test   %r12,%r12
    4638:	41 0f 9f c4          	setg   %r12b
    463c:	48 83 c5 02          	add    $0x2,%rbp
    4640:	48 89 d0             	mov    %rdx,%rax
    4643:	49 8b 14 d6          	mov    (%r14,%rdx,8),%rdx
    4647:	45 0f b6 e4          	movzbl %r12b,%r12d
    464b:	49 f7 dc             	neg    %r12
    464e:	ff e2                	jmp    *%rdx
    4650:	48 0f bf 55 00       	movswq 0x0(%rbp),%rdx
    4655:	49 c1 fc 3f          	sar    $0x3f,%r12
    4659:	48 83 c5 02          	add    $0x2,%rbp
    465d:	48 89 d0             	mov    %rdx,%rax
    4660:	49 8b 14 d6          	mov    (%r14,%rdx,8),%rdx
    4664:	ff e2                	jmp    *%rdx
    4666:	48 0f bf 55 00       	movswq 0x0(%rbp),%rdx
    466b:	49 83 fc 01          	cmp    $0x1,%r12
    466f:	4d 19 e4             	sbb    %r12,%r12
    4672:	48 83 c5 02          	add    $0x2,%rbp
    4676:	48 89 d0             	mov    %rdx,%rax
    4679:	49 8b 14 d6          	mov    (%r14,%rdx,8),%rdx
    467d:	ff e2                	jmp    *%rdx
    467f:	48 0f bf 55 00       	movswq 0x0(%rbp),%rdx
    4684:	48 83 eb 08          	sub    $0x8,%rbx
    4688:	4c 39 23             	cmp    %r12,(%rbx)
    468b:	41 0f 95 c4          	setne  %r12b
    468f:	48 89 d0             	mov    %rdx,%rax
    4692:	49 8b 14 d6          	mov    (%r14,%rdx,8),%rdx
    4696:	48 83 c5 02          	add    $0x2,%rbp
    469a:	45 0f b6 e4          	movzbl %r12b,%r12d
    469e:	49 f7 dc             	neg    %r12
    46a1:	ff e2                	jmp    *%rdx
    46a3:	48 0f bf 55 00       	movswq 0x0(%rbp),%rdx
    46a8:	48 83 eb 08          	sub    $0x8,%rbx
    46ac:	4c 39 23             	cmp    %r12,(%rbx)
    46af:	41 0f 94 c4          	sete   %r12b
    46b3:	48 89 d0             	mov    %rdx,%rax
    46b6:	49 8b 14 d6          	mov    (%r14,%rdx,8),%rdx
    46ba:	48 83 c5 02          	add    $0x2,%rbp
    46be:	45 0f b6 e4          	movzbl %r12b,%r12d
    46c2:	49 f7 dc             	neg    %r12
    46c5:	ff e2                	jmp    *%rdx
    46c7:	48 0f bf 55 00       	movswq 0x0(%rbp),%rdx
    46cc:	48 83 eb 08          	sub    $0x8,%rbx
    46d0:	4c 39 23             	cmp    %r12,(%rbx)
    46d3:	41 0f 9f c4          	setg   %r12b
    46d7:	48 89 d0             	mov    %rdx,%rax
    46da:	49 8b 14 d6          	mov    (%r14,%rdx,8),%rdx
    46de:	48 83 c5 02          	add    $0x2,%rbp
    46e2:	45 0f b6 e4          	movzbl %r12b,%r12d
    46e6:	49 f7 dc             	neg    %r12
    46e9:	ff e2                	jmp    *%rdx
    46eb:	48 0f bf 55 00       	movswq 0x0(%rbp),%rdx
    46f0:	48 83 eb 08          	sub    $0x8,%rbx
    46f4:	4c 39 23             	cmp    %r12,(%rbx)
    46f7:	41 0f 9c c4          	setl   %r12b
    46fb:	48 89 d0             	mov    %rdx,%rax
    46fe:	49 8b 14 d6          	mov    (%r14,%rdx,8),%rdx
    4702:	48 83 c5 02          	add    $0x2,%rbp
    4706:	45 0f b6 e4          	movzbl %r12b,%r12d
    470a:	49 f7 dc             	neg    %r12
    470d:	ff e2                	jmp    *%rdx
    470f:	48 0f bf 55 00       	movswq 0x0(%rbp),%rdx
    4714:	49 f7 d4             	not    %r12
    4717:	48 83 c5 02          	add    $0x2,%rbp
    471b:	48 89 d0             	mov    %rdx,%rax
    471e:	49 8b 14 d6          	mov    (%r14,%rdx,8),%rdx
    4722:	ff e2                	jmp    *%rdx
    4724:	48 0f bf 55 00       	movswq 0x0(%rbp),%rdx
    4729:	48 83 eb 08          	sub    $0x8,%rbx
    472d:	48 83 c5 02          	add    $0x2,%rbp
    4731:	4c 33 23             	xor    (%rbx),%r12
    4734:	48 89 d0             	mov    %rdx,%rax
    4737:	49 8b 14 d6          	mov    (%r14,%rdx,8),%rdx
    473b:	ff e2                	jmp    *%rdx
    473d:	48 0f bf 55 00       	movswq 0x0(%rbp),%rdx
    4742:	48 83 eb 08          	sub    $0x8,%rbx
    4746:	48 83 c5 02          	add    $0x2,%rbp
    474a:	4c 0b 23             	or     (%rbx),%r12
    474d:	48 89 d0             	mov    %rdx,%rax
    4750:	49 8b 14 d6          	mov    (%r14,%rdx,8),%rdx
    4754:	ff e2                	jmp    *%rdx
    4756:	48 0f bf 55 00       	movswq 0x0(%rbp),%rdx
    475b:	48 83 eb 08          	sub    $0x8,%rbx
    475f:	48 83 c5 02          	add    $0x2,%rbp
    4763:	4c 23 23             	and    (%rbx),%r12
    4766:	48 89 d0             	mov    %rdx,%rax
    4769:	49 8b 14 d6          	mov    (%r14,%rdx,8),%rdx
    476d:	ff e2                	jmp    *%rdx
    476f:	48 8b 43 f8          	mov    -0x8(%rbx),%rax
    4773:	48 83 eb 08          	sub    $0x8,%rbx
    4777:	48 83 c5 02          	add    $0x2,%rbp
    477b:	48 99                	cqto   
    477d:	49 f7 fc             	idiv   %r12
    4780:	49 89 d4             	mov    %rdx,%r12
    4783:	48 0f bf 55 fe       	movswq -0x2(%rbp),%rdx
    4788:	48 89 d0             	mov    %rdx,%rax
    478b:	49 8b 14 d6          	mov    (%r14,%rdx,8),%rdx
    478f:	ff e2                	jmp    *%rdx
    4791:	48 8b 43 f8          	mov    -0x8(%rbx),%rax
    4795:	48 83 eb 08          	sub    $0x8,%rbx
    4799:	48 83 c5 02          	add    $0x2,%rbp
    479d:	48 99                	cqto   
    479f:	49 f7 fc             	idiv   %r12
    47a2:	48 0f bf 55 fe       	movswq -0x2(%rbp),%rdx
    47a7:	49 89 c4             	mov    %rax,%r12
    47aa:	48 89 d0             	mov    %rdx,%rax
    47ad:	49 8b 14 d6          	mov    (%r14,%rdx,8),%rdx
    47b1:	ff e2                	jmp    *%rdx
    47b3:	48 0f bf 55 00       	movswq 0x0(%rbp),%rdx
    47b8:	48 83 eb 08          	sub    $0x8,%rbx
    47bc:	48 83 c5 02          	add    $0x2,%rbp
    47c0:	4c 0f af 23          	imul   (%rbx),%r12
    47c4:	48 89 d0             	mov    %rdx,%rax
    47c7:	49 8b 14 d6          	mov    (%r14,%rdx,8),%rdx
    47cb:	ff e2                	jmp    *%rdx
    47cd:	48 8b 43 f8          	mov    -0x8(%rbx),%rax
    47d1:	48 0f bf 55 00       	movswq 0x0(%rbp),%rdx
    47d6:	44 89 e1             	mov    %r12d,%ecx
    47d9:	48 83 eb 08          	sub    $0x8,%rbx
    47dd:	48 83 c5 02          	add    $0x2,%rbp
    47e1:	48 d3 f8             	sar    %cl,%rax
    47e4:	49 89 c4             	mov    %rax,%r12
    47e7:	48 89 d0             	mov    %rdx,%rax
    47ea:	49 8b 14 d6          	mov    (%r14,%rdx,8),%rdx
    47ee:	ff e2                	jmp    *%rdx
    47f0:	48 8b 43 f8          	mov    -0x8(%rbx),%rax
    47f4:	48 0f bf 55 00       	movswq 0x0(%rbp),%rdx
    47f9:	44 89 e1             	mov    %r12d,%ecx
    47fc:	48 83 eb 08          	sub    $0x8,%rbx
    4800:	48 83 c5 02          	add    $0x2,%rbp
    4804:	48 d3 e0             	shl    %cl,%rax
    4807:	49 89 c4             	mov    %rax,%r12
    480a:	48 89 d0             	mov    %rdx,%rax
    480d:	49 8b 14 d6          	mov    (%r14,%rdx,8),%rdx
    4811:	ff e2                	jmp    *%rdx
    4813:	48 8b 43 f8          	mov    -0x8(%rbx),%rax
    4817:	48 0f bf 55 00       	movswq 0x0(%rbp),%rdx
    481c:	48 83 eb 08          	sub    $0x8,%rbx
    4820:	48 83 c5 02          	add    $0x2,%rbp
    4824:	4c 29 e0             	sub    %r12,%rax
    4827:	49 89 c4             	mov    %rax,%r12
    482a:	48 89 d0             	mov    %rdx,%rax
    482d:	49 8b 14 d6          	mov    (%r14,%rdx,8),%rdx
    4831:	ff e2                	jmp    *%rdx
    4833:	48 0f bf 55 00       	movswq 0x0(%rbp),%rdx
    4838:	48 83 eb 08          	sub    $0x8,%rbx
    483c:	48 83 c5 02          	add    $0x2,%rbp
    4840:	4c 03 23             	add    (%rbx),%r12
    4843:	48 89 d0             	mov    %rdx,%rax
    4846:	49 8b 14 d6          	mov    (%r14,%rdx,8),%rdx
    484a:	ff e2                	jmp    *%rdx
    484c:	48 0f bf 55 00       	movswq 0x0(%rbp),%rdx
    4851:	49 f7 dc             	neg    %r12
    4854:	48 83 c5 02          	add    $0x2,%rbp
    4858:	48 89 d0             	mov    %rdx,%rax
    485b:	49 8b 14 d6          	mov    (%r14,%rdx,8),%rdx
    485f:	ff e2                	jmp    *%rdx
    4861:	48 0f bf 55 00       	movswq 0x0(%rbp),%rdx
    4866:	4c 89 23             	mov    %r12,(%rbx)
    4869:	48 83 c5 02          	add    $0x2,%rbp
    486d:	48 83 c3 08          	add    $0x8,%rbx
    4871:	41 bc 08 00 00 00    	mov    $0x8,%r12d
    4877:	48 89 d0             	mov    %rdx,%rax
    487a:	49 8b 14 d6          	mov    (%r14,%rdx,8),%rdx
    487e:	ff e2                	jmp    *%rdx
    4880:	48 8b 53 f8          	mov    -0x8(%rbx),%rdx
    4884:	48 8d 43 f8          	lea    -0x8(%rbx),%rax
    4888:	48 83 c5 02          	add    $0x2,%rbp
    488c:	48 83 eb 10          	sub    $0x10,%rbx
    4890:	41 88 14 24          	mov    %dl,(%r12)
    4894:	48 0f bf 55 fe       	movswq -0x2(%rbp),%rdx
    4899:	4c 8b 60 f8          	mov    -0x8(%rax),%r12
    489d:	48 89 d0             	mov    %rdx,%rax
    48a0:	49 8b 14 d6          	mov    (%r14,%rdx,8),%rdx
    48a4:	ff e2                	jmp    *%rdx
    48a6:	48 0f bf 55 00       	movswq 0x0(%rbp),%rdx
    48ab:	4d 0f be 24 24       	movsbq (%r12),%r12
    48b0:	48 83 c5 02          	add    $0x2,%rbp
    48b4:	48 89 d0             	mov    %rdx,%rax
    48b7:	49 8b 14 d6          	mov    (%r14,%rdx,8),%rdx
    48bb:	ff e2                	jmp    *%rdx
    48bd:	48 8b 53 f8          	mov    -0x8(%rbx),%rdx
    48c1:	49 01 14 24          	add    %rdx,(%r12)
    48c5:	48 8d 43 f8          	lea    -0x8(%rbx),%rax
    48c9:	48 83 c5 02          	add    $0x2,%rbp
    48cd:	48 0f bf 55 fe       	movswq -0x2(%rbp),%rdx
    48d2:	4c 8b 60 f8          	mov    -0x8(%rax),%r12
    48d6:	48 83 eb 10          	sub    $0x10,%rbx
    48da:	48 89 d0             	mov    %rdx,%rax
    48dd:	49 8b 14 d6          	mov    (%r14,%rdx,8),%rdx
    48e1:	ff e2                	jmp    *%rdx
    48e3:	48 8b 53 f8          	mov    -0x8(%rbx),%rdx
    48e7:	48 8d 43 f8          	lea    -0x8(%rbx),%rax
    48eb:	48 83 c5 02          	add    $0x2,%rbp
    48ef:	48 83 eb 10          	sub    $0x10,%rbx
    48f3:	49 89 14 24          	mov    %rdx,(%r12)
    48f7:	48 0f bf 55 fe       	movswq -0x2(%rbp),%rdx
    48fc:	4c 8b 60 f8          	mov    -0x8(%rax),%r12
    4900:	48 89 d0             	mov    %rdx,%rax
    4903:	49 8b 14 d6          	mov    (%r14,%rdx,8),%rdx
    4907:	ff e2                	jmp    *%rdx
    4909:	48 0f bf 55 00       	movswq 0x0(%rbp),%rdx
    490e:	4d 8b 24 24          	mov    (%r12),%r12
    4912:	48 83 c5 02          	add    $0x2,%rbp
    4916:	48 89 d0             	mov    %rdx,%rax
    4919:	49 8b 14 d6          	mov    (%r14,%rdx,8),%rdx
    491d:	ff e2                	jmp    *%rdx
    491f:	4c 89 a4 24 98 00 00 	mov    %r12,0x98(%rsp)
    4926:	00 
    4927:	48 83 eb 08          	sub    $0x8,%rbx
    492b:	4c 8b 23             	mov    (%rbx),%r12
    492e:	48 83 bc 24 98 00 00 	cmpq   $0x0,0x98(%rsp)
    4935:	00 00 
    4937:	0f 85 e3 f8 ff ff    	jne    4220 <main+0xeb0>
    493d:	48 0f bf 55 00       	movswq 0x0(%rbp),%rdx
    4942:	48 83 c5 02          	add    $0x2,%rbp
    4946:	48 89 d0             	mov    %rdx,%rax
    4949:	49 8b 14 d6          	mov    (%r14,%rdx,8),%rdx
    494d:	ff e2                	jmp    *%rdx
    494f:	4d 85 e4             	test   %r12,%r12
    4952:	0f 84 c8 f8 ff ff    	je     4220 <main+0xeb0>
    4958:	48 0f bf 55 00       	movswq 0x0(%rbp),%rdx
    495d:	48 83 c5 02          	add    $0x2,%rbp
    4961:	48 89 d0             	mov    %rdx,%rax
    4964:	49 8b 14 d6          	mov    (%r14,%rdx,8),%rdx
    4968:	ff e2                	jmp    *%rdx
    496a:	4c 89 a4 24 98 00 00 	mov    %r12,0x98(%rsp)
    4971:	00 
    4972:	48 83 eb 08          	sub    $0x8,%rbx
    4976:	4c 8b 23             	mov    (%rbx),%r12
    4979:	48 83 bc 24 98 00 00 	cmpq   $0x0,0x98(%rsp)
    4980:	00 00 
    4982:	0f 84 98 f8 ff ff    	je     4220 <main+0xeb0>
    4988:	48 0f bf 55 00       	movswq 0x0(%rbp),%rdx
    498d:	48 83 c5 02          	add    $0x2,%rbp
    4991:	48 89 d0             	mov    %rdx,%rax
    4994:	49 8b 14 d6          	mov    (%r14,%rdx,8),%rdx
    4998:	ff e2                	jmp    *%rdx
    499a:	4c 89 a4 24 98 00 00 	mov    %r12,0x98(%rsp)
    49a1:	00 
    49a2:	48 83 eb 08          	sub    $0x8,%rbx
    49a6:	4c 8b 23             	mov    (%rbx),%r12
    49a9:	48 83 bc 24 98 00 00 	cmpq   $0x0,0x98(%rsp)
    49b0:	00 00 
    49b2:	74 12                	je     49c6 <main+0x1656>
    49b4:	48 8b 44 24 18       	mov    0x18(%rsp),%rax
    49b9:	48 8b 40 e8          	mov    -0x18(%rax),%rax
    49bd:	48 0f bf 10          	movswq (%rax),%rdx
    49c1:	48 8d 6c 10 fe       	lea    -0x2(%rax,%rdx,1),%rbp
    49c6:	48 0f bf 55 00       	movswq 0x0(%rbp),%rdx
    49cb:	48 83 c5 02          	add    $0x2,%rbp
    49cf:	48 89 d0             	mov    %rdx,%rax
    49d2:	49 8b 14 d6          	mov    (%r14,%rdx,8),%rdx
    49d6:	ff e2                	jmp    *%rdx
    49d8:	48 8b 44 24 18       	mov    0x18(%rsp),%rax
    49dd:	48 8b 68 e8          	mov    -0x18(%rax),%rbp
    49e1:	48 0f bf 45 00       	movswq 0x0(%rbp),%rax
    49e6:	48 01 c5             	add    %rax,%rbp
    49e9:	48 0f bf 55 fe       	movswq -0x2(%rbp),%rdx
    49ee:	48 89 d0             	mov    %rdx,%rax
    49f1:	41 ff 24 d6          	jmp    *(%r14,%rdx,8)
    49f5:	4c 89 a4 24 98 00 00 	mov    %r12,0x98(%rsp)
    49fc:	00 
    49fd:	48 83 eb 08          	sub    $0x8,%rbx
    4a01:	4c 8b 23             	mov    (%rbx),%r12
    4a04:	48 83 bc 24 98 00 00 	cmpq   $0x0,0x98(%rsp)
    4a0b:	00 00 
    4a0d:	74 1a                	je     4a29 <main+0x16b9>
    4a0f:	48 8b 44 24 18       	mov    0x18(%rsp),%rax
    4a14:	48 8b 68 e8          	mov    -0x18(%rax),%rbp
    4a18:	48 83 e8 18          	sub    $0x18,%rax
    4a1c:	48 89 44 24 18       	mov    %rax,0x18(%rsp)
    4a21:	48 0f bf 45 00       	movswq 0x0(%rbp),%rax
    4a26:	48 01 c5             	add    %rax,%rbp
    4a29:	48 0f bf 55 00       	movswq 0x0(%rbp),%rdx
    4a2e:	48 83 c5 02          	add    $0x2,%rbp
    4a32:	48 89 d0             	mov    %rdx,%rax
    4a35:	49 8b 14 d6          	mov    (%r14,%rdx,8),%rdx
    4a39:	ff e2                	jmp    *%rdx
    4a3b:	48 0f bf 55 00       	movswq 0x0(%rbp),%rdx
    4a40:	48 8b 44 24 18       	mov    0x18(%rsp),%rax
    4a45:	48 83 c5 02          	add    $0x2,%rbp
    4a49:	4c 03 60 f8          	add    -0x8(%rax),%r12
    4a4d:	48 89 d0             	mov    %rdx,%rax
    4a50:	49 8b 14 d6          	mov    (%r14,%rdx,8),%rdx
    4a54:	ff e2                	jmp    *%rdx
    4a56:	48 0f bf 55 00       	movswq 0x0(%rbp),%rdx
    4a5b:	4c 89 23             	mov    %r12,(%rbx)
    4a5e:	48 83 c5 02          	add    $0x2,%rbp
    4a62:	48 83 c3 08          	add    $0x8,%rbx
    4a66:	48 8b 44 24 18       	mov    0x18(%rsp),%rax
    4a6b:	4c 8b 60 f8          	mov    -0x8(%rax),%r12
    4a6f:	48 89 d0             	mov    %rdx,%rax
    4a72:	49 8b 14 d6          	mov    (%r14,%rdx,8),%rdx
    4a76:	ff e2                	jmp    *%rdx
    4a78:	48 8b 44 24 18       	mov    0x18(%rsp),%rax
    4a7d:	48 8b 78 f8          	mov    -0x8(%rax),%rdi
    4a81:	48 8b 50 f0          	mov    -0x10(%rax),%rdx
    4a85:	48 89 f8             	mov    %rdi,%rax
    4a88:	48 89 7c 24 50       	mov    %rdi,0x50(%rsp)
    4a8d:	48 83 c0 01          	add    $0x1,%rax
    4a91:	48 85 d2             	test   %rdx,%rdx
    4a94:	78 0d                	js     4aa3 <main+0x1733>
    4a96:	48 39 c2             	cmp    %rax,%rdx
    4a99:	7f 08                	jg     4aa3 <main+0x1733>
    4a9b:	48 83 6c 24 18 18    	subq   $0x18,0x18(%rsp)
    4aa1:	eb 16                	jmp    4ab9 <main+0x1749>
    4aa3:	48 8b 74 24 18       	mov    0x18(%rsp),%rsi
    4aa8:	48 8b 7e e8          	mov    -0x18(%rsi),%rdi
    4aac:	48 89 46 f8          	mov    %rax,-0x8(%rsi)
    4ab0:	48 89 7c 24 50       	mov    %rdi,0x50(%rsp)
    4ab5:	48 8d 6f 02          	lea    0x2(%rdi),%rbp
    4ab9:	48 0f bf 55 00       	movswq 0x0(%rbp),%rdx
    4abe:	48 83 c5 02          	add    $0x2,%rbp
    4ac2:	48 89 d0             	mov    %rdx,%rax
    4ac5:	49 8b 14 d6          	mov    (%r14,%rdx,8),%rdx
    4ac9:	ff e2                	jmp    *%rdx
    4acb:	4d 85 e4             	test   %r12,%r12
    4ace:	0f 84 49 19 00 00    	je     641d <main+0x30ad>
    4ad4:	48 8b 4c 24 18       	mov    0x18(%rsp),%rcx
    4ad9:	48 8d 45 02          	lea    0x2(%rbp),%rax
    4add:	48 89 29             	mov    %rbp,(%rcx)
    4ae0:	48 83 c1 18          	add    $0x18,%rcx
    4ae4:	4c 89 61 f0          	mov    %r12,-0x10(%rcx)
    4ae8:	48 c7 41 f8 00 00 00 	movq   $0x0,-0x8(%rcx)
    4aef:	00 
    4af0:	48 89 4c 24 18       	mov    %rcx,0x18(%rsp)
    4af5:	48 0f bf 10          	movswq (%rax),%rdx
    4af9:	48 83 eb 08          	sub    $0x8,%rbx
    4afd:	48 8d 68 02          	lea    0x2(%rax),%rbp
    4b01:	4c 8b 23             	mov    (%rbx),%r12
    4b04:	48 89 d0             	mov    %rdx,%rax
    4b07:	41 ff 24 d6          	jmp    *(%r14,%rdx,8)
    4b0b:	48 0f bf 45 00       	movswq 0x0(%rbp),%rax
    4b10:	48 01 e8             	add    %rbp,%rax
    4b13:	48 0f bf 10          	movswq (%rax),%rdx
    4b17:	48 8d 68 02          	lea    0x2(%rax),%rbp
    4b1b:	48 89 d0             	mov    %rdx,%rax
    4b1e:	41 ff 24 d6          	jmp    *(%r14,%rdx,8)
    4b22:	48 8d 45 02          	lea    0x2(%rbp),%rax
    4b26:	4d 85 e4             	test   %r12,%r12
    4b29:	75 08                	jne    4b33 <main+0x17c3>
    4b2b:	48 0f bf 45 00       	movswq 0x0(%rbp),%rax
    4b30:	48 01 e8             	add    %rbp,%rax
    4b33:	48 0f bf 10          	movswq (%rax),%rdx
    4b37:	48 8d 68 02          	lea    0x2(%rax),%rbp
    4b3b:	48 89 d0             	mov    %rdx,%rax
    4b3e:	41 ff 24 d6          	jmp    *(%r14,%rdx,8)
    4b42:	48 8d 45 02          	lea    0x2(%rbp),%rax
    4b46:	4d 85 e4             	test   %r12,%r12
    4b49:	75 08                	jne    4b53 <main+0x17e3>
    4b4b:	48 0f bf 45 00       	movswq 0x0(%rbp),%rax
    4b50:	48 01 e8             	add    %rbp,%rax
    4b53:	48 0f bf 10          	movswq (%rax),%rdx
    4b57:	48 83 eb 08          	sub    $0x8,%rbx
    4b5b:	48 8d 68 02          	lea    0x2(%rax),%rbp
    4b5f:	4c 8b 23             	mov    (%rbx),%r12
    4b62:	48 89 d0             	mov    %rdx,%rax
    4b65:	41 ff 24 d6          	jmp    *(%r14,%rdx,8)
    4b69:	48 0f bf 45 00       	movswq 0x0(%rbp),%rax
    4b6e:	4c 89 23             	mov    %r12,(%rbx)
    4b71:	4c 8d 65 02          	lea    0x2(%rbp),%r12
    4b75:	48 83 c3 08          	add    $0x8,%rbx
    4b79:	48 01 e8             	add    %rbp,%rax
    4b7c:	48 0f bf 10          	movswq (%rax),%rdx
    4b80:	48 8d 68 02          	lea    0x2(%rax),%rbp
    4b84:	48 89 d0             	mov    %rdx,%rax
    4b87:	49 8b 14 d6          	mov    (%r14,%rdx,8),%rdx
    4b8b:	ff e2                	jmp    *%rdx
    4b8d:	48 0f bf 55 08       	movswq 0x8(%rbp),%rdx
    4b92:	4c 03 65 00          	add    0x0(%rbp),%r12
    4b96:	48 83 c5 0a          	add    $0xa,%rbp
    4b9a:	48 89 d0             	mov    %rdx,%rax
    4b9d:	49 8b 14 d6          	mov    (%r14,%rdx,8),%rdx
    4ba1:	ff e2                	jmp    *%rdx
    4ba3:	48 0f bf 55 08       	movswq 0x8(%rbp),%rdx
    4ba8:	4c 89 23             	mov    %r12,(%rbx)
    4bab:	48 83 c5 0a          	add    $0xa,%rbp
    4baf:	48 83 c3 08          	add    $0x8,%rbx
    4bb3:	4c 8b 65 f6          	mov    -0xa(%rbp),%r12
    4bb7:	48 89 d0             	mov    %rdx,%rax
    4bba:	49 8b 14 d6          	mov    (%r14,%rdx,8),%rdx
    4bbe:	ff e2                	jmp    *%rdx
    4bc0:	48 0f bf 55 02       	movswq 0x2(%rbp),%rdx
    4bc5:	4c 89 23             	mov    %r12,(%rbx)
    4bc8:	48 83 c5 04          	add    $0x4,%rbp
    4bcc:	48 83 c3 08          	add    $0x8,%rbx
    4bd0:	4c 0f bf 65 fc       	movswq -0x4(%rbp),%r12
    4bd5:	48 89 d0             	mov    %rdx,%rax
    4bd8:	49 8b 14 d6          	mov    (%r14,%rdx,8),%rdx
    4bdc:	ff e2                	jmp    *%rdx
    4bde:	48 8b 4c 24 08       	mov    0x8(%rsp),%rcx
    4be3:	4c 89 23             	mov    %r12,(%rbx)
    4be6:	48 83 c5 02          	add    $0x2,%rbp
    4bea:	48 83 c3 08          	add    $0x8,%rbx
    4bee:	48 8b 51 f0          	mov    -0x10(%rcx),%rdx
    4bf2:	48 8d 42 01          	lea    0x1(%rdx),%rax
    4bf6:	48 89 84 24 a8 00 00 	mov    %rax,0xa8(%rsp)
    4bfd:	00 
    4bfe:	4c 0f be 22          	movsbq (%rdx),%r12
    4c02:	48 0f bf 55 fe       	movswq -0x2(%rbp),%rdx
    4c07:	48 89 41 f0          	mov    %rax,-0x10(%rcx)
    4c0b:	48 89 d0             	mov    %rdx,%rax
    4c0e:	49 8b 14 d6          	mov    (%r14,%rdx,8),%rdx
    4c12:	ff e2                	jmp    *%rdx
    4c14:	48 8b 7c 24 08       	mov    0x8(%rsp),%rdi
    4c19:	48 83 eb 08          	sub    $0x8,%rbx
    4c1d:	48 83 c5 02          	add    $0x2,%rbp
    4c21:	48 8b 47 f0          	mov    -0x10(%rdi),%rax
    4c25:	48 8d 50 01          	lea    0x1(%rax),%rdx
    4c29:	48 89 94 24 a8 00 00 	mov    %rdx,0xa8(%rsp)
    4c30:	00 
    4c31:	44 88 20             	mov    %r12b,(%rax)
    4c34:	48 0f bf 55 fe       	movswq -0x2(%rbp),%rdx
    4c39:	48 8b 84 24 a8 00 00 	mov    0xa8(%rsp),%rax
    4c40:	00 
    4c41:	48 89 47 f0          	mov    %rax,-0x10(%rdi)
    4c45:	48 89 d0             	mov    %rdx,%rax
    4c48:	49 8b 14 d6          	mov    (%r14,%rdx,8),%rdx
    4c4c:	4c 8b 23             	mov    (%rbx),%r12
    4c4f:	ff e2                	jmp    *%rdx
    4c51:	48 8b 74 24 08       	mov    0x8(%rsp),%rsi
    4c56:	4c 89 23             	mov    %r12,(%rbx)
    4c59:	48 83 c5 02          	add    $0x2,%rbp
    4c5d:	48 83 c3 08          	add    $0x8,%rbx
    4c61:	48 8b 56 f0          	mov    -0x10(%rsi),%rdx
    4c65:	48 8d 42 08          	lea    0x8(%rdx),%rax
    4c69:	4c 8b 22             	mov    (%rdx),%r12
    4c6c:	48 0f bf 55 fe       	movswq -0x2(%rbp),%rdx
    4c71:	48 89 84 24 90 00 00 	mov    %rax,0x90(%rsp)
    4c78:	00 
    4c79:	48 89 46 f0          	mov    %rax,-0x10(%rsi)
    4c7d:	48 89 d0             	mov    %rdx,%rax
    4c80:	49 8b 14 d6          	mov    (%r14,%rdx,8),%rdx
    4c84:	ff e2                	jmp    *%rdx
    4c86:	48 8b 4c 24 08       	mov    0x8(%rsp),%rcx
    4c8b:	48 83 eb 08          	sub    $0x8,%rbx
    4c8f:	48 83 c5 02          	add    $0x2,%rbp
    4c93:	48 8b 51 f0          	mov    -0x10(%rcx),%rdx
    4c97:	48 8d 42 08          	lea    0x8(%rdx),%rax
    4c9b:	48 89 84 24 90 00 00 	mov    %rax,0x90(%rsp)
    4ca2:	00 
    4ca3:	4c 89 22             	mov    %r12,(%rdx)
    4ca6:	48 0f bf 55 fe       	movswq -0x2(%rbp),%rdx
    4cab:	48 89 41 f0          	mov    %rax,-0x10(%rcx)
    4caf:	4c 8b 23             	mov    (%rbx),%r12
    4cb2:	48 89 d0             	mov    %rdx,%rax
    4cb5:	49 8b 14 d6          	mov    (%r14,%rdx,8),%rdx
    4cb9:	ff e2                	jmp    *%rdx
    4cbb:	48 0f bf 55 00       	movswq 0x0(%rbp),%rdx
    4cc0:	4c 89 23             	mov    %r12,(%rbx)
    4cc3:	48 83 c5 02          	add    $0x2,%rbp
    4cc7:	48 83 c3 08          	add    $0x8,%rbx
    4ccb:	48 8b 44 24 08       	mov    0x8(%rsp),%rax
    4cd0:	4c 8b 60 f0          	mov    -0x10(%rax),%r12
    4cd4:	48 89 d0             	mov    %rdx,%rax
    4cd7:	49 8b 14 d6          	mov    (%r14,%rdx,8),%rdx
    4cdb:	ff e2                	jmp    *%rdx
    4cdd:	48 0f bf 55 00       	movswq 0x0(%rbp),%rdx
    4ce2:	48 8b 44 24 08       	mov    0x8(%rsp),%rax
    4ce7:	48 83 c5 02          	add    $0x2,%rbp
    4ceb:	4c 89 60 f0          	mov    %r12,-0x10(%rax)
    4cef:	48 89 d0             	mov    %rdx,%rax
    4cf2:	49 8b 14 d6          	mov    (%r14,%rdx,8),%rdx
    4cf6:	ff e2                	jmp    *%rdx
    4cf8:	48 0f bf 55 00       	movswq 0x0(%rbp),%rdx
    4cfd:	48 8b 44 24 08       	mov    0x8(%rsp),%rax
    4d02:	48 83 eb 08          	sub    $0x8,%rbx
    4d06:	48 83 c5 02          	add    $0x2,%rbp
    4d0a:	4c 89 60 f0          	mov    %r12,-0x10(%rax)
    4d0e:	48 89 d0             	mov    %rdx,%rax
    4d11:	49 8b 14 d6          	mov    (%r14,%rdx,8),%rdx
    4d15:	4c 8b 23             	mov    (%rbx),%r12
    4d18:	ff e2                	jmp    *%rdx
    4d1a:	48 0f bf 55 00       	movswq 0x0(%rbp),%rdx
    4d1f:	4c 89 23             	mov    %r12,(%rbx)
    4d22:	48 83 c5 02          	add    $0x2,%rbp
    4d26:	48 83 c3 08          	add    $0x8,%rbx
    4d2a:	48 8b 44 24 08       	mov    0x8(%rsp),%rax
    4d2f:	4c 8b 60 f8          	mov    -0x8(%rax),%r12
    4d33:	48 89 d0             	mov    %rdx,%rax
    4d36:	49 8b 14 d6          	mov    (%r14,%rdx,8),%rdx
    4d3a:	ff e2                	jmp    *%rdx
    4d3c:	48 0f bf 55 00       	movswq 0x0(%rbp),%rdx
    4d41:	48 8b 44 24 08       	mov    0x8(%rsp),%rax
    4d46:	48 83 c5 02          	add    $0x2,%rbp
    4d4a:	4c 89 60 f8          	mov    %r12,-0x8(%rax)
    4d4e:	48 89 d0             	mov    %rdx,%rax
    4d51:	49 8b 14 d6          	mov    (%r14,%rdx,8),%rdx
    4d55:	ff e2                	jmp    *%rdx
    4d57:	48 0f bf 55 00       	movswq 0x0(%rbp),%rdx
    4d5c:	48 8b 44 24 08       	mov    0x8(%rsp),%rax
    4d61:	48 83 eb 08          	sub    $0x8,%rbx
    4d65:	48 83 c5 02          	add    $0x2,%rbp
    4d69:	4c 89 60 f8          	mov    %r12,-0x8(%rax)
    4d6d:	48 89 d0             	mov    %rdx,%rax
    4d70:	49 8b 14 d6          	mov    (%r14,%rdx,8),%rdx
    4d74:	4c 8b 23             	mov    (%rbx),%r12
    4d77:	ff e2                	jmp    *%rdx
    4d79:	48 0f bf 55 00       	movswq 0x0(%rbp),%rdx
    4d7e:	4c 89 23             	mov    %r12,(%rbx)
    4d81:	48 83 c5 02          	add    $0x2,%rbp
    4d85:	48 83 c3 08          	add    $0x8,%rbx
    4d89:	48 8b 44 24 10       	mov    0x10(%rsp),%rax
    4d8e:	4c 8b 60 f8          	mov    -0x8(%rax),%r12
    4d92:	48 89 d0             	mov    %rdx,%rax
    4d95:	49 8b 14 d6          	mov    (%r14,%rdx,8),%rdx
    4d99:	ff e2                	jmp    *%rdx
    4d9b:	48 0f bf 55 00       	movswq 0x0(%rbp),%rdx
    4da0:	4c 89 23             	mov    %r12,(%rbx)
    4da3:	48 83 c5 02          	add    $0x2,%rbp
    4da7:	48 83 c3 08          	add    $0x8,%rbx
    4dab:	48 83 6c 24 10 08    	subq   $0x8,0x10(%rsp)
    4db1:	48 8b 44 24 10       	mov    0x10(%rsp),%rax
    4db6:	4c 8b 20             	mov    (%rax),%r12
    4db9:	48 89 d0             	mov    %rdx,%rax
    4dbc:	49 8b 14 d6          	mov    (%r14,%rdx,8),%rdx
    4dc0:	ff e2                	jmp    *%rdx
    4dc2:	48 0f bf 55 00       	movswq 0x0(%rbp),%rdx
    4dc7:	48 8b 74 24 10       	mov    0x10(%rsp),%rsi
    4dcc:	48 83 eb 08          	sub    $0x8,%rbx
    4dd0:	48 83 c5 02          	add    $0x2,%rbp
    4dd4:	48 89 d0             	mov    %rdx,%rax
    4dd7:	49 8b 14 d6          	mov    (%r14,%rdx,8),%rdx
    4ddb:	4c 89 26             	mov    %r12,(%rsi)
    4dde:	48 83 c6 08          	add    $0x8,%rsi
    4de2:	48 89 74 24 10       	mov    %rsi,0x10(%rsp)
    4de7:	4c 8b 23             	mov    (%rbx),%r12
    4dea:	ff e2                	jmp    *%rdx
    4dec:	48 8b 43 f8          	mov    -0x8(%rbx),%rax
    4df0:	48 0f bf 55 00       	movswq 0x0(%rbp),%rdx
    4df5:	48 83 c3 08          	add    $0x8,%rbx
    4df9:	48 83 c5 02          	add    $0x2,%rbp
    4dfd:	48 89 84 24 98 00 00 	mov    %rax,0x98(%rsp)
    4e04:	00 
    4e05:	48 89 43 f8          	mov    %rax,-0x8(%rbx)
    4e09:	48 89 d0             	mov    %rdx,%rax
    4e0c:	49 8b 14 d6          	mov    (%r14,%rdx,8),%rdx
    4e10:	4c 89 63 f0          	mov    %r12,-0x10(%rbx)
    4e14:	ff e2                	jmp    *%rdx
    4e16:	48 8b 43 f0          	mov    -0x10(%rbx),%rax
    4e1a:	48 0f bf 55 00       	movswq 0x0(%rbp),%rdx
    4e1f:	48 83 c5 02          	add    $0x2,%rbp
    4e23:	48 89 84 24 98 00 00 	mov    %rax,0x98(%rsp)
    4e2a:	00 
    4e2b:	48 8b 43 f8          	mov    -0x8(%rbx),%rax
    4e2f:	4c 89 63 f8          	mov    %r12,-0x8(%rbx)
    4e33:	48 89 43 f0          	mov    %rax,-0x10(%rbx)
    4e37:	48 89 d0             	mov    %rdx,%rax
    4e3a:	49 8b 14 d6          	mov    (%r14,%rdx,8),%rdx
    4e3e:	4c 8b a4 24 98 00 00 	mov    0x98(%rsp),%r12
    4e45:	00 
    4e46:	ff e2                	jmp    *%rdx
    4e48:	48 0f bf 55 00       	movswq 0x0(%rbp),%rdx
    4e4d:	48 83 eb 08          	sub    $0x8,%rbx
    4e51:	48 83 c5 02          	add    $0x2,%rbp
    4e55:	48 89 d0             	mov    %rdx,%rax
    4e58:	49 8b 14 d6          	mov    (%r14,%rdx,8),%rdx
    4e5c:	ff e2                	jmp    *%rdx
    4e5e:	48 8b 43 f8          	mov    -0x8(%rbx),%rax
    4e62:	48 0f bf 55 00       	movswq 0x0(%rbp),%rdx
    4e67:	48 83 c5 02          	add    $0x2,%rbp
    4e6b:	48 89 84 24 98 00 00 	mov    %rax,0x98(%rsp)
    4e72:	00 
    4e73:	48 89 d0             	mov    %rdx,%rax
    4e76:	49 8b 14 d6          	mov    (%r14,%rdx,8),%rdx
    4e7a:	4c 89 63 f8          	mov    %r12,-0x8(%rbx)
    4e7e:	4c 8b a4 24 98 00 00 	mov    0x98(%rsp),%r12
    4e85:	00 
    4e86:	ff e2                	jmp    *%rdx
    4e88:	48 0f bf 55 00       	movswq 0x0(%rbp),%rdx
    4e8d:	4c 89 23             	mov    %r12,(%rbx)
    4e90:	48 83 c5 02          	add    $0x2,%rbp
    4e94:	48 83 c3 08          	add    $0x8,%rbx
    4e98:	4c 8b 63 f0          	mov    -0x10(%rbx),%r12
    4e9c:	48 89 d0             	mov    %rdx,%rax
    4e9f:	49 8b 14 d6          	mov    (%r14,%rdx,8),%rdx
    4ea3:	ff e2                	jmp    *%rdx
    4ea5:	48 0f bf 55 00       	movswq 0x0(%rbp),%rdx
    4eaa:	48 83 eb 08          	sub    $0x8,%rbx
    4eae:	48 83 c5 02          	add    $0x2,%rbp
    4eb2:	4c 8b 23             	mov    (%rbx),%r12
    4eb5:	48 89 d0             	mov    %rdx,%rax
    4eb8:	49 8b 14 d6          	mov    (%r14,%rdx,8),%rdx
    4ebc:	ff e2                	jmp    *%rdx
    4ebe:	48 0f bf 55 00       	movswq 0x0(%rbp),%rdx
    4ec3:	4c 89 23             	mov    %r12,(%rbx)
    4ec6:	48 83 c5 02          	add    $0x2,%rbp
    4eca:	48 83 c3 08          	add    $0x8,%rbx
    4ece:	48 89 d0             	mov    %rdx,%rax
    4ed1:	49 8b 14 d6          	mov    (%r14,%rdx,8),%rdx
    4ed5:	ff e2                	jmp    *%rdx
    4ed7:	48 8b 74 24 08       	mov    0x8(%rsp),%rsi
    4edc:	48 8b 56 f0          	mov    -0x10(%rsi),%rdx
    4ee0:	48 8d 7e f0          	lea    -0x10(%rsi),%rdi
    4ee4:	48 8b 6e f8          	mov    -0x8(%rsi),%rbp
    4ee8:	48 89 7c 24 08       	mov    %rdi,0x8(%rsp)
    4eed:	ff e2                	jmp    *%rdx
    4eef:	48 0f bf 55 00       	movswq 0x0(%rbp),%rdx
    4ef4:	48 8d 05 a5 b7 00 00 	lea    0xb7a5(%rip),%rax        # 106a0 <body>
    4efb:	48 8b 04 d0          	mov    (%rax,%rdx,8),%rax
    4eff:	48 0f bf 10          	movswq (%rax),%rdx
    4f03:	48 8d 68 02          	lea    0x2(%rax),%rbp
    4f07:	48 89 d0             	mov    %rdx,%rax
    4f0a:	41 ff 24 d6          	jmp    *(%r14,%rdx,8)
    4f0e:	48 8d 15 8b b7 00 00 	lea    0xb78b(%rip),%rdx        # 106a0 <body>
    4f15:	48 0f bf c0          	movswq %ax,%rax
    4f19:	48 8b 4c 24 08       	mov    0x8(%rsp),%rcx
    4f1e:	48 8b 74 24 18       	mov    0x18(%rsp),%rsi
    4f23:	48 8b 04 c2          	mov    (%rdx,%rax,8),%rax
    4f27:	48 83 c3 08          	add    $0x8,%rbx
    4f2b:	48 89 29             	mov    %rbp,(%rcx)
    4f2e:	48 83 c1 20          	add    $0x20,%rcx
    4f32:	48 89 71 e8          	mov    %rsi,-0x18(%rcx)
    4f36:	4c 89 63 f8          	mov    %r12,-0x8(%rbx)
    4f3a:	4c 8b 20             	mov    (%rax),%r12
    4f3d:	48 8b 40 08          	mov    0x8(%rax),%rax
    4f41:	48 89 4c 24 08       	mov    %rcx,0x8(%rsp)
    4f46:	48 0f bf 10          	movswq (%rax),%rdx
    4f4a:	48 8d 68 02          	lea    0x2(%rax),%rbp
    4f4e:	48 89 d0             	mov    %rdx,%rax
    4f51:	49 8b 14 d6          	mov    (%r14,%rdx,8),%rdx
    4f55:	ff e2                	jmp    *%rdx
    4f57:	48 8d 15 42 b7 00 00 	lea    0xb742(%rip),%rdx        # 106a0 <body>
    4f5e:	48 0f bf c0          	movswq %ax,%rax
    4f62:	48 83 c5 02          	add    $0x2,%rbp
    4f66:	48 8b 04 c2          	mov    (%rdx,%rax,8),%rax
    4f6a:	48 0f bf 55 fe       	movswq -0x2(%rbp),%rdx
    4f6f:	4c 03 20             	add    (%rax),%r12
    4f72:	48 89 d0             	mov    %rdx,%rax
    4f75:	49 8b 14 d6          	mov    (%r14,%rdx,8),%rdx
    4f79:	ff e2                	jmp    *%rdx
    4f7b:	48 0f bf c0          	movswq %ax,%rax
    4f7f:	4c 89 23             	mov    %r12,(%rbx)
    4f82:	48 83 c5 02          	add    $0x2,%rbp
    4f86:	48 83 c3 08          	add    $0x8,%rbx
    4f8a:	48 8d 15 0f b7 00 00 	lea    0xb70f(%rip),%rdx        # 106a0 <body>
    4f91:	48 8b 04 c2          	mov    (%rdx,%rax,8),%rax
    4f95:	48 0f bf 55 fe       	movswq -0x2(%rbp),%rdx
    4f9a:	4c 8b 20             	mov    (%rax),%r12
    4f9d:	48 89 d0             	mov    %rdx,%rax
    4fa0:	49 8b 14 d6          	mov    (%r14,%rdx,8),%rdx
    4fa4:	ff e2                	jmp    *%rdx
    4fa6:	48 0f bf c0          	movswq %ax,%rax
    4faa:	4c 89 23             	mov    %r12,(%rbx)
    4fad:	48 83 c5 02          	add    $0x2,%rbp
    4fb1:	48 83 c3 08          	add    $0x8,%rbx
    4fb5:	48 8d 15 e4 b6 00 00 	lea    0xb6e4(%rip),%rdx        # 106a0 <body>
    4fbc:	4c 8b 24 c2          	mov    (%rdx,%rax,8),%r12
    4fc0:	48 0f bf 55 fe       	movswq -0x2(%rbp),%rdx
    4fc5:	48 89 d0             	mov    %rdx,%rax
    4fc8:	49 8b 14 d6          	mov    (%r14,%rdx,8),%rdx
    4fcc:	ff e2                	jmp    *%rdx
    4fce:	44 89 e0             	mov    %r12d,%eax
    4fd1:	48 83 eb 08          	sub    $0x8,%rbx
    4fd5:	4c 8b 23             	mov    (%rbx),%r12
    4fd8:	66 85 c0             	test   %ax,%ax
    4fdb:	0f 84 d3 13 00 00    	je     63b4 <main+0x3044>
    4fe1:	48 0f bf d0          	movswq %ax,%rdx
    4fe5:	41 ff 24 d6          	jmp    *(%r14,%rdx,8)
    4fe9:	4c 89 a4 24 98 00 00 	mov    %r12,0x98(%rsp)
    4ff0:	00 
    4ff1:	48 83 eb 08          	sub    $0x8,%rbx
    4ff5:	4c 8b 23             	mov    (%rbx),%r12
    4ff8:	48 83 bc 24 98 00 00 	cmpq   $0x0,0x98(%rsp)
    4fff:	00 00 
    5001:	74 1b                	je     501e <main+0x1cae>
    5003:	48 8b 44 24 08       	mov    0x8(%rsp),%rax
    5008:	48 8b 78 e8          	mov    -0x18(%rax),%rdi
    500c:	48 8b 68 e0          	mov    -0x20(%rax),%rbp
    5010:	48 83 e8 20          	sub    $0x20,%rax
    5014:	48 89 44 24 08       	mov    %rax,0x8(%rsp)
    5019:	48 89 7c 24 18       	mov    %rdi,0x18(%rsp)
    501e:	48 0f bf 55 00       	movswq 0x0(%rbp),%rdx
    5023:	48 83 c5 02          	add    $0x2,%rbp
    5027:	48 89 d0             	mov    %rdx,%rax
    502a:	49 8b 14 d6          	mov    (%r14,%rdx,8),%rdx
    502e:	ff e2                	jmp    *%rdx
    5030:	48 8d 15 69 b6 00 00 	lea    0xb669(%rip),%rdx        # 106a0 <body>
    5037:	48 0f bf c0          	movswq %ax,%rax
    503b:	48 8b 7c 24 08       	mov    0x8(%rsp),%rdi
    5040:	48 8b 4c 24 18       	mov    0x18(%rsp),%rcx
    5045:	48 8b 04 c2          	mov    (%rdx,%rax,8),%rax
    5049:	48 89 2f             	mov    %rbp,(%rdi)
    504c:	48 83 c7 20          	add    $0x20,%rdi
    5050:	48 0f bf 10          	movswq (%rax),%rdx
    5054:	48 8d 68 02          	lea    0x2(%rax),%rbp
    5058:	48 89 4f e8          	mov    %rcx,-0x18(%rdi)
    505c:	48 89 7c 24 08       	mov    %rdi,0x8(%rsp)
    5061:	48 89 d0             	mov    %rdx,%rax
    5064:	49 8b 14 d6          	mov    (%r14,%rdx,8),%rdx
    5068:	ff e2                	jmp    *%rdx
    506a:	4c 39 64 24 40       	cmp    %r12,0x40(%rsp)
    506f:	7e 10                	jle    5081 <main+0x1d11>
    5071:	4d 85 e4             	test   %r12,%r12
    5074:	78 0b                	js     5081 <main+0x1d11>
    5076:	48 8b 44 24 30       	mov    0x30(%rsp),%rax
    507b:	4e 8b 24 e0          	mov    (%rax,%r12,8),%r12
    507f:	eb 03                	jmp    5084 <main+0x1d14>
    5081:	45 31 e4             	xor    %r12d,%r12d
    5084:	48 0f bf 55 00       	movswq 0x0(%rbp),%rdx
    5089:	48 83 c5 02          	add    $0x2,%rbp
    508d:	48 89 d0             	mov    %rdx,%rax
    5090:	49 8b 14 d6          	mov    (%r14,%rdx,8),%rdx
    5094:	ff e2                	jmp    *%rdx
    5096:	83 7c 24 68 00       	cmpl   $0x0,0x68(%rsp)
    509b:	0f 85 c2 16 00 00    	jne    6763 <main+0x33f3>
    50a1:	83 7c 24 2c 00       	cmpl   $0x0,0x2c(%rsp)
    50a6:	0f 85 d9 16 00 00    	jne    6785 <main+0x3415>
    50ac:	48 8b 7c 24 20       	mov    0x20(%rsp),%rdi
    50b1:	e8 7a e2 ff ff       	call   3330 <free@plt>
    50b6:	44 89 e0             	mov    %r12d,%eax
    50b9:	48 8b 94 24 48 81 00 	mov    0x8148(%rsp),%rdx
    50c0:	00 
    50c1:	64 48 2b 14 25 28 00 	sub    %fs:0x28,%rdx
    50c8:	00 00 
    50ca:	0f 85 98 1a 00 00    	jne    6b68 <main+0x37f8>
    50d0:	48 81 c4 58 81 00 00 	add    $0x8158,%rsp
    50d7:	5b                   	pop    %rbx
    50d8:	5d                   	pop    %rbp
    50d9:	41 5c                	pop    %r12
    50db:	41 5d                	pop    %r13
    50dd:	41 5e                	pop    %r14
    50df:	41 5f                	pop    %r15
    50e1:	c3                   	ret    
    50e2:	45 31 e4             	xor    %r12d,%r12d
    50e5:	eb af                	jmp    5096 <main+0x1d26>
    50e7:	48 0f bf 55 00       	movswq 0x0(%rbp),%rdx
    50ec:	48 83 c5 02          	add    $0x2,%rbp
    50f0:	48 89 d0             	mov    %rdx,%rax
    50f3:	49 8b 14 d6          	mov    (%r14,%rdx,8),%rdx
    50f7:	ff e2                	jmp    *%rdx
    50f9:	48 83 84 24 98 00 00 	addq   $0x1,0x98(%rsp)
    5100:	00 01 
    5102:	48 8b 44 24 10       	mov    0x10(%rsp),%rax
    5107:	4c 89 23             	mov    %r12,(%rbx)
    510a:	48 83 c3 08          	add    $0x8,%rbx
    510e:	49 83 cc ff          	or     $0xffffffffffffffff,%r12
    5112:	48 0f bf 55 00       	movswq 0x0(%rbp),%rdx
    5117:	48 8b 40 f8          	mov    -0x8(%rax),%rax
    511b:	48 83 c5 02          	add    $0x2,%rbp
    511f:	48 83 6c 24 10 08    	subq   $0x8,0x10(%rsp)
    5125:	48 89 05 b4 35 23 00 	mov    %rax,0x2335b4(%rip)        # 2386e0 <source>
    512c:	48 89 d0             	mov    %rdx,%rax
    512f:	49 8b 14 d6          	mov    (%r14,%rdx,8),%rdx
    5133:	ff e2                	jmp    *%rdx
    5135:	48 8b 44 24 10       	mov    0x10(%rsp),%rax
    513a:	4d 85 e4             	test   %r12,%r12
    513d:	74 d3                	je     5112 <main+0x1da2>
    513f:	4c 8b 63 f8          	mov    -0x8(%rbx),%r12
    5143:	48 83 eb 08          	sub    $0x8,%rbx
    5147:	66 0f 1f 84 00 00 00 	nopw   0x0(%rax,%rax,1)
    514e:	00 00 
    5150:	48 8d 84 24 50 01 00 	lea    0x150(%rsp),%rax
    5157:	00 
    5158:	48 39 c3             	cmp    %rax,%rbx
    515b:	0f 83 06 03 00 00    	jae    5467 <main+0x20f7>
    5161:	4c 8b 25 60 35 23 00 	mov    0x233560(%rip),%r12        # 2386c8 <on_error>
    5168:	4d 85 e4             	test   %r12,%r12
    516b:	0f 84 22 12 00 00    	je     6393 <main+0x3023>
    5171:	48 8b 5c 24 08       	mov    0x8(%rsp),%rbx
    5176:	49 0f bf d4          	movswq %r12w,%rdx
    517a:	48 8d 35 d6 02 00 00 	lea    0x2d6(%rip),%rsi        # 5457 <main+0x20e7>
    5181:	48 c7 84 24 58 01 00 	movq   $0x0,0x158(%rsp)
    5188:	00 00 00 00 00 
    518d:	66 44 89 a4 24 bc 00 	mov    %r12w,0xbc(%rsp)
    5194:	00 00 
    5196:	49 8b 14 d6          	mov    (%r14,%rdx,8),%rdx
    519a:	44 89 e0             	mov    %r12d,%eax
    519d:	41 bc 01 00 00 00    	mov    $0x1,%r12d
    51a3:	48 89 6b 08          	mov    %rbp,0x8(%rbx)
    51a7:	48 83 c3 10          	add    $0x10,%rbx
    51ab:	48 8d ac 24 be 00 00 	lea    0xbe(%rsp),%rbp
    51b2:	00 
    51b3:	66 c7 84 24 be 00 00 	movw   $0x5,0xbe(%rsp)
    51ba:	00 05 00 
    51bd:	48 89 73 f0          	mov    %rsi,-0x10(%rbx)
    51c1:	48 89 5c 24 08       	mov    %rbx,0x8(%rsp)
    51c6:	48 8d 9c 24 60 01 00 	lea    0x160(%rsp),%rbx
    51cd:	00 
    51ce:	ff e2                	jmp    *%rdx
    51d0:	e9 7b ff ff ff       	jmp    5150 <main+0x1de0>
    51d5:	48 0f bf 54 24 7e    	movswq 0x7e(%rsp),%rdx
    51db:	48 8b 4c 24 08       	mov    0x8(%rsp),%rcx
    51e0:	48 8d 3d e9 ff ff ff 	lea    -0x17(%rip),%rdi        # 51d0 <main+0x1e60>
    51e7:	66 c7 84 24 be 00 00 	movw   $0x5,0xbe(%rsp)
    51ee:	00 05 00 
    51f1:	66 89 94 24 bc 00 00 	mov    %dx,0xbc(%rsp)
    51f8:	00 
    51f9:	48 89 d0             	mov    %rdx,%rax
    51fc:	49 8b 14 d6          	mov    (%r14,%rdx,8),%rdx
    5200:	48 83 c1 10          	add    $0x10,%rcx
    5204:	48 89 69 f8          	mov    %rbp,-0x8(%rcx)
    5208:	48 8d ac 24 be 00 00 	lea    0xbe(%rsp),%rbp
    520f:	00 
    5210:	48 89 79 f0          	mov    %rdi,-0x10(%rcx)
    5214:	48 89 4c 24 08       	mov    %rcx,0x8(%rsp)
    5219:	ff e2                	jmp    *%rdx
    521b:	48 8b 7c 24 10       	mov    0x10(%rsp),%rdi
    5220:	48 8b 15 b9 34 23 00 	mov    0x2334b9(%rip),%rdx        # 2386e0 <source>
    5227:	48 83 eb 08          	sub    $0x8,%rbx
    522b:	48 89 f8             	mov    %rdi,%rax
    522e:	48 83 c7 08          	add    $0x8,%rdi
    5232:	48 89 10             	mov    %rdx,(%rax)
    5235:	4c 89 25 a4 34 23 00 	mov    %r12,0x2334a4(%rip)        # 2386e0 <source>
    523c:	48 83 3d 9c 34 23 00 	cmpq   $0x0,0x23349c(%rip)        # 2386e0 <source>
    5243:	00 
    5244:	48 89 7c 24 10       	mov    %rdi,0x10(%rsp)
    5249:	4c 8b 23             	mov    (%rbx),%r12
    524c:	0f 85 fe fe ff ff    	jne    5150 <main+0x1de0>
    5252:	48 8b 15 77 34 23 00 	mov    0x233477(%rip),%rdx        # 2386d0 <on_ok>
    5259:	48 85 d2             	test   %rdx,%rdx
    525c:	0f 84 a0 fe ff ff    	je     5102 <main+0x1d92>
    5262:	48 8b 74 24 08       	mov    0x8(%rsp),%rsi
    5267:	89 d0                	mov    %edx,%eax
    5269:	66 89 94 24 bc 00 00 	mov    %dx,0xbc(%rsp)
    5270:	00 
    5271:	48 0f bf d2          	movswq %dx,%rdx
    5275:	48 8d 3d 7d fe ff ff 	lea    -0x183(%rip),%rdi        # 50f9 <main+0x1d89>
    527c:	49 8b 14 d6          	mov    (%r14,%rdx,8),%rdx
    5280:	66 c7 84 24 be 00 00 	movw   $0x5,0xbe(%rsp)
    5287:	00 05 00 
    528a:	48 89 6e 08          	mov    %rbp,0x8(%rsi)
    528e:	48 83 c6 10          	add    $0x10,%rsi
    5292:	48 8d ac 24 be 00 00 	lea    0xbe(%rsp),%rbp
    5299:	00 
    529a:	48 89 7e f0          	mov    %rdi,-0x10(%rsi)
    529e:	48 89 74 24 08       	mov    %rsi,0x8(%rsp)
    52a3:	ff e2                	jmp    *%rdx
    52a5:	48 8b 43 f8          	mov    -0x8(%rbx),%rax
    52a9:	48 8d 15 a4 3d 00 00 	lea    0x3da4(%rip),%rdx        # 9054 <_fini+0xf33>
    52b0:	48 83 eb 08          	sub    $0x8,%rbx
    52b4:	4c 89 e7             	mov    %r12,%rdi
    52b7:	48 89 d6             	mov    %rdx,%rsi
    52ba:	48 85 c0             	test   %rax,%rax
    52bd:	48 89 84 24 98 00 00 	mov    %rax,0x98(%rsp)
    52c4:	00 
    52c5:	48 0f 45 f0          	cmovne %rax,%rsi
    52c9:	48 83 c5 02          	add    $0x2,%rbp
    52cd:	e8 1e 2d 00 00       	call   7ff0 <sys_exec>
    52d2:	48 0f bf 55 fe       	movswq -0x2(%rbp),%rdx
    52d7:	49 89 c4             	mov    %rax,%r12
    52da:	48 89 d0             	mov    %rdx,%rax
    52dd:	49 8b 14 d6          	mov    (%r14,%rdx,8),%rdx
    52e1:	ff e2                	jmp    *%rdx
    52e3:	4c 89 23             	mov    %r12,(%rbx)
    52e6:	4c 8d 7b 08          	lea    0x8(%rbx),%r15
    52ea:	48 83 c5 02          	add    $0x2,%rbp
    52ee:	4c 89 fb             	mov    %r15,%rbx
    52f1:	e8 8a dd ff ff       	call   3080 <getpid@plt>
    52f6:	48 0f bf 55 fe       	movswq -0x2(%rbp),%rdx
    52fb:	4c 63 e0             	movslq %eax,%r12
    52fe:	48 89 d0             	mov    %rdx,%rax
    5301:	49 8b 14 d6          	mov    (%r14,%rdx,8),%rdx
    5305:	ff e2                	jmp    *%rdx
    5307:	48 8d 35 52 1a 00 00 	lea    0x1a52(%rip),%rsi        # 6d60 <catch_exit>
    530e:	bf 11 00 00 00       	mov    $0x11,%edi
    5313:	e8 18 de ff ff       	call   3130 <signal@plt>
    5318:	e8 63 de ff ff       	call   3180 <fork@plt>
    531d:	85 c0                	test   %eax,%eax
    531f:	0f 84 ca 12 00 00    	je     65ef <main+0x327f>
    5325:	48 0f bf 55 00       	movswq 0x0(%rbp),%rdx
    532a:	48 83 eb 08          	sub    $0x8,%rbx
    532e:	48 83 c5 02          	add    $0x2,%rbp
    5332:	4c 8b 23             	mov    (%rbx),%r12
    5335:	48 89 d0             	mov    %rdx,%rax
    5338:	49 8b 14 d6          	mov    (%r14,%rdx,8),%rdx
    533c:	ff e2                	jmp    *%rdx
    533e:	48 8b 43 f8          	mov    -0x8(%rbx),%rax
    5342:	4c 89 e7             	mov    %r12,%rdi
    5345:	48 8d b4 24 a8 00 00 	lea    0xa8(%rsp),%rsi
    534c:	00 
    534d:	48 83 c5 02          	add    $0x2,%rbp
    5351:	48 89 84 24 a8 00 00 	mov    %rax,0xa8(%rsp)
    5358:	00 
    5359:	e8 62 2a 00 00       	call   7dc0 <split>
    535e:	48 0f bf 55 fe       	movswq -0x2(%rbp),%rdx
    5363:	4c 63 e0             	movslq %eax,%r12
    5366:	48 8b 84 24 a8 00 00 	mov    0xa8(%rsp),%rax
    536d:	00 
    536e:	48 89 43 f8          	mov    %rax,-0x8(%rbx)
    5372:	48 89 d0             	mov    %rdx,%rax
    5375:	49 8b 14 d6          	mov    (%r14,%rdx,8),%rdx
    5379:	ff e2                	jmp    *%rdx
    537b:	48 8b 43 f8          	mov    -0x8(%rbx),%rax
    537f:	4c 89 e7             	mov    %r12,%rdi
    5382:	48 8d b4 24 a8 00 00 	lea    0xa8(%rsp),%rsi
    5389:	00 
    538a:	48 83 c5 02          	add    $0x2,%rbp
    538e:	48 89 84 24 a8 00 00 	mov    %rax,0xa8(%rsp)
    5395:	00 
    5396:	e8 85 29 00 00       	call   7d20 <match>
    539b:	48 0f bf 55 fe       	movswq -0x2(%rbp),%rdx
    53a0:	4c 63 e0             	movslq %eax,%r12
    53a3:	48 8b 84 24 a8 00 00 	mov    0xa8(%rsp),%rax
    53aa:	00 
    53ab:	48 89 43 f8          	mov    %rax,-0x8(%rbx)
    53af:	48 89 d0             	mov    %rdx,%rax
    53b2:	49 8b 14 d6          	mov    (%r14,%rdx,8),%rdx
    53b6:	ff e2                	jmp    *%rdx
    53b8:	83 7c 24 2c 00       	cmpl   $0x0,0x2c(%rsp)
    53bd:	0f 85 8d 12 00 00    	jne    6650 <main+0x32e0>
    53c3:	48 0f bf 55 00       	movswq 0x0(%rbp),%rdx
    53c8:	c7 44 24 2c 00 00 00 	movl   $0x0,0x2c(%rsp)
    53cf:	00 
    53d0:	48 83 c5 02          	add    $0x2,%rbp
    53d4:	48 89 d0             	mov    %rdx,%rax
    53d7:	49 8b 14 d6          	mov    (%r14,%rdx,8),%rdx
    53db:	ff e2                	jmp    *%rdx
    53dd:	83 7c 24 68 00       	cmpl   $0x0,0x68(%rsp)
    53e2:	0f 85 46 12 00 00    	jne    662e <main+0x32be>
    53e8:	48 0f bf 55 00       	movswq 0x0(%rbp),%rdx
    53ed:	c7 44 24 68 00 00 00 	movl   $0x0,0x68(%rsp)
    53f4:	00 
    53f5:	48 83 c5 02          	add    $0x2,%rbp
    53f9:	48 89 d0             	mov    %rdx,%rax
    53fc:	49 8b 14 d6          	mov    (%r14,%rdx,8),%rdx
    5400:	ff e2                	jmp    *%rdx
    5402:	e9 49 fd ff ff       	jmp    5150 <main+0x1de0>
    5407:	48 8b 44 24 08       	mov    0x8(%rsp),%rax
    540c:	48 8d 35 ef ff ff ff 	lea    -0x11(%rip),%rsi        # 5402 <main+0x2092>
    5413:	48 8b 15 5e 35 01 00 	mov    0x1355e(%rip),%rdx        # 18978 <call+0x2d8>
    541a:	c7 84 24 bc 00 00 00 	movl   $0x5005b,0xbc(%rsp)
    5421:	5b 00 05 00 
    5425:	48 89 68 08          	mov    %rbp,0x8(%rax)
    5429:	48 83 c0 10          	add    $0x10,%rax
    542d:	48 8d ac 24 be 00 00 	lea    0xbe(%rsp),%rbp
    5434:	00 
    5435:	48 89 70 f0          	mov    %rsi,-0x10(%rax)
    5439:	48 89 44 24 08       	mov    %rax,0x8(%rsp)
    543e:	b8 5b 00 00 00       	mov    $0x5b,%eax
    5443:	ff e2                	jmp    *%rdx
    5445:	4d 85 e4             	test   %r12,%r12
    5448:	0f 85 f1 fc ff ff    	jne    513f <main+0x1dcf>
    544e:	48 83 eb 08          	sub    $0x8,%rbx
    5452:	4c 8b 23             	mov    (%rbx),%r12
    5455:	eb 20                	jmp    5477 <main+0x2107>
    5457:	48 83 eb 08          	sub    $0x8,%rbx
    545b:	4d 85 e4             	test   %r12,%r12
    545e:	4c 8b 23             	mov    (%rbx),%r12
    5461:	0f 84 7e 11 00 00    	je     65e5 <main+0x3275>
    5467:	48 8b 0d 4a 32 23 00 	mov    0x23324a(%rip),%rcx        # 2386b8 <on_eval>
    546e:	48 85 c9             	test   %rcx,%rcx
    5471:	0f 85 ad 0e 00 00    	jne    6324 <main+0x2fb4>
    5477:	31 c0                	xor    %eax,%eax
    5479:	e8 12 1e 00 00       	call   7290 <parse>
    547e:	49 89 c7             	mov    %rax,%r15
    5481:	48 85 c0             	test   %rax,%rax
    5484:	0f 84 c8 fd ff ff    	je     5252 <main+0x1ee2>
    548a:	0f b6 00             	movzbl (%rax),%eax
    548d:	84 c0                	test   %al,%al
    548f:	0f 84 bd fd ff ff    	je     5252 <main+0x1ee2>
    5495:	3c 2e                	cmp    $0x2e,%al
    5497:	0f 84 0b 12 00 00    	je     66a8 <main+0x3338>
    549d:	3c 22                	cmp    $0x22,%al
    549f:	0f 84 04 14 00 00    	je     68a9 <main+0x3539>
    54a5:	48 8b 3d 04 32 23 00 	mov    0x233204(%rip),%rdi        # 2386b0 <macro>
    54ac:	4c 89 fe             	mov    %r15,%rsi
    54af:	e8 dc 18 00 00       	call   6d90 <find.part.0>
    54b4:	66 85 c0             	test   %ax,%ax
    54b7:	0f 84 ec 12 00 00    	je     67a9 <main+0x3439>
    54bd:	48 8b 4c 24 08       	mov    0x8(%rsp),%rcx
    54c2:	48 0f bf d0          	movswq %ax,%rdx
    54c6:	48 8d 3d 35 00 00 00 	lea    0x35(%rip),%rdi        # 5502 <main+0x2192>
    54cd:	66 89 84 24 bc 00 00 	mov    %ax,0xbc(%rsp)
    54d4:	00 
    54d5:	66 c7 84 24 be 00 00 	movw   $0x5,0xbe(%rsp)
    54dc:	00 05 00 
    54df:	49 8b 14 d6          	mov    (%r14,%rdx,8),%rdx
    54e3:	48 89 39             	mov    %rdi,(%rcx)
    54e6:	48 8d 79 10          	lea    0x10(%rcx),%rdi
    54ea:	48 89 69 08          	mov    %rbp,0x8(%rcx)
    54ee:	48 8d ac 24 be 00 00 	lea    0xbe(%rsp),%rbp
    54f5:	00 
    54f6:	48 89 7c 24 08       	mov    %rdi,0x8(%rsp)
    54fb:	ff e2                	jmp    *%rdx
    54fd:	e9 4e fc ff ff       	jmp    5150 <main+0x1de0>
    5502:	e9 49 fc ff ff       	jmp    5150 <main+0x1de0>
    5507:	83 7c 24 2c 00       	cmpl   $0x0,0x2c(%rsp)
    550c:	0f 84 78 10 00 00    	je     658a <main+0x321a>
    5512:	48 0f bf 55 00       	movswq 0x0(%rbp),%rdx
    5517:	48 83 c5 02          	add    $0x2,%rbp
    551b:	48 89 d0             	mov    %rdx,%rax
    551e:	49 8b 14 d6          	mov    (%r14,%rdx,8),%rdx
    5522:	ff e2                	jmp    *%rdx
    5524:	83 7c 24 68 00       	cmpl   $0x0,0x68(%rsp)
    5529:	0f 84 ef 0f 00 00    	je     651e <main+0x31ae>
    552f:	48 0f bf 55 00       	movswq 0x0(%rbp),%rdx
    5534:	48 83 c5 02          	add    $0x2,%rbp
    5538:	48 89 d0             	mov    %rdx,%rax
    553b:	49 8b 14 d6          	mov    (%r14,%rdx,8),%rdx
    553f:	ff e2                	jmp    *%rdx
    5541:	4c 89 23             	mov    %r12,(%rbx)
    5544:	48 8d b4 24 84 00 00 	lea    0x84(%rsp),%rsi
    554b:	00 
    554c:	48 83 c3 10          	add    $0x10,%rbx
    5550:	48 83 c5 02          	add    $0x2,%rbp
    5554:	48 8d bc 24 80 00 00 	lea    0x80(%rsp),%rdi
    555b:	00 
    555c:	e8 6f 25 00 00       	call   7ad0 <max_xy>
    5561:	48 0f bf 55 fe       	movswq -0x2(%rbp),%rdx
    5566:	48 63 84 24 80 00 00 	movslq 0x80(%rsp),%rax
    556d:	00 
    556e:	4c 63 a4 24 84 00 00 	movslq 0x84(%rsp),%r12
    5575:	00 
    5576:	48 89 43 f8          	mov    %rax,-0x8(%rbx)
    557a:	48 89 d0             	mov    %rdx,%rax
    557d:	49 8b 14 d6          	mov    (%r14,%rdx,8),%rdx
    5581:	ff e2                	jmp    *%rdx
    5583:	8b 7b f8             	mov    -0x8(%rbx),%edi
    5586:	44 89 e6             	mov    %r12d,%esi
    5589:	4c 8d 7b f8          	lea    -0x8(%rbx),%r15
    558d:	48 83 c5 02          	add    $0x2,%rbp
    5591:	48 83 eb 10          	sub    $0x10,%rbx
    5595:	e8 a6 24 00 00       	call   7a40 <at_xy>
    559a:	48 0f bf 55 fe       	movswq -0x2(%rbp),%rdx
    559f:	4d 8b 67 f8          	mov    -0x8(%r15),%r12
    55a3:	48 89 d0             	mov    %rdx,%rax
    55a6:	49 8b 14 d6          	mov    (%r14,%rdx,8),%rdx
    55aa:	ff e2                	jmp    *%rdx
    55ac:	48 8b 53 f8          	mov    -0x8(%rbx),%rdx
    55b0:	44 89 e6             	mov    %r12d,%esi
    55b3:	4c 8d 7b f8          	lea    -0x8(%rbx),%r15
    55b7:	48 83 c5 02          	add    $0x2,%rbp
    55bb:	48 83 eb 18          	sub    $0x18,%rbx
    55bf:	48 89 94 24 a0 00 00 	mov    %rdx,0xa0(%rsp)
    55c6:	00 
    55c7:	48 8b 7b 08          	mov    0x8(%rbx),%rdi
    55cb:	48 89 bc 24 a8 00 00 	mov    %rdi,0xa8(%rsp)
    55d2:	00 
    55d3:	e8 18 dc ff ff       	call   31f0 <memset@plt>
    55d8:	48 0f bf 55 fe       	movswq -0x2(%rbp),%rdx
    55dd:	4d 8b 67 f0          	mov    -0x10(%r15),%r12
    55e1:	48 89 d0             	mov    %rdx,%rax
    55e4:	49 8b 14 d6          	mov    (%r14,%rdx,8),%rdx
    55e8:	ff e2                	jmp    *%rdx
    55ea:	48 8b 43 f8          	mov    -0x8(%rbx),%rax
    55ee:	48 8d 73 f8          	lea    -0x8(%rbx),%rsi
    55f2:	48 89 84 24 a0 00 00 	mov    %rax,0xa0(%rsp)
    55f9:	00 
    55fa:	48 8b 56 f8          	mov    -0x8(%rsi),%rdx
    55fe:	c7 84 24 80 00 00 00 	movl   $0x0,0x80(%rsp)
    5605:	00 00 00 00 
    5609:	48 89 94 24 a8 00 00 	mov    %rdx,0xa8(%rsp)
    5610:	00 
    5611:	48 85 c0             	test   %rax,%rax
    5614:	7e 31                	jle    5647 <main+0x22d7>
    5616:	31 c0                	xor    %eax,%eax
    5618:	0f 1f 84 00 00 00 00 	nopl   0x0(%rax,%rax,1)
    561f:	00 
    5620:	4c 89 22             	mov    %r12,(%rdx)
    5623:	8d 48 01             	lea    0x1(%rax),%ecx
    5626:	48 83 c2 08          	add    $0x8,%rdx
    562a:	48 83 c0 01          	add    $0x1,%rax
    562e:	48 39 84 24 a0 00 00 	cmp    %rax,0xa0(%rsp)
    5635:	00 
    5636:	7f e8                	jg     5620 <main+0x22b0>
    5638:	48 89 94 24 a8 00 00 	mov    %rdx,0xa8(%rsp)
    563f:	00 
    5640:	89 8c 24 80 00 00 00 	mov    %ecx,0x80(%rsp)
    5647:	48 0f bf 55 00       	movswq 0x0(%rbp),%rdx
    564c:	4c 8b 66 f0          	mov    -0x10(%rsi),%r12
    5650:	48 8d 5e f0          	lea    -0x10(%rsi),%rbx
    5654:	48 83 c5 02          	add    $0x2,%rbp
    5658:	48 89 d0             	mov    %rdx,%rax
    565b:	49 8b 14 d6          	mov    (%r14,%rdx,8),%rdx
    565f:	ff e2                	jmp    *%rdx
    5661:	48 8b 73 f8          	mov    -0x8(%rbx),%rsi
    5665:	4c 89 e7             	mov    %r12,%rdi
    5668:	48 83 eb 08          	sub    $0x8,%rbx
    566c:	48 83 c5 02          	add    $0x2,%rbp
    5670:	e8 db 20 00 00       	call   7750 <date_format>
    5675:	48 0f bf 55 fe       	movswq -0x2(%rbp),%rdx
    567a:	49 89 c4             	mov    %rax,%r12
    567d:	48 89 d0             	mov    %rdx,%rax
    5680:	49 8b 14 d6          	mov    (%r14,%rdx,8),%rdx
    5684:	ff e2                	jmp    *%rdx
    5686:	4c 89 23             	mov    %r12,(%rbx)
    5689:	31 ff                	xor    %edi,%edi
    568b:	4c 8d 7b 08          	lea    0x8(%rbx),%r15
    568f:	48 83 c5 02          	add    $0x2,%rbp
    5693:	4c 89 fb             	mov    %r15,%rbx
    5696:	e8 a5 db ff ff       	call   3240 <time@plt>
    569b:	48 0f bf 55 fe       	movswq -0x2(%rbp),%rdx
    56a0:	49 89 c4             	mov    %rax,%r12
    56a3:	48 89 d0             	mov    %rdx,%rax
    56a6:	49 8b 14 d6          	mov    (%r14,%rdx,8),%rdx
    56aa:	ff e2                	jmp    *%rdx
    56ac:	e8 6f da ff ff       	call   3120 <rand@plt>
    56b1:	48 83 c5 02          	add    $0x2,%rbp
    56b5:	48 98                	cltq   
    56b7:	48 99                	cqto   
    56b9:	49 f7 fc             	idiv   %r12
    56bc:	49 89 d4             	mov    %rdx,%r12
    56bf:	48 0f bf 55 fe       	movswq -0x2(%rbp),%rdx
    56c4:	48 89 d0             	mov    %rdx,%rax
    56c7:	49 8b 14 d6          	mov    (%r14,%rdx,8),%rdx
    56cb:	ff e2                	jmp    *%rdx
    56cd:	44 89 e7             	mov    %r12d,%edi
    56d0:	48 83 eb 08          	sub    $0x8,%rbx
    56d4:	48 83 c5 02          	add    $0x2,%rbp
    56d8:	e8 93 d9 ff ff       	call   3070 <usleep@plt>
    56dd:	48 0f bf 55 fe       	movswq -0x2(%rbp),%rdx
    56e2:	4c 8b 23             	mov    (%rbx),%r12
    56e5:	48 89 d0             	mov    %rdx,%rax
    56e8:	49 8b 14 d6          	mov    (%r14,%rdx,8),%rdx
    56ec:	ff e2                	jmp    *%rdx
    56ee:	4c 89 e7             	mov    %r12,%rdi
    56f1:	48 83 eb 08          	sub    $0x8,%rbx
    56f5:	48 83 c5 02          	add    $0x2,%rbp
    56f9:	e8 d2 db ff ff       	call   32d0 <strlen@plt>
    56fe:	48 8b 3d 8b 95 00 00 	mov    0x958b(%rip),%rdi        # ec90 <stderr>
    5705:	49 89 c7             	mov    %rax,%r15
    5708:	e8 a3 db ff ff       	call   32b0 <fileno@plt>
    570d:	4c 89 fa             	mov    %r15,%rdx
    5710:	4c 89 e6             	mov    %r12,%rsi
    5713:	89 c7                	mov    %eax,%edi
    5715:	e8 e6 d9 ff ff       	call   3100 <write@plt>
    571a:	48 0f bf 55 fe       	movswq -0x2(%rbp),%rdx
    571f:	4c 8b 23             	mov    (%rbx),%r12
    5722:	48 89 d0             	mov    %rdx,%rax
    5725:	49 8b 14 d6          	mov    (%r14,%rdx,8),%rdx
    5729:	ff e2                	jmp    *%rdx
    572b:	4d 85 e4             	test   %r12,%r12
    572e:	0f 85 c1 0d 00 00    	jne    64f5 <main+0x3185>
    5734:	48 0f bf 55 00       	movswq 0x0(%rbp),%rdx
    5739:	48 83 eb 08          	sub    $0x8,%rbx
    573d:	48 83 c5 02          	add    $0x2,%rbp
    5741:	4c 8b 23             	mov    (%rbx),%r12
    5744:	48 89 d0             	mov    %rdx,%rax
    5747:	49 8b 14 d6          	mov    (%r14,%rdx,8),%rdx
    574b:	ff e2                	jmp    *%rdx
    574d:	49 8d 44 24 01       	lea    0x1(%r12),%rax
    5752:	48 0f bf 55 00       	movswq 0x0(%rbp),%rdx
    5757:	48 83 c5 02          	add    $0x2,%rbp
    575b:	48 6b c0 f8          	imul   $0xfffffffffffffff8,%rax,%rax
    575f:	4c 8b 24 03          	mov    (%rbx,%rax,1),%r12
    5763:	48 89 d0             	mov    %rdx,%rax
    5766:	49 8b 14 d6          	mov    (%r14,%rdx,8),%rdx
    576a:	ff e2                	jmp    *%rdx
    576c:	48 8d b4 24 88 00 00 	lea    0x88(%rsp),%rsi
    5773:	00 
    5774:	bf 76 00 00 00       	mov    $0x76,%edi
    5779:	48 83 c5 02          	add    $0x2,%rbp
    577d:	48 89 74 24 50       	mov    %rsi,0x50(%rsp)
    5782:	e8 59 18 00 00       	call   6fe0 <compile>
    5787:	48 8b 05 12 2f 23 00 	mov    0x232f12(%rip),%rax        # 2386a0 <current>
    578e:	48 8b 74 24 50       	mov    0x50(%rsp),%rsi
    5793:	48 8b 38             	mov    (%rax),%rdi
    5796:	4c 29 ef             	sub    %r13,%rdi
    5799:	48 c1 ff 03          	sar    $0x3,%rdi
    579d:	66 69 ff ab aa       	imul   $0xaaab,%di,%di
    57a2:	0f bf ff             	movswl %di,%edi
    57a5:	e8 36 18 00 00       	call   6fe0 <compile>
    57aa:	48 8b 74 24 50       	mov    0x50(%rsp),%rsi
    57af:	bf 91 00 00 00       	mov    $0x91,%edi
    57b4:	e8 27 18 00 00       	call   6fe0 <compile>
    57b9:	48 0f bf 55 fe       	movswq -0x2(%rbp),%rdx
    57be:	48 89 d0             	mov    %rdx,%rax
    57c1:	49 8b 14 d6          	mov    (%r14,%rdx,8),%rdx
    57c5:	ff e2                	jmp    *%rdx
    57c7:	48 8b 05 12 2f 23 00 	mov    0x232f12(%rip),%rax        # 2386e0 <source>
    57ce:	48 89 84 24 a8 00 00 	mov    %rax,0xa8(%rsp)
    57d5:	00 
    57d6:	eb 1c                	jmp    57f4 <main+0x2484>
    57d8:	0f 1f 84 00 00 00 00 	nopl   0x0(%rax,%rax,1)
    57df:	00 
    57e0:	48 8d 50 01          	lea    0x1(%rax),%rdx
    57e4:	48 89 94 24 a8 00 00 	mov    %rdx,0xa8(%rsp)
    57eb:	00 
    57ec:	80 38 29             	cmpb   $0x29,(%rax)
    57ef:	74 08                	je     57f9 <main+0x2489>
    57f1:	48 89 d0             	mov    %rdx,%rax
    57f4:	80 38 00             	cmpb   $0x0,(%rax)
    57f7:	75 e7                	jne    57e0 <main+0x2470>
    57f9:	48 0f bf 55 00       	movswq 0x0(%rbp),%rdx
    57fe:	48 8b 84 24 a8 00 00 	mov    0xa8(%rsp),%rax
    5805:	00 
    5806:	48 83 c5 02          	add    $0x2,%rbp
    580a:	48 89 05 cf 2e 23 00 	mov    %rax,0x232ecf(%rip)        # 2386e0 <source>
    5811:	48 89 d0             	mov    %rdx,%rax
    5814:	49 8b 14 d6          	mov    (%r14,%rdx,8),%rdx
    5818:	ff e2                	jmp    *%rdx
    581a:	48 8b 05 bf 2e 23 00 	mov    0x232ebf(%rip),%rax        # 2386e0 <source>
    5821:	48 89 84 24 a8 00 00 	mov    %rax,0xa8(%rsp)
    5828:	00 
    5829:	eb 19                	jmp    5844 <main+0x24d4>
    582b:	0f 1f 44 00 00       	nopl   0x0(%rax,%rax,1)
    5830:	48 8d 50 01          	lea    0x1(%rax),%rdx
    5834:	48 89 94 24 a8 00 00 	mov    %rdx,0xa8(%rsp)
    583b:	00 
    583c:	80 38 0a             	cmpb   $0xa,(%rax)
    583f:	74 08                	je     5849 <main+0x24d9>
    5841:	48 89 d0             	mov    %rdx,%rax
    5844:	80 38 00             	cmpb   $0x0,(%rax)
    5847:	75 e7                	jne    5830 <main+0x24c0>
    5849:	48 0f bf 55 00       	movswq 0x0(%rbp),%rdx
    584e:	48 8b 84 24 a8 00 00 	mov    0xa8(%rsp),%rax
    5855:	00 
    5856:	48 83 c5 02          	add    $0x2,%rbp
    585a:	48 89 05 7f 2e 23 00 	mov    %rax,0x232e7f(%rip)        # 2386e0 <source>
    5861:	48 89 d0             	mov    %rdx,%rax
    5864:	49 8b 14 d6          	mov    (%r14,%rdx,8),%rdx
    5868:	ff e2                	jmp    *%rdx
    586a:	48 8b 43 f8          	mov    -0x8(%rbx),%rax
    586e:	48 8d bc 24 b0 00 00 	lea    0xb0(%rsp),%rdi
    5875:	00 
    5876:	48 83 eb 08          	sub    $0x8,%rbx
    587a:	48 83 c5 02          	add    $0x2,%rbp
    587e:	48 89 84 24 98 00 00 	mov    %rax,0x98(%rsp)
    5885:	00 
    5886:	48 8b 43 f8          	mov    -0x8(%rbx),%rax
    588a:	48 89 84 24 98 00 00 	mov    %rax,0x98(%rsp)
    5891:	00 
    5892:	e8 e9 1b 00 00       	call   7480 <label>
    5897:	48 8b 8c 24 88 00 00 	mov    0x88(%rsp),%rcx
    589e:	00 
    589f:	48 8d 15 fa ad 00 00 	lea    0xadfa(%rip),%rdx        # 106a0 <body>
    58a6:	48 8d 3d aa f6 ff ff 	lea    -0x956(%rip),%rdi        # 4f57 <main+0x1be7>
    58ad:	48 0f bf c0          	movswq %ax,%rax
    58b1:	48 8d b4 24 88 00 00 	lea    0x88(%rsp),%rsi
    58b8:	00 
    58b9:	48 89 0c c2          	mov    %rcx,(%rdx,%rax,8)
    58bd:	49 89 3c c6          	mov    %rdi,(%r14,%rax,8)
    58c1:	48 8b bc 24 98 00 00 	mov    0x98(%rsp),%rdi
    58c8:	00 
    58c9:	e8 72 18 00 00       	call   7140 <ncompile>
    58ce:	48 0f bf 55 fe       	movswq -0x2(%rbp),%rdx
    58d3:	4c 03 a4 24 98 00 00 	add    0x98(%rsp),%r12
    58da:	00 
    58db:	4c 89 a4 24 98 00 00 	mov    %r12,0x98(%rsp)
    58e2:	00 
    58e3:	48 89 d0             	mov    %rdx,%rax
    58e6:	49 8b 14 d6          	mov    (%r14,%rdx,8),%rdx
    58ea:	4c 89 63 f8          	mov    %r12,-0x8(%rbx)
    58ee:	41 bc 03 00 00 00    	mov    $0x3,%r12d
    58f4:	ff e2                	jmp    *%rdx
    58f6:	48 c7 05 87 ad 00 00 	movq   $0x0,0xad87(%rip)        # 10688 <compile_last>
    58fd:	00 00 00 00 
    5901:	48 c7 05 74 ad 00 00 	movq   $0x0,0xad74(%rip)        # 10680 <ncompile_last>
    5908:	00 00 00 00 
    590c:	49 83 fc 01          	cmp    $0x1,%r12
    5910:	0f 84 78 0b 00 00    	je     648e <main+0x311e>
    5916:	4c 8d 7b f8          	lea    -0x8(%rbx),%r15
    591a:	49 83 fc 02          	cmp    $0x2,%r12
    591e:	0f 84 02 10 00 00    	je     6926 <main+0x35b6>
    5924:	49 83 fc 03          	cmp    $0x3,%r12
    5928:	0f 84 1a e9 ff ff    	je     4248 <main+0xed8>
    592e:	49 83 ec 01          	sub    $0x1,%r12
    5932:	49 83 fc 01          	cmp    $0x1,%r12
    5936:	0f 86 6f 0b 00 00    	jbe    64ab <main+0x313b>
    593c:	48 0f bf 55 00       	movswq 0x0(%rbp),%rdx
    5941:	4c 8b 63 f8          	mov    -0x8(%rbx),%r12
    5945:	48 83 c5 02          	add    $0x2,%rbp
    5949:	4c 89 fb             	mov    %r15,%rbx
    594c:	48 89 d0             	mov    %rdx,%rax
    594f:	49 8b 14 d6          	mov    (%r14,%rdx,8),%rdx
    5953:	ff e2                	jmp    *%rdx
    5955:	4c 89 23             	mov    %r12,(%rbx)
    5958:	48 83 3d 78 2d 23 00 	cmpq   $0x0,0x232d78(%rip)        # 2386d8 <mode>
    595f:	00 
    5960:	0f 85 f6 0a 00 00    	jne    645c <main+0x30ec>
    5966:	48 8b 84 24 88 00 00 	mov    0x88(%rsp),%rax
    596d:	00 
    596e:	48 c7 43 08 ff ff ff 	movq   $0xffffffffffffffff,0x8(%rbx)
    5975:	ff 
    5976:	4c 8d 63 18          	lea    0x18(%rbx),%r12
    597a:	48 8d b4 24 88 00 00 	lea    0x88(%rsp),%rsi
    5981:	00 
    5982:	48 89 43 10          	mov    %rax,0x10(%rbx)
    5986:	bf 7b 00 00 00       	mov    $0x7b,%edi
    598b:	48 89 74 24 50       	mov    %rsi,0x50(%rsp)
    5990:	49 8d 5c 24 08       	lea    0x8(%r12),%rbx
    5995:	48 83 c5 02          	add    $0x2,%rbp
    5999:	48 83 05 37 2d 23 00 	addq   $0x1,0x232d37(%rip)        # 2386d8 <mode>
    59a0:	01 
    59a1:	e8 3a 16 00 00       	call   6fe0 <compile>
    59a6:	48 8b 74 24 50       	mov    0x50(%rsp),%rsi
    59ab:	31 ff                	xor    %edi,%edi
    59ad:	4c 8b bc 24 88 00 00 	mov    0x88(%rsp),%r15
    59b4:	00 
    59b5:	e8 26 16 00 00       	call   6fe0 <compile>
    59ba:	48 0f bf 55 fe       	movswq -0x2(%rbp),%rdx
    59bf:	4d 89 3c 24          	mov    %r15,(%r12)
    59c3:	41 bc 02 00 00 00    	mov    $0x2,%r12d
    59c9:	48 89 d0             	mov    %rdx,%rax
    59cc:	49 8b 14 d6          	mov    (%r14,%rdx,8),%rdx
    59d0:	ff e2                	jmp    *%rdx
    59d2:	4c 89 23             	mov    %r12,(%rbx)
    59d5:	48 8b 05 fc 2c 23 00 	mov    0x232cfc(%rip),%rax        # 2386d8 <mode>
    59dc:	4c 8d 63 08          	lea    0x8(%rbx),%r12
    59e0:	48 85 c0             	test   %rax,%rax
    59e3:	0f 84 1f 0a 00 00    	je     6408 <main+0x3098>
    59e9:	48 83 c0 01          	add    $0x1,%rax
    59ed:	bf 7b 00 00 00       	mov    $0x7b,%edi
    59f2:	49 8d 5c 24 08       	lea    0x8(%r12),%rbx
    59f7:	48 83 c5 02          	add    $0x2,%rbp
    59fb:	48 8d b4 24 88 00 00 	lea    0x88(%rsp),%rsi
    5a02:	00 
    5a03:	48 89 05 ce 2c 23 00 	mov    %rax,0x232cce(%rip)        # 2386d8 <mode>
    5a0a:	48 89 74 24 50       	mov    %rsi,0x50(%rsp)
    5a0f:	e8 cc 15 00 00       	call   6fe0 <compile>
    5a14:	48 8b 74 24 50       	mov    0x50(%rsp),%rsi
    5a19:	31 ff                	xor    %edi,%edi
    5a1b:	4c 8b bc 24 88 00 00 	mov    0x88(%rsp),%r15
    5a22:	00 
    5a23:	e8 b8 15 00 00       	call   6fe0 <compile>
    5a28:	48 0f bf 55 fe       	movswq -0x2(%rbp),%rdx
    5a2d:	4d 89 3c 24          	mov    %r15,(%r12)
    5a31:	41 bc 02 00 00 00    	mov    $0x2,%r12d
    5a37:	48 89 d0             	mov    %rdx,%rax
    5a3a:	49 8b 14 d6          	mov    (%r14,%rdx,8),%rdx
    5a3e:	ff e2                	jmp    *%rdx
    5a40:	48 8d b4 24 88 00 00 	lea    0x88(%rsp),%rsi
    5a47:	00 
    5a48:	bf 7a 00 00 00       	mov    $0x7a,%edi
    5a4d:	4c 8b 63 f8          	mov    -0x8(%rbx),%r12
    5a51:	48 83 c5 02          	add    $0x2,%rbp
    5a55:	48 89 74 24 50       	mov    %rsi,0x50(%rsp)
    5a5a:	e8 81 15 00 00       	call   6fe0 <compile>
    5a5f:	48 8b 74 24 50       	mov    0x50(%rsp),%rsi
    5a64:	31 ff                	xor    %edi,%edi
    5a66:	4c 8b bc 24 88 00 00 	mov    0x88(%rsp),%r15
    5a6d:	00 
    5a6e:	e8 6d 15 00 00       	call   6fe0 <compile>
    5a73:	48 8b 84 24 88 00 00 	mov    0x88(%rsp),%rax
    5a7a:	00 
    5a7b:	4c 89 7b f8          	mov    %r15,-0x8(%rbx)
    5a7f:	4c 29 e0             	sub    %r12,%rax
    5a82:	66 41 89 04 24       	mov    %ax,(%r12)
    5a87:	48 0f bf 55 fe       	movswq -0x2(%rbp),%rdx
    5a8c:	41 bc 01 00 00 00    	mov    $0x1,%r12d
    5a92:	48 89 d0             	mov    %rdx,%rax
    5a95:	49 8b 14 d6          	mov    (%r14,%rdx,8),%rdx
    5a99:	ff e2                	jmp    *%rdx
    5a9b:	4c 89 23             	mov    %r12,(%rbx)
    5a9e:	48 8d b4 24 88 00 00 	lea    0x88(%rsp),%rsi
    5aa5:	00 
    5aa6:	bf 79 00 00 00       	mov    $0x79,%edi
    5aab:	48 89 74 24 50       	mov    %rsi,0x50(%rsp)
    5ab0:	e8 2b 15 00 00       	call   6fe0 <compile>
    5ab5:	48 83 3d 1b 2c 23 00 	cmpq   $0x0,0x232c1b(%rip)        # 2386d8 <mode>
    5abc:	00 
    5abd:	48 8b 74 24 50       	mov    0x50(%rsp),%rsi
    5ac2:	0f 84 27 09 00 00    	je     63ef <main+0x307f>
    5ac8:	4c 8b bc 24 88 00 00 	mov    0x88(%rsp),%r15
    5acf:	00 
    5ad0:	4c 8d 63 08          	lea    0x8(%rbx),%r12
    5ad4:	31 ff                	xor    %edi,%edi
    5ad6:	49 8d 5c 24 08       	lea    0x8(%r12),%rbx
    5adb:	48 83 c5 02          	add    $0x2,%rbp
    5adf:	e8 fc 14 00 00       	call   6fe0 <compile>
    5ae4:	48 0f bf 55 fe       	movswq -0x2(%rbp),%rdx
    5ae9:	4d 89 3c 24          	mov    %r15,(%r12)
    5aed:	41 bc 01 00 00 00    	mov    $0x1,%r12d
    5af3:	48 83 05 dd 2b 23 00 	addq   $0x1,0x232bdd(%rip)        # 2386d8 <mode>
    5afa:	01 
    5afb:	48 89 d0             	mov    %rdx,%rax
    5afe:	49 8b 14 d6          	mov    (%r14,%rdx,8),%rdx
    5b02:	ff e2                	jmp    *%rdx
    5b04:	48 8b 84 24 88 00 00 	mov    0x88(%rsp),%rax
    5b0b:	00 
    5b0c:	48 8b 15 75 ab 00 00 	mov    0xab75(%rip),%rdx        # 10688 <compile_last>
    5b13:	48 8d 48 fe          	lea    -0x2(%rax),%rcx
    5b17:	48 39 ca             	cmp    %rcx,%rdx
    5b1a:	0f 84 0a 09 00 00    	je     642a <main+0x30ba>
    5b20:	48 8d b4 24 88 00 00 	lea    0x88(%rsp),%rsi
    5b27:	00 
    5b28:	bf 02 00 00 00       	mov    $0x2,%edi
    5b2d:	e8 ae 14 00 00       	call   6fe0 <compile>
    5b32:	48 83 2d 9e 2b 23 00 	subq   $0x1,0x232b9e(%rip)        # 2386d8 <mode>
    5b39:	01 
    5b3a:	48 8b 84 24 88 00 00 	mov    0x88(%rsp),%rax
    5b41:	00 
    5b42:	48 8d 4b f8          	lea    -0x8(%rbx),%rcx
    5b46:	48 8b 53 f8          	mov    -0x8(%rbx),%rdx
    5b4a:	48 29 d0             	sub    %rdx,%rax
    5b4d:	66 89 02             	mov    %ax,(%rdx)
    5b50:	49 6b c4 18          	imul   $0x18,%r12,%rax
    5b54:	48 8b 15 4d 2b 23 00 	mov    0x232b4d(%rip),%rdx        # 2386a8 <normal>
    5b5b:	49 89 54 05 10       	mov    %rdx,0x10(%r13,%rax,1)
    5b60:	48 8b 05 49 2b 23 00 	mov    0x232b49(%rip),%rax        # 2386b0 <macro>
    5b67:	48 39 c2             	cmp    %rax,%rdx
    5b6a:	73 14                	jae    5b80 <main+0x2810>
    5b6c:	0f 1f 40 00          	nopl   0x0(%rax)
    5b70:	48 8b 40 08          	mov    0x8(%rax),%rax
    5b74:	48 39 c2             	cmp    %rax,%rdx
    5b77:	72 f7                	jb     5b70 <main+0x2800>
    5b79:	48 89 05 30 2b 23 00 	mov    %rax,0x232b30(%rip)        # 2386b0 <macro>
    5b80:	48 83 79 f8 00       	cmpq   $0x0,-0x8(%rcx)
    5b85:	48 8d 15 24 2b 23 00 	lea    0x232b24(%rip),%rdx        # 2386b0 <macro>
    5b8c:	48 8d 05 15 2b 23 00 	lea    0x232b15(%rip),%rax        # 2386a8 <normal>
    5b93:	48 0f 44 c2          	cmove  %rdx,%rax
    5b97:	49 6b d4 18          	imul   $0x18,%r12,%rdx
    5b9b:	48 8d 59 f0          	lea    -0x10(%rcx),%rbx
    5b9f:	4c 8b 61 f0          	mov    -0x10(%rcx),%r12
    5ba3:	48 c7 05 da aa 00 00 	movq   $0x0,0xaada(%rip)        # 10688 <compile_last>
    5baa:	00 00 00 00 
    5bae:	48 83 c5 02          	add    $0x2,%rbp
    5bb2:	48 89 05 e7 2a 23 00 	mov    %rax,0x232ae7(%rip)        # 2386a0 <current>
    5bb9:	48 c7 05 bc aa 00 00 	movq   $0x0,0xaabc(%rip)        # 10680 <ncompile_last>
    5bc0:	00 00 00 00 
    5bc4:	4c 01 ea             	add    %r13,%rdx
    5bc7:	48 89 10             	mov    %rdx,(%rax)
    5bca:	48 0f bf 55 fe       	movswq -0x2(%rbp),%rdx
    5bcf:	48 89 d0             	mov    %rdx,%rax
    5bd2:	49 8b 14 d6          	mov    (%r14,%rdx,8),%rdx
    5bd6:	ff e2                	jmp    *%rdx
    5bd8:	4c 89 23             	mov    %r12,(%rbx)
    5bdb:	48 8d 05 c6 2a 23 00 	lea    0x232ac6(%rip),%rax        # 2386a8 <normal>
    5be2:	bf 7a 00 00 00       	mov    $0x7a,%edi
    5be7:	48 8d b4 24 88 00 00 	lea    0x88(%rsp),%rsi
    5bee:	00 
    5bef:	48 83 05 e1 2a 23 00 	addq   $0x1,0x232ae1(%rip)        # 2386d8 <mode>
    5bf6:	01 
    5bf7:	48 39 05 a2 2a 23 00 	cmp    %rax,0x232aa2(%rip)        # 2386a0 <current>
    5bfe:	4c 8d 7b 18          	lea    0x18(%rbx),%r15
    5c02:	0f 94 c0             	sete   %al
    5c05:	48 89 74 24 50       	mov    %rsi,0x50(%rsp)
    5c0a:	48 83 c5 02          	add    $0x2,%rbp
    5c0e:	0f b6 c0             	movzbl %al,%eax
    5c11:	48 89 43 08          	mov    %rax,0x8(%rbx)
    5c15:	e8 c6 13 00 00       	call   6fe0 <compile>
    5c1a:	4c 8b a4 24 88 00 00 	mov    0x88(%rsp),%r12
    5c21:	00 
    5c22:	48 8b 74 24 50       	mov    0x50(%rsp),%rsi
    5c27:	31 ff                	xor    %edi,%edi
    5c29:	e8 b2 13 00 00       	call   6fe0 <compile>
    5c2e:	4c 89 63 10          	mov    %r12,0x10(%rbx)
    5c32:	48 8d bc 24 b0 00 00 	lea    0xb0(%rsp),%rdi
    5c39:	00 
    5c3a:	48 8d 1d ef f3 ff ff 	lea    -0xc11(%rip),%rbx        # 5030 <main+0x1cc0>
    5c41:	e8 3a 18 00 00       	call   7480 <label>
    5c46:	48 8b b4 24 88 00 00 	mov    0x88(%rsp),%rsi
    5c4d:	00 
    5c4e:	48 8d 0d 4b aa 00 00 	lea    0xaa4b(%rip),%rcx        # 106a0 <body>
    5c55:	48 0f bf d0          	movswq %ax,%rdx
    5c59:	48 8d 05 48 2a 23 00 	lea    0x232a48(%rip),%rax        # 2386a8 <normal>
    5c60:	49 89 1c d6          	mov    %rbx,(%r14,%rdx,8)
    5c64:	49 89 d4             	mov    %rdx,%r12
    5c67:	4c 89 fb             	mov    %r15,%rbx
    5c6a:	48 89 34 d1          	mov    %rsi,(%rcx,%rdx,8)
    5c6e:	48 0f bf 55 fe       	movswq -0x2(%rbp),%rdx
    5c73:	48 89 05 26 2a 23 00 	mov    %rax,0x232a26(%rip)        # 2386a0 <current>
    5c7a:	48 89 d0             	mov    %rdx,%rax
    5c7d:	49 8b 14 d6          	mov    (%r14,%rdx,8),%rdx
    5c81:	ff e2                	jmp    *%rdx
    5c83:	48 8b 43 f8          	mov    -0x8(%rbx),%rax
    5c87:	48 83 c5 02          	add    $0x2,%rbp
    5c8b:	48 99                	cqto   
    5c8d:	48 89 84 24 98 00 00 	mov    %rax,0x98(%rsp)
    5c94:	00 
    5c95:	49 f7 fc             	idiv   %r12
    5c98:	48 89 53 f8          	mov    %rdx,-0x8(%rbx)
    5c9c:	48 8b 84 24 98 00 00 	mov    0x98(%rsp),%rax
    5ca3:	00 
    5ca4:	48 99                	cqto   
    5ca6:	49 f7 fc             	idiv   %r12
    5ca9:	48 0f bf 55 fe       	movswq -0x2(%rbp),%rdx
    5cae:	49 89 c4             	mov    %rax,%r12
    5cb1:	48 89 d0             	mov    %rdx,%rax
    5cb4:	49 8b 14 d6          	mov    (%r14,%rdx,8),%rdx
    5cb8:	ff e2                	jmp    *%rdx
    5cba:	48 0f bf 55 00       	movswq 0x0(%rbp),%rdx
    5cbf:	4c 89 e0             	mov    %r12,%rax
    5cc2:	48 f7 d8             	neg    %rax
    5cc5:	4c 0f 49 e0          	cmovns %rax,%r12
    5cc9:	48 89 d0             	mov    %rdx,%rax
    5ccc:	49 8b 14 d6          	mov    (%r14,%rdx,8),%rdx
    5cd0:	48 83 c5 02          	add    $0x2,%rbp
    5cd4:	ff e2                	jmp    *%rdx
    5cd6:	4c 8d 7b f8          	lea    -0x8(%rbx),%r15
    5cda:	48 8b 5b f8          	mov    -0x8(%rbx),%rbx
    5cde:	48 89 9c 24 98 00 00 	mov    %rbx,0x98(%rsp)
    5ce5:	00 
    5ce6:	48 85 db             	test   %rbx,%rbx
    5ce9:	0f 85 e4 06 00 00    	jne    63d3 <main+0x3063>
    5cef:	41 c6 04 24 00       	movb   $0x0,(%r12)
    5cf4:	48 0f bf 55 00       	movswq 0x0(%rbp),%rdx
    5cf9:	4d 8b 67 f8          	mov    -0x8(%r15),%r12
    5cfd:	49 8d 5f f8          	lea    -0x8(%r15),%rbx
    5d01:	48 83 c5 02          	add    $0x2,%rbp
    5d05:	48 89 d0             	mov    %rdx,%rax
    5d08:	49 8b 14 d6          	mov    (%r14,%rdx,8),%rdx
    5d0c:	ff e2                	jmp    *%rdx
    5d0e:	48 0f bf 55 00       	movswq 0x0(%rbp),%rdx
    5d13:	48 83 c5 02          	add    $0x2,%rbp
    5d17:	48 89 d0             	mov    %rdx,%rax
    5d1a:	49 8b 14 d6          	mov    (%r14,%rdx,8),%rdx
    5d1e:	ff e2                	jmp    *%rdx
    5d20:	48 0f bf 55 00       	movswq 0x0(%rbp),%rdx
    5d25:	49 c1 e4 03          	shl    $0x3,%r12
    5d29:	48 83 c5 02          	add    $0x2,%rbp
    5d2d:	48 89 d0             	mov    %rdx,%rax
    5d30:	49 8b 14 d6          	mov    (%r14,%rdx,8),%rdx
    5d34:	ff e2                	jmp    *%rdx
    5d36:	48 8b 84 24 88 00 00 	mov    0x88(%rsp),%rax
    5d3d:	00 
    5d3e:	48 8d 15 5b 29 23 00 	lea    0x23295b(%rip),%rdx        # 2386a0 <current>
    5d45:	48 8d 48 02          	lea    0x2(%rax),%rcx
    5d49:	48 39 d1             	cmp    %rdx,%rcx
    5d4c:	0f 83 c2 0d 00 00    	jae    6b14 <main+0x37a4>
    5d52:	44 88 20             	mov    %r12b,(%rax)
    5d55:	48 0f bf 55 00       	movswq 0x0(%rbp),%rdx
    5d5a:	48 83 eb 08          	sub    $0x8,%rbx
    5d5e:	48 83 c5 02          	add    $0x2,%rbp
    5d62:	48 83 84 24 88 00 00 	addq   $0x1,0x88(%rsp)
    5d69:	00 01 
    5d6b:	4c 8b 23             	mov    (%rbx),%r12
    5d6e:	48 89 d0             	mov    %rdx,%rax
    5d71:	49 8b 14 d6          	mov    (%r14,%rdx,8),%rdx
    5d75:	ff e2                	jmp    *%rdx
    5d77:	48 8b 84 24 88 00 00 	mov    0x88(%rsp),%rax
    5d7e:	00 
    5d7f:	48 8d 15 1a 29 23 00 	lea    0x23291a(%rip),%rdx        # 2386a0 <current>
    5d86:	48 83 c0 10          	add    $0x10,%rax
    5d8a:	48 39 d0             	cmp    %rdx,%rax
    5d8d:	0f 83 81 0d 00 00    	jae    6b14 <main+0x37a4>
    5d93:	4c 89 e7             	mov    %r12,%rdi
    5d96:	48 8d b4 24 88 00 00 	lea    0x88(%rsp),%rsi
    5d9d:	00 
    5d9e:	48 83 eb 08          	sub    $0x8,%rbx
    5da2:	48 83 c5 02          	add    $0x2,%rbp
    5da6:	e8 95 13 00 00       	call   7140 <ncompile>
    5dab:	48 0f bf 55 fe       	movswq -0x2(%rbp),%rdx
    5db0:	4c 8b 23             	mov    (%rbx),%r12
    5db3:	48 89 d0             	mov    %rdx,%rax
    5db6:	49 8b 14 d6          	mov    (%r14,%rdx,8),%rdx
    5dba:	ff e2                	jmp    *%rdx
    5dbc:	48 8b bc 24 88 00 00 	mov    0x88(%rsp),%rdi
    5dc3:	00 
    5dc4:	4b 8d 04 24          	lea    (%r12,%r12,1),%rax
    5dc8:	48 8d 15 d1 28 23 00 	lea    0x2328d1(%rip),%rdx        # 2386a0 <current>
    5dcf:	48 01 f8             	add    %rdi,%rax
    5dd2:	48 39 d0             	cmp    %rdx,%rax
    5dd5:	0f 83 39 0d 00 00    	jae    6b14 <main+0x37a4>
    5ddb:	4c 89 e2             	mov    %r12,%rdx
    5dde:	31 f6                	xor    %esi,%esi
    5de0:	48 83 eb 08          	sub    $0x8,%rbx
    5de4:	48 83 c5 02          	add    $0x2,%rbp
    5de8:	e8 03 d4 ff ff       	call   31f0 <memset@plt>
    5ded:	48 0f bf 55 fe       	movswq -0x2(%rbp),%rdx
    5df2:	4c 01 a4 24 88 00 00 	add    %r12,0x88(%rsp)
    5df9:	00 
    5dfa:	4c 8b 23             	mov    (%rbx),%r12
    5dfd:	48 89 d0             	mov    %rdx,%rax
    5e00:	49 8b 14 d6          	mov    (%r14,%rdx,8),%rdx
    5e04:	ff e2                	jmp    *%rdx
    5e06:	48 0f bf 55 00       	movswq 0x0(%rbp),%rdx
    5e0b:	4c 89 23             	mov    %r12,(%rbx)
    5e0e:	48 83 c5 02          	add    $0x2,%rbp
    5e12:	48 83 c3 08          	add    $0x8,%rbx
    5e16:	4c 8d 25 83 28 23 00 	lea    0x232883(%rip),%r12        # 2386a0 <current>
    5e1d:	4c 2b a4 24 88 00 00 	sub    0x88(%rsp),%r12
    5e24:	00 
    5e25:	48 89 d0             	mov    %rdx,%rax
    5e28:	49 8b 14 d6          	mov    (%r14,%rdx,8),%rdx
    5e2c:	49 d1 fc             	sar    %r12
    5e2f:	ff e2                	jmp    *%rdx
    5e31:	48 0f bf 55 00       	movswq 0x0(%rbp),%rdx
    5e36:	4c 89 23             	mov    %r12,(%rbx)
    5e39:	48 83 c5 02          	add    $0x2,%rbp
    5e3d:	48 83 c3 08          	add    $0x8,%rbx
    5e41:	4c 8b a4 24 88 00 00 	mov    0x88(%rsp),%r12
    5e48:	00 
    5e49:	48 8d 05 50 28 03 00 	lea    0x32850(%rip),%rax        # 386a0 <code>
    5e50:	49 29 c4             	sub    %rax,%r12
    5e53:	48 89 d0             	mov    %rdx,%rax
    5e56:	49 8b 14 d6          	mov    (%r14,%rdx,8),%rdx
    5e5a:	49 d1 fc             	sar    %r12
    5e5d:	ff e2                	jmp    *%rdx
    5e5f:	48 0f bf 55 00       	movswq 0x0(%rbp),%rdx
    5e64:	4c 89 23             	mov    %r12,(%rbx)
    5e67:	48 83 c5 02          	add    $0x2,%rbp
    5e6b:	48 83 c3 08          	add    $0x8,%rbx
    5e6f:	4c 8b a4 24 88 00 00 	mov    0x88(%rsp),%r12
    5e76:	00 
    5e77:	48 89 d0             	mov    %rdx,%rax
    5e7a:	49 8b 14 d6          	mov    (%r14,%rdx,8),%rdx
    5e7e:	ff e2                	jmp    *%rdx
    5e80:	48 0f bf 55 00       	movswq 0x0(%rbp),%rdx
    5e85:	48 89 d8             	mov    %rbx,%rax
    5e88:	48 83 c3 08          	add    $0x8,%rbx
    5e8c:	48 83 c5 02          	add    $0x2,%rbp
    5e90:	4c 89 20             	mov    %r12,(%rax)
    5e93:	49 89 dc             	mov    %rbx,%r12
    5e96:	4c 2b 64 24 38       	sub    0x38(%rsp),%r12
    5e9b:	48 89 d0             	mov    %rdx,%rax
    5e9e:	49 8b 14 d6          	mov    (%r14,%rdx,8),%rdx
    5ea2:	49 c1 fc 03          	sar    $0x3,%r12
    5ea6:	49 83 ec 03          	sub    $0x3,%r12
    5eaa:	ff e2                	jmp    *%rdx
    5eac:	4c 89 e7             	mov    %r12,%rdi
    5eaf:	48 8d b4 24 a0 00 00 	lea    0xa0(%rsp),%rsi
    5eb6:	00 
    5eb7:	48 83 c3 08          	add    $0x8,%rbx
    5ebb:	48 83 c5 02          	add    $0x2,%rbp
    5ebf:	e8 6c 1a 00 00       	call   7930 <number>
    5ec4:	48 0f bf 55 fe       	movswq -0x2(%rbp),%rdx
    5ec9:	49 89 c4             	mov    %rax,%r12
    5ecc:	48 8b 84 24 a0 00 00 	mov    0xa0(%rsp),%rax
    5ed3:	00 
    5ed4:	48 89 43 f8          	mov    %rax,-0x8(%rbx)
    5ed8:	48 89 d0             	mov    %rdx,%rax
    5edb:	49 8b 14 d6          	mov    (%r14,%rdx,8),%rdx
    5edf:	ff e2                	jmp    *%rdx
    5ee1:	48 8b 73 f8          	mov    -0x8(%rbx),%rsi
    5ee5:	48 8d 94 24 b8 00 00 	lea    0xb8(%rsp),%rdx
    5eec:	00 
    5eed:	4c 89 e7             	mov    %r12,%rdi
    5ef0:	48 83 c5 02          	add    $0x2,%rbp
    5ef4:	e8 17 19 00 00       	call   7810 <findpair>
    5ef9:	48 0f bf 55 fe       	movswq -0x2(%rbp),%rdx
    5efe:	4c 0f bf e0          	movswq %ax,%r12
    5f02:	48 0f bf 84 24 b8 00 	movswq 0xb8(%rsp),%rax
    5f09:	00 00 
    5f0b:	48 89 43 f8          	mov    %rax,-0x8(%rbx)
    5f0f:	48 89 d0             	mov    %rdx,%rax
    5f12:	49 8b 14 d6          	mov    (%r14,%rdx,8),%rdx
    5f16:	ff e2                	jmp    *%rdx
    5f18:	48 8b 73 f8          	mov    -0x8(%rbx),%rsi
    5f1c:	48 83 eb 08          	sub    $0x8,%rbx
    5f20:	31 c0                	xor    %eax,%eax
    5f22:	80 3e 00             	cmpb   $0x0,(%rsi)
    5f25:	0f 85 9b 04 00 00    	jne    63c6 <main+0x3056>
    5f2b:	48 0f bf 55 00       	movswq 0x0(%rbp),%rdx
    5f30:	4c 0f bf e0          	movswq %ax,%r12
    5f34:	48 83 c5 02          	add    $0x2,%rbp
    5f38:	48 89 d0             	mov    %rdx,%rax
    5f3b:	49 8b 14 d6          	mov    (%r14,%rdx,8),%rdx
    5f3f:	ff e2                	jmp    *%rdx
    5f41:	4c 89 e7             	mov    %r12,%rdi
    5f44:	48 8d b4 24 90 00 00 	lea    0x90(%rsp),%rsi
    5f4b:	00 
    5f4c:	48 89 9c 24 90 00 00 	mov    %rbx,0x90(%rsp)
    5f53:	00 
    5f54:	48 83 c5 02          	add    $0x2,%rbp
    5f58:	e8 93 15 00 00       	call   74f0 <format>
    5f5d:	48 0f bf 55 fe       	movswq -0x2(%rbp),%rdx
    5f62:	48 8b 9c 24 90 00 00 	mov    0x90(%rsp),%rbx
    5f69:	00 
    5f6a:	49 89 c4             	mov    %rax,%r12
    5f6d:	48 89 d0             	mov    %rdx,%rax
    5f70:	49 8b 14 d6          	mov    (%r14,%rdx,8),%rdx
    5f74:	ff e2                	jmp    *%rdx
    5f76:	4c 8b 7b f8          	mov    -0x8(%rbx),%r15
    5f7a:	48 83 eb 08          	sub    $0x8,%rbx
    5f7e:	48 83 c5 02          	add    $0x2,%rbp
    5f82:	4c 89 ff             	mov    %r15,%rdi
    5f85:	4c 89 bc 24 a8 00 00 	mov    %r15,0xa8(%rsp)
    5f8c:	00 
    5f8d:	e8 3e d3 ff ff       	call   32d0 <strlen@plt>
    5f92:	4c 89 e7             	mov    %r12,%rdi
    5f95:	4c 89 fe             	mov    %r15,%rsi
    5f98:	89 c2                	mov    %eax,%edx
    5f9a:	e8 e1 0f 00 00       	call   6f80 <blurt>
    5f9f:	48 0f bf 55 fe       	movswq -0x2(%rbp),%rdx
    5fa4:	4c 63 e0             	movslq %eax,%r12
    5fa7:	48 89 d0             	mov    %rdx,%rax
    5faa:	49 8b 14 d6          	mov    (%r14,%rdx,8),%rdx
    5fae:	ff e2                	jmp    *%rdx
    5fb0:	4c 89 e7             	mov    %r12,%rdi
    5fb3:	48 83 c5 02          	add    $0x2,%rbp
    5fb7:	e8 24 0f 00 00       	call   6ee0 <slurp>
    5fbc:	48 0f bf 55 fe       	movswq -0x2(%rbp),%rdx
    5fc1:	49 89 c4             	mov    %rax,%r12
    5fc4:	48 89 d0             	mov    %rdx,%rax
    5fc7:	49 8b 14 d6          	mov    (%r14,%rdx,8),%rdx
    5fcb:	ff e2                	jmp    *%rdx
    5fcd:	4c 89 e7             	mov    %r12,%rdi
    5fd0:	48 83 eb 08          	sub    $0x8,%rbx
    5fd4:	48 83 c5 02          	add    $0x2,%rbp
    5fd8:	e8 53 d3 ff ff       	call   3330 <free@plt>
    5fdd:	48 0f bf 55 fe       	movswq -0x2(%rbp),%rdx
    5fe2:	4c 8b 23             	mov    (%rbx),%r12
    5fe5:	48 89 d0             	mov    %rdx,%rax
    5fe8:	49 8b 14 d6          	mov    (%r14,%rdx,8),%rdx
    5fec:	ff e2                	jmp    *%rdx
    5fee:	48 8b 7b f8          	mov    -0x8(%rbx),%rdi
    5ff2:	4c 89 e6             	mov    %r12,%rsi
    5ff5:	48 83 eb 08          	sub    $0x8,%rbx
    5ff9:	48 83 c5 02          	add    $0x2,%rbp
    5ffd:	e8 6e d1 ff ff       	call   3170 <realloc@plt>
    6002:	48 0f bf 55 fe       	movswq -0x2(%rbp),%rdx
    6007:	49 89 c4             	mov    %rax,%r12
    600a:	48 89 d0             	mov    %rdx,%rax
    600d:	49 8b 14 d6          	mov    (%r14,%rdx,8),%rdx
    6011:	ff e2                	jmp    *%rdx
    6013:	49 83 fc 07          	cmp    $0x7,%r12
    6017:	77 06                	ja     601f <main+0x2caf>
    6019:	41 bc 08 00 00 00    	mov    $0x8,%r12d
    601f:	4c 89 e6             	mov    %r12,%rsi
    6022:	bf 01 00 00 00       	mov    $0x1,%edi
    6027:	48 83 c5 02          	add    $0x2,%rbp
    602b:	e8 c0 d0 ff ff       	call   30f0 <calloc@plt>
    6030:	48 0f bf 55 fe       	movswq -0x2(%rbp),%rdx
    6035:	49 89 c4             	mov    %rax,%r12
    6038:	48 89 d0             	mov    %rdx,%rax
    603b:	49 8b 14 d6          	mov    (%r14,%rdx,8),%rdx
    603f:	ff e2                	jmp    *%rdx
    6041:	48 0f bf 55 00       	movswq 0x0(%rbp),%rdx
    6046:	4c 89 23             	mov    %r12,(%rbx)
    6049:	48 83 c5 02          	add    $0x2,%rbp
    604d:	48 83 c3 08          	add    $0x8,%rbx
    6051:	4c 8d 25 70 26 23 00 	lea    0x232670(%rip),%r12        # 2386c8 <on_error>
    6058:	48 89 d0             	mov    %rdx,%rax
    605b:	49 8b 14 d6          	mov    (%r14,%rdx,8),%rdx
    605f:	ff e2                	jmp    *%rdx
    6061:	48 0f bf 55 00       	movswq 0x0(%rbp),%rdx
    6066:	4c 89 23             	mov    %r12,(%rbx)
    6069:	48 83 c5 02          	add    $0x2,%rbp
    606d:	48 83 c3 08          	add    $0x8,%rbx
    6071:	4c 8d 25 40 26 23 00 	lea    0x232640(%rip),%r12        # 2386b8 <on_eval>
    6078:	48 89 d0             	mov    %rdx,%rax
    607b:	49 8b 14 d6          	mov    (%r14,%rdx,8),%rdx
    607f:	ff e2                	jmp    *%rdx
    6081:	48 0f bf 55 00       	movswq 0x0(%rbp),%rdx
    6086:	4c 89 23             	mov    %r12,(%rbx)
    6089:	48 83 c5 02          	add    $0x2,%rbp
    608d:	48 83 c3 08          	add    $0x8,%rbx
    6091:	4c 8d 25 28 26 23 00 	lea    0x232628(%rip),%r12        # 2386c0 <on_what>
    6098:	48 89 d0             	mov    %rdx,%rax
    609b:	49 8b 14 d6          	mov    (%r14,%rdx,8),%rdx
    609f:	ff e2                	jmp    *%rdx
    60a1:	48 0f bf 55 00       	movswq 0x0(%rbp),%rdx
    60a6:	4c 89 23             	mov    %r12,(%rbx)
    60a9:	48 83 c5 02          	add    $0x2,%rbp
    60ad:	48 83 c3 08          	add    $0x8,%rbx
    60b1:	4c 8d 25 18 26 23 00 	lea    0x232618(%rip),%r12        # 2386d0 <on_ok>
    60b8:	48 89 d0             	mov    %rdx,%rax
    60bb:	49 8b 14 d6          	mov    (%r14,%rdx,8),%rdx
    60bf:	ff e2                	jmp    *%rdx
    60c1:	4c 89 e7             	mov    %r12,%rdi
    60c4:	48 83 eb 08          	sub    $0x8,%rbx
    60c8:	48 83 c5 02          	add    $0x2,%rbp
    60cc:	e8 df cf ff ff       	call   30b0 <putenv@plt>
    60d1:	48 0f bf 55 fe       	movswq -0x2(%rbp),%rdx
    60d6:	4c 8b 23             	mov    (%rbx),%r12
    60d9:	48 89 d0             	mov    %rdx,%rax
    60dc:	49 8b 14 d6          	mov    (%r14,%rdx,8),%rdx
    60e0:	ff e2                	jmp    *%rdx
    60e2:	4c 89 e7             	mov    %r12,%rdi
    60e5:	48 83 c5 02          	add    $0x2,%rbp
    60e9:	e8 72 cf ff ff       	call   3060 <getenv@plt>
    60ee:	48 0f bf 55 fe       	movswq -0x2(%rbp),%rdx
    60f3:	49 89 c4             	mov    %rax,%r12
    60f6:	48 89 d0             	mov    %rdx,%rax
    60f9:	49 8b 14 d6          	mov    (%r14,%rdx,8),%rdx
    60fd:	ff e2                	jmp    *%rdx
    60ff:	4c 89 23             	mov    %r12,(%rbx)
    6102:	31 c0                	xor    %eax,%eax
    6104:	4c 8d 7b 08          	lea    0x8(%rbx),%r15
    6108:	48 83 c5 02          	add    $0x2,%rbp
    610c:	4c 89 fb             	mov    %r15,%rbx
    610f:	e8 8c 1a 00 00       	call   7ba0 <keyq>
    6114:	48 0f bf 55 fe       	movswq -0x2(%rbp),%rdx
    6119:	4c 63 e0             	movslq %eax,%r12
    611c:	48 89 d0             	mov    %rdx,%rax
    611f:	49 8b 14 d6          	mov    (%r14,%rdx,8),%rdx
    6123:	ff e2                	jmp    *%rdx
    6125:	4c 89 23             	mov    %r12,(%rbx)
    6128:	31 c0                	xor    %eax,%eax
    612a:	4c 8d 7b 08          	lea    0x8(%rbx),%r15
    612e:	48 83 c5 02          	add    $0x2,%rbp
    6132:	4c 89 fb             	mov    %r15,%rbx
    6135:	e8 06 1a 00 00       	call   7b40 <key>
    613a:	48 0f bf 55 fe       	movswq -0x2(%rbp),%rdx
    613f:	4c 63 e0             	movslq %eax,%r12
    6142:	48 89 d0             	mov    %rdx,%rax
    6145:	49 8b 14 d6          	mov    (%r14,%rdx,8),%rdx
    6149:	ff e2                	jmp    *%rdx
    614b:	48 8b 3d ce a0 00 00 	mov    0xa0ce(%rip),%rdi        # 10220 <stdout_current>
    6152:	48 83 eb 08          	sub    $0x8,%rbx
    6156:	44 88 64 24 7d       	mov    %r12b,0x7d(%rsp)
    615b:	48 83 c5 02          	add    $0x2,%rbp
    615f:	4c 8b 23             	mov    (%rbx),%r12
    6162:	e8 49 d1 ff ff       	call   32b0 <fileno@plt>
    6167:	ba 01 00 00 00       	mov    $0x1,%edx
    616c:	48 8d 74 24 7d       	lea    0x7d(%rsp),%rsi
    6171:	89 c7                	mov    %eax,%edi
    6173:	e8 88 cf ff ff       	call   3100 <write@plt>
    6178:	48 0f bf 55 fe       	movswq -0x2(%rbp),%rdx
    617d:	48 89 d0             	mov    %rdx,%rax
    6180:	49 8b 14 d6          	mov    (%r14,%rdx,8),%rdx
    6184:	ff e2                	jmp    *%rdx
    6186:	48 8b 73 f8          	mov    -0x8(%rbx),%rsi
    618a:	48 8b 7b f0          	mov    -0x10(%rbx),%rdi
    618e:	4c 89 a4 24 98 00 00 	mov    %r12,0x98(%rsp)
    6195:	00 
    6196:	48 8d 43 f8          	lea    -0x8(%rbx),%rax
    619a:	48 83 eb 10          	sub    $0x10,%rbx
    619e:	49 89 f4             	mov    %rsi,%r12
    61a1:	49 09 fc             	or     %rdi,%r12
    61a4:	74 18                	je     61be <main+0x2e4e>
    61a6:	48 85 f6             	test   %rsi,%rsi
    61a9:	0f 85 84 05 00 00    	jne    6733 <main+0x33c3>
    61af:	41 bc 01 00 00 00    	mov    $0x1,%r12d
    61b5:	48 85 ff             	test   %rdi,%rdi
    61b8:	0f 84 7a 05 00 00    	je     6738 <main+0x33c8>
    61be:	48 0f bf 55 00       	movswq 0x0(%rbp),%rdx
    61c3:	48 83 c5 02          	add    $0x2,%rbp
    61c7:	48 89 d0             	mov    %rdx,%rax
    61ca:	49 8b 14 d6          	mov    (%r14,%rdx,8),%rdx
    61ce:	ff e2                	jmp    *%rdx
    61d0:	4d 85 e4             	test   %r12,%r12
    61d3:	74 0b                	je     61e0 <main+0x2e70>
    61d5:	4c 89 e7             	mov    %r12,%rdi
    61d8:	e8 f3 d0 ff ff       	call   32d0 <strlen@plt>
    61dd:	49 89 c4             	mov    %rax,%r12
    61e0:	48 0f bf 55 00       	movswq 0x0(%rbp),%rdx
    61e5:	48 83 c5 02          	add    $0x2,%rbp
    61e9:	48 89 d0             	mov    %rdx,%rax
    61ec:	49 8b 14 d6          	mov    (%r14,%rdx,8),%rdx
    61f0:	ff e2                	jmp    *%rdx
    61f2:	48 0f bf 55 00       	movswq 0x0(%rbp),%rdx
    61f7:	4d 6b e4 18          	imul   $0x18,%r12,%r12
    61fb:	48 83 c5 02          	add    $0x2,%rbp
    61ff:	48 89 d0             	mov    %rdx,%rax
    6202:	49 8b 14 d6          	mov    (%r14,%rdx,8),%rdx
    6206:	4f 8d 64 25 08       	lea    0x8(%r13,%r12,1),%r12
    620b:	ff e2                	jmp    *%rdx
    620d:	48 0f bf 55 00       	movswq 0x0(%rbp),%rdx
    6212:	4d 6b e4 18          	imul   $0x18,%r12,%r12
    6216:	48 83 c5 02          	add    $0x2,%rbp
    621a:	48 89 d0             	mov    %rdx,%rax
    621d:	49 8b 14 d6          	mov    (%r14,%rdx,8),%rdx
    6221:	4f 8d 64 25 10       	lea    0x10(%r13,%r12,1),%r12
    6226:	ff e2                	jmp    *%rdx
    6228:	48 0f bf 55 00       	movswq 0x0(%rbp),%rdx
    622d:	48 8d 05 6c a4 00 00 	lea    0xa46c(%rip),%rax        # 106a0 <body>
    6234:	48 83 c5 02          	add    $0x2,%rbp
    6238:	4e 8d 24 e0          	lea    (%rax,%r12,8),%r12
    623c:	48 89 d0             	mov    %rdx,%rax
    623f:	49 8b 14 d6          	mov    (%r14,%rdx,8),%rdx
    6243:	ff e2                	jmp    *%rdx
    6245:	48 0f bf 55 00       	movswq 0x0(%rbp),%rdx
    624a:	4f 8d 24 e6          	lea    (%r14,%r12,8),%r12
    624e:	48 83 c5 02          	add    $0x2,%rbp
    6252:	48 89 d0             	mov    %rdx,%rax
    6255:	49 8b 14 d6          	mov    (%r14,%rdx,8),%rdx
    6259:	ff e2                	jmp    *%rdx
    625b:	48 0f bf 55 00       	movswq 0x0(%rbp),%rdx
    6260:	4d 6b e4 18          	imul   $0x18,%r12,%r12
    6264:	48 83 c5 02          	add    $0x2,%rbp
    6268:	48 89 d0             	mov    %rdx,%rax
    626b:	49 8b 14 d6          	mov    (%r14,%rdx,8),%rdx
    626f:	4d 01 ec             	add    %r13,%r12
    6272:	ff e2                	jmp    *%rdx
    6274:	48 0f bf 55 00       	movswq 0x0(%rbp),%rdx
    6279:	4d 6b e4 18          	imul   $0x18,%r12,%r12
    627d:	48 83 c5 02          	add    $0x2,%rbp
    6281:	48 89 d0             	mov    %rdx,%rax
    6284:	49 8b 14 d6          	mov    (%r14,%rdx,8),%rdx
    6288:	4d 01 ec             	add    %r13,%r12
    628b:	ff e2                	jmp    *%rdx
    628d:	48 0f bf 55 00       	movswq 0x0(%rbp),%rdx
    6292:	4d 29 ec             	sub    %r13,%r12
    6295:	48 83 c5 02          	add    $0x2,%rbp
    6299:	48 b8 ab aa aa aa aa 	movabs $0xaaaaaaaaaaaaaaab,%rax
    62a0:	aa aa aa 
    62a3:	49 c1 fc 03          	sar    $0x3,%r12
    62a7:	4c 0f af e0          	imul   %rax,%r12
    62ab:	48 89 d0             	mov    %rdx,%rax
    62ae:	49 8b 14 d6          	mov    (%r14,%rdx,8),%rdx
    62b2:	ff e2                	jmp    *%rdx
    62b4:	48 8b 7c 24 30       	mov    0x30(%rsp),%rdi
    62b9:	49 63 c7             	movslq %r15d,%rax
    62bc:	48 8b 7c c7 f8       	mov    -0x8(%rdi,%rax,8),%rdi
    62c1:	e8 1a 0c 00 00       	call   6ee0 <slurp>
    62c6:	48 89 c5             	mov    %rax,%rbp
    62c9:	48 85 c0             	test   %rax,%rax
    62cc:	74 49                	je     6317 <main+0x2fa7>
    62ce:	4c 89 e7             	mov    %r12,%rdi
    62d1:	4c 89 64 24 20       	mov    %r12,0x20(%rsp)
    62d6:	e8 f5 cf ff ff       	call   32d0 <strlen@plt>
    62db:	48 89 ef             	mov    %rbp,%rdi
    62de:	49 89 c4             	mov    %rax,%r12
    62e1:	e8 ea cf ff ff       	call   32d0 <strlen@plt>
    62e6:	48 8b 7c 24 20       	mov    0x20(%rsp),%rdi
    62eb:	49 8d 74 04 02       	lea    0x2(%r12,%rax,1),%rsi
    62f0:	e8 7b ce ff ff       	call   3170 <realloc@plt>
    62f5:	48 8d 35 57 2d 00 00 	lea    0x2d57(%rip),%rsi        # 9053 <_fini+0xf32>
    62fc:	49 89 c4             	mov    %rax,%r12
    62ff:	48 89 c7             	mov    %rax,%rdi
    6302:	48 89 44 24 20       	mov    %rax,0x20(%rsp)
    6307:	e8 04 ce ff ff       	call   3110 <strcat@plt>
    630c:	48 89 ee             	mov    %rbp,%rsi
    630f:	4c 89 e7             	mov    %r12,%rdi
    6312:	e8 f9 cd ff ff       	call   3110 <strcat@plt>
    6317:	48 89 ef             	mov    %rbp,%rdi
    631a:	e8 11 d0 ff ff       	call   3330 <free@plt>
    631f:	e9 15 d3 ff ff       	jmp    3639 <main+0x2c9>
    6324:	48 8b 05 b5 23 23 00 	mov    0x2323b5(%rip),%rax        # 2386e0 <source>
    632b:	0f b6 10             	movzbl (%rax),%edx
    632e:	80 fa 20             	cmp    $0x20,%dl
    6331:	7f 04                	jg     6337 <main+0x2fc7>
    6333:	84 d2                	test   %dl,%dl
    6335:	75 4e                	jne    6385 <main+0x3015>
    6337:	48 8b 7c 24 08       	mov    0x8(%rsp),%rdi
    633c:	48 0f bf d1          	movswq %cx,%rdx
    6340:	48 89 05 99 23 23 00 	mov    %rax,0x232399(%rip)        # 2386e0 <source>
    6347:	48 8d 35 f7 f0 ff ff 	lea    -0xf09(%rip),%rsi        # 5445 <main+0x20d5>
    634e:	49 8b 14 d6          	mov    (%r14,%rdx,8),%rdx
    6352:	89 c8                	mov    %ecx,%eax
    6354:	66 89 8c 24 bc 00 00 	mov    %cx,0xbc(%rsp)
    635b:	00 
    635c:	48 8d 4f 10          	lea    0x10(%rdi),%rcx
    6360:	48 89 6f 08          	mov    %rbp,0x8(%rdi)
    6364:	48 8d ac 24 be 00 00 	lea    0xbe(%rsp),%rbp
    636b:	00 
    636c:	66 c7 84 24 be 00 00 	movw   $0x5,0xbe(%rsp)
    6373:	00 05 00 
    6376:	48 89 4c 24 08       	mov    %rcx,0x8(%rsp)
    637b:	48 89 37             	mov    %rsi,(%rdi)
    637e:	ff e2                	jmp    *%rdx
    6380:	80 fa 20             	cmp    $0x20,%dl
    6383:	7f b2                	jg     6337 <main+0x2fc7>
    6385:	0f b6 50 01          	movzbl 0x1(%rax),%edx
    6389:	48 83 c0 01          	add    $0x1,%rax
    638d:	84 d2                	test   %dl,%dl
    638f:	75 ef                	jne    6380 <main+0x3010>
    6391:	eb a4                	jmp    6337 <main+0x2fc7>
    6393:	48 8b 44 24 10       	mov    0x10(%rsp),%rax
    6398:	48 8b 5c 24 48       	mov    0x48(%rsp),%rbx
    639d:	e9 70 ed ff ff       	jmp    5112 <main+0x1da2>
    63a2:	48 0f bf 55 00       	movswq 0x0(%rbp),%rdx
    63a7:	48 83 c5 02          	add    $0x2,%rbp
    63ab:	48 89 d0             	mov    %rdx,%rax
    63ae:	49 8b 14 d6          	mov    (%r14,%rdx,8),%rdx
    63b2:	ff e2                	jmp    *%rdx
    63b4:	48 0f bf 55 00       	movswq 0x0(%rbp),%rdx
    63b9:	48 83 c5 02          	add    $0x2,%rbp
    63bd:	48 89 d0             	mov    %rdx,%rax
    63c0:	49 8b 14 d6          	mov    (%r14,%rdx,8),%rdx
    63c4:	ff e2                	jmp    *%rdx
    63c6:	4c 89 e7             	mov    %r12,%rdi
    63c9:	e8 c2 09 00 00       	call   6d90 <find.part.0>
    63ce:	e9 58 fb ff ff       	jmp    5f2b <main+0x2bbb>
    63d3:	48 89 df             	mov    %rbx,%rdi
    63d6:	e8 f5 ce ff ff       	call   32d0 <strlen@plt>
    63db:	48 89 de             	mov    %rbx,%rsi
    63de:	4c 89 e7             	mov    %r12,%rdi
    63e1:	48 8d 50 01          	lea    0x1(%rax),%rdx
    63e5:	e8 56 cc ff ff       	call   3040 <memmove@plt>
    63ea:	e9 05 f9 ff ff       	jmp    5cf4 <main+0x2984>
    63ef:	4c 8b bc 24 88 00 00 	mov    0x88(%rsp),%r15
    63f6:	00 
    63f7:	4c 8d 63 10          	lea    0x10(%rbx),%r12
    63fb:	49 8d 47 fe          	lea    -0x2(%r15),%rax
    63ff:	48 89 43 08          	mov    %rax,0x8(%rbx)
    6403:	e9 cc f6 ff ff       	jmp    5ad4 <main+0x2764>
    6408:	48 8b 94 24 88 00 00 	mov    0x88(%rsp),%rdx
    640f:	00 
    6410:	4c 8d 63 10          	lea    0x10(%rbx),%r12
    6414:	48 89 53 08          	mov    %rdx,0x8(%rbx)
    6418:	e9 cc f5 ff ff       	jmp    59e9 <main+0x2679>
    641d:	48 0f bf 45 00       	movswq 0x0(%rbp),%rax
    6422:	48 01 e8             	add    %rbp,%rax
    6425:	e9 cb e6 ff ff       	jmp    4af5 <main+0x1785>
    642a:	48 0f bf 0a          	movswq (%rdx),%rcx
    642e:	48 8d 3d fb eb ff ff 	lea    -0x1405(%rip),%rdi        # 5030 <main+0x1cc0>
    6435:	48 89 ca             	mov    %rcx,%rdx
    6438:	49 39 3c ce          	cmp    %rdi,(%r14,%rcx,8)
    643c:	0f 85 de f6 ff ff    	jne    5b20 <main+0x27b0>
    6442:	48 8d 48 02          	lea    0x2(%rax),%rcx
    6446:	48 89 8c 24 88 00 00 	mov    %rcx,0x88(%rsp)
    644d:	00 
    644e:	66 89 10             	mov    %dx,(%rax)
    6451:	66 c7 40 fe 04 00    	movw   $0x4,-0x2(%rax)
    6457:	e9 d6 f6 ff ff       	jmp    5b32 <main+0x27c2>
    645c:	48 8d b4 24 88 00 00 	lea    0x88(%rsp),%rsi
    6463:	00 
    6464:	bf 76 00 00 00       	mov    $0x76,%edi
    6469:	4c 8d 63 08          	lea    0x8(%rbx),%r12
    646d:	48 89 74 24 50       	mov    %rsi,0x50(%rsp)
    6472:	e8 69 0b 00 00       	call   6fe0 <compile>
    6477:	48 8b 74 24 50       	mov    0x50(%rsp),%rsi
    647c:	83 cf ff             	or     $0xffffffff,%edi
    647f:	e8 5c 0b 00 00       	call   6fe0 <compile>
    6484:	48 8b 74 24 50       	mov    0x50(%rsp),%rsi
    6489:	e9 f8 f4 ff ff       	jmp    5986 <main+0x2616>
    648e:	48 8b 4b f8          	mov    -0x8(%rbx),%rcx
    6492:	48 8b 94 24 88 00 00 	mov    0x88(%rsp),%rdx
    6499:	00 
    649a:	48 8d 43 f8          	lea    -0x8(%rbx),%rax
    649e:	48 29 ca             	sub    %rcx,%rdx
    64a1:	66 89 11             	mov    %dx,(%rcx)
    64a4:	48 89 c3             	mov    %rax,%rbx
    64a7:	4c 8d 78 f8          	lea    -0x8(%rax),%r15
    64ab:	48 83 2d 25 22 23 00 	subq   $0x1,0x232225(%rip)        # 2386d8 <mode>
    64b2:	01 
    64b3:	0f 85 83 f4 ff ff    	jne    593c <main+0x25cc>
    64b9:	bf 02 00 00 00       	mov    $0x2,%edi
    64be:	48 8d b4 24 88 00 00 	lea    0x88(%rsp),%rsi
    64c5:	00 
    64c6:	e8 15 0b 00 00       	call   6fe0 <compile>
    64cb:	48 8b 44 24 08       	mov    0x8(%rsp),%rax
    64d0:	48 8b 7c 24 18       	mov    0x18(%rsp),%rdi
    64d5:	48 89 28             	mov    %rbp,(%rax)
    64d8:	48 83 c0 20          	add    $0x20,%rax
    64dc:	48 89 78 e8          	mov    %rdi,-0x18(%rax)
    64e0:	48 8b 6b f8          	mov    -0x8(%rbx),%rbp
    64e4:	4c 89 fb             	mov    %r15,%rbx
    64e7:	49 83 ef 08          	sub    $0x8,%r15
    64eb:	48 89 44 24 08       	mov    %rax,0x8(%rsp)
    64f0:	e9 47 f4 ff ff       	jmp    593c <main+0x25cc>
    64f5:	4c 89 e7             	mov    %r12,%rdi
    64f8:	e8 d3 cd ff ff       	call   32d0 <strlen@plt>
    64fd:	48 8b 3d 1c 9d 00 00 	mov    0x9d1c(%rip),%rdi        # 10220 <stdout_current>
    6504:	49 89 c7             	mov    %rax,%r15
    6507:	e8 a4 cd ff ff       	call   32b0 <fileno@plt>
    650c:	4c 89 fa             	mov    %r15,%rdx
    650f:	4c 89 e6             	mov    %r12,%rsi
    6512:	89 c7                	mov    %eax,%edi
    6514:	e8 e7 cb ff ff       	call   3100 <write@plt>
    6519:	e9 16 f2 ff ff       	jmp    5734 <main+0x23c4>
    651e:	48 8b 3d 03 9d 00 00 	mov    0x9d03(%rip),%rdi        # 10228 <stdin_current>
    6525:	4c 8d bc 24 c0 00 00 	lea    0xc0(%rsp),%r15
    652c:	00 
    652d:	e8 7e cd ff ff       	call   32b0 <fileno@plt>
    6532:	4c 89 fe             	mov    %r15,%rsi
    6535:	89 c7                	mov    %eax,%edi
    6537:	e8 e4 cc ff ff       	call   3220 <tcgetattr@plt>
    653c:	48 8d bc 24 00 01 00 	lea    0x100(%rsp),%rdi
    6543:	00 
    6544:	b9 0f 00 00 00       	mov    $0xf,%ecx
    6549:	4c 89 fe             	mov    %r15,%rsi
    654c:	f3 a5                	rep movsl %ds:(%rsi),%es:(%rdi)
    654e:	48 8b 3d d3 9c 00 00 	mov    0x9cd3(%rip),%rdi        # 10228 <stdin_current>
    6555:	66 c7 84 24 16 01 00 	movw   $0x100,0x116(%rsp)
    655c:	00 00 01 
    655f:	83 a4 24 0c 01 00 00 	andl   $0xfffffff5,0x10c(%rsp)
    6566:	f5 
    6567:	e8 44 cd ff ff       	call   32b0 <fileno@plt>
    656c:	48 8d 94 24 00 01 00 	lea    0x100(%rsp),%rdx
    6573:	00 
    6574:	31 f6                	xor    %esi,%esi
    6576:	89 c7                	mov    %eax,%edi
    6578:	e8 93 cd ff ff       	call   3310 <tcsetattr@plt>
    657d:	c7 44 24 68 01 00 00 	movl   $0x1,0x68(%rsp)
    6584:	00 
    6585:	e9 a5 ef ff ff       	jmp    552f <main+0x21bf>
    658a:	4c 8d 3d d2 2a 00 00 	lea    0x2ad2(%rip),%r15        # 9063 <_fini+0xf42>
    6591:	48 8d 35 f6 2a 00 00 	lea    0x2af6(%rip),%rsi        # 908e <_fini+0xf6d>
    6598:	4c 89 ff             	mov    %r15,%rdi
    659b:	e8 30 cc ff ff       	call   31d0 <fopen@plt>
    65a0:	48 8d 35 6e 2a 00 00 	lea    0x2a6e(%rip),%rsi        # 9015 <_fini+0xef4>
    65a7:	4c 89 ff             	mov    %r15,%rdi
    65aa:	48 89 05 77 9c 00 00 	mov    %rax,0x9c77(%rip)        # 10228 <stdin_current>
    65b1:	e8 1a cc ff ff       	call   31d0 <fopen@plt>
    65b6:	48 89 c7             	mov    %rax,%rdi
    65b9:	48 89 05 60 9c 00 00 	mov    %rax,0x9c60(%rip)        # 10220 <stdout_current>
    65c0:	e8 eb cc ff ff       	call   32b0 <fileno@plt>
    65c5:	ba 08 00 00 00       	mov    $0x8,%edx
    65ca:	48 8d 35 9b 2a 00 00 	lea    0x2a9b(%rip),%rsi        # 906c <_fini+0xf4b>
    65d1:	89 c7                	mov    %eax,%edi
    65d3:	e8 28 cb ff ff       	call   3100 <write@plt>
    65d8:	c7 44 24 2c 01 00 00 	movl   $0x1,0x2c(%rsp)
    65df:	00 
    65e0:	e9 2d ef ff ff       	jmp    5512 <main+0x21a2>
    65e5:	48 8b 44 24 10       	mov    0x10(%rsp),%rax
    65ea:	e9 23 eb ff ff       	jmp    5112 <main+0x1da2>
    65ef:	e8 0c cd ff ff       	call   3300 <setsid@plt>
    65f4:	49 0f bf d4          	movswq %r12w,%rdx
    65f8:	4c 8b 63 f8          	mov    -0x8(%rbx),%r12
    65fc:	48 8b 5c 24 60       	mov    0x60(%rsp),%rbx
    6601:	48 89 d0             	mov    %rdx,%rax
    6604:	49 8b 14 d6          	mov    (%r14,%rdx,8),%rdx
    6608:	66 c7 05 f7 89 00 00 	movw   $0x1,0x89f7(%rip)        # f008 <init>
    660f:	01 00 
    6611:	48 8d 2d f0 89 00 00 	lea    0x89f0(%rip),%rbp        # f008 <init>
    6618:	48 89 5c 24 10       	mov    %rbx,0x10(%rsp)
    661d:	48 8b 5c 24 58       	mov    0x58(%rsp),%rbx
    6622:	48 89 5c 24 08       	mov    %rbx,0x8(%rsp)
    6627:	48 8b 5c 24 48       	mov    0x48(%rsp),%rbx
    662c:	ff e2                	jmp    *%rdx
    662e:	48 8b 3d f3 9b 00 00 	mov    0x9bf3(%rip),%rdi        # 10228 <stdin_current>
    6635:	e8 76 cc ff ff       	call   32b0 <fileno@plt>
    663a:	48 8d 94 24 c0 00 00 	lea    0xc0(%rsp),%rdx
    6641:	00 
    6642:	31 f6                	xor    %esi,%esi
    6644:	89 c7                	mov    %eax,%edi
    6646:	e8 c5 cc ff ff       	call   3310 <tcsetattr@plt>
    664b:	e9 98 ed ff ff       	jmp    53e8 <main+0x2078>
    6650:	48 8b 3d c9 9b 00 00 	mov    0x9bc9(%rip),%rdi        # 10220 <stdout_current>
    6657:	e8 54 cc ff ff       	call   32b0 <fileno@plt>
    665c:	ba 08 00 00 00       	mov    $0x8,%edx
    6661:	48 8d 35 0d 2a 00 00 	lea    0x2a0d(%rip),%rsi        # 9075 <_fini+0xf54>
    6668:	89 c7                	mov    %eax,%edi
    666a:	e8 91 ca ff ff       	call   3100 <write@plt>
    666f:	48 8b 3d b2 9b 00 00 	mov    0x9bb2(%rip),%rdi        # 10228 <stdin_current>
    6676:	e8 95 cb ff ff       	call   3210 <fclose@plt>
    667b:	48 8b 3d 9e 9b 00 00 	mov    0x9b9e(%rip),%rdi        # 10220 <stdout_current>
    6682:	e8 89 cb ff ff       	call   3210 <fclose@plt>
    6687:	48 8b 05 fa 85 00 00 	mov    0x85fa(%rip),%rax        # ec88 <stdin>
    668e:	48 89 05 93 9b 00 00 	mov    %rax,0x9b93(%rip)        # 10228 <stdin_current>
    6695:	48 8b 05 e4 85 00 00 	mov    0x85e4(%rip),%rax        # ec80 <stdout>
    669c:	48 89 05 7d 9b 00 00 	mov    %rax,0x9b7d(%rip)        # 10220 <stdout_current>
    66a3:	e9 1b ed ff ff       	jmp    53c3 <main+0x2053>
    66a8:	41 80 7f 01 22       	cmpb   $0x22,0x1(%r15)
    66ad:	0f 85 f2 ed ff ff    	jne    54a5 <main+0x2135>
    66b3:	4c 89 ff             	mov    %r15,%rdi
    66b6:	e8 15 cc ff ff       	call   32d0 <strlen@plt>
    66bb:	49 89 c0             	mov    %rax,%r8
    66be:	48 8b 05 1b 20 23 00 	mov    0x23201b(%rip),%rax        # 2386e0 <source>
    66c5:	48 83 c0 01          	add    $0x1,%rax
    66c9:	4c 29 c0             	sub    %r8,%rax
    66cc:	48 89 05 0d 20 23 00 	mov    %rax,0x23200d(%rip)        # 2386e0 <source>
    66d3:	31 c0                	xor    %eax,%eax
    66d5:	e8 56 0c 00 00       	call   7330 <sparse>
    66da:	48 83 3d f6 1f 23 00 	cmpq   $0x0,0x231ff6(%rip)        # 2386d8 <mode>
    66e1:	00 
    66e2:	49 89 c7             	mov    %rax,%r15
    66e5:	0f 85 a5 03 00 00    	jne    6a90 <main+0x3720>
    66eb:	4c 89 23             	mov    %r12,(%rbx)
    66ee:	49 89 c4             	mov    %rax,%r12
    66f1:	48 8b 44 24 08       	mov    0x8(%rsp),%rax
    66f6:	48 83 c3 08          	add    $0x8,%rbx
    66fa:	48 8d 3d 06 ed ff ff 	lea    -0x12fa(%rip),%rdi        # 5407 <main+0x2097>
    6701:	48 8b 15 08 22 01 00 	mov    0x12208(%rip),%rdx        # 18910 <call+0x270>
    6708:	c7 84 24 bc 00 00 00 	movl   $0x5004e,0xbc(%rsp)
    670f:	4e 00 05 00 
    6713:	48 89 68 08          	mov    %rbp,0x8(%rax)
    6717:	48 83 c0 10          	add    $0x10,%rax
    671b:	48 8d ac 24 be 00 00 	lea    0xbe(%rsp),%rbp
    6722:	00 
    6723:	48 89 78 f0          	mov    %rdi,-0x10(%rax)
    6727:	48 89 44 24 08       	mov    %rax,0x8(%rsp)
    672c:	b8 4e 00 00 00       	mov    $0x4e,%eax
    6731:	ff e2                	jmp    *%rdx
    6733:	48 85 ff             	test   %rdi,%rdi
    6736:	75 0d                	jne    6745 <main+0x33d5>
    6738:	49 83 cc ff          	or     $0xffffffffffffffff,%r12
    673c:	48 85 f6             	test   %rsi,%rsi
    673f:	0f 85 79 fa ff ff    	jne    61be <main+0x2e4e>
    6745:	48 8b 94 24 98 00 00 	mov    0x98(%rsp),%rdx
    674c:	00 
    674d:	48 85 d2             	test   %rdx,%rdx
    6750:	0f 84 03 02 00 00    	je     6959 <main+0x35e9>
    6756:	e8 f5 c9 ff ff       	call   3150 <strncmp@plt>
    675b:	4c 63 e0             	movslq %eax,%r12
    675e:	e9 5b fa ff ff       	jmp    61be <main+0x2e4e>
    6763:	48 8b 3d be 9a 00 00 	mov    0x9abe(%rip),%rdi        # 10228 <stdin_current>
    676a:	e8 41 cb ff ff       	call   32b0 <fileno@plt>
    676f:	48 8d 94 24 c0 00 00 	lea    0xc0(%rsp),%rdx
    6776:	00 
    6777:	31 f6                	xor    %esi,%esi
    6779:	89 c7                	mov    %eax,%edi
    677b:	e8 90 cb ff ff       	call   3310 <tcsetattr@plt>
    6780:	e9 1c e9 ff ff       	jmp    50a1 <main+0x1d31>
    6785:	48 8b 3d 94 9a 00 00 	mov    0x9a94(%rip),%rdi        # 10220 <stdout_current>
    678c:	e8 1f cb ff ff       	call   32b0 <fileno@plt>
    6791:	ba 08 00 00 00       	mov    $0x8,%edx
    6796:	48 8d 35 d8 28 00 00 	lea    0x28d8(%rip),%rsi        # 9075 <_fini+0xf54>
    679d:	89 c7                	mov    %eax,%edi
    679f:	e8 5c c9 ff ff       	call   3100 <write@plt>
    67a4:	e9 03 e9 ff ff       	jmp    50ac <main+0x1d3c>
    67a9:	41 80 3f 00          	cmpb   $0x0,(%r15)
    67ad:	48 8b 3d f4 1e 23 00 	mov    0x231ef4(%rip),%rdi        # 2386a8 <normal>
    67b4:	74 5b                	je     6811 <main+0x34a1>
    67b6:	4c 89 fe             	mov    %r15,%rsi
    67b9:	e8 d2 05 00 00       	call   6d90 <find.part.0>
    67be:	66 85 c0             	test   %ax,%ax
    67c1:	74 4e                	je     6811 <main+0x34a1>
    67c3:	48 83 3d 0d 1f 23 00 	cmpq   $0x0,0x231f0d(%rip)        # 2386d8 <mode>
    67ca:	00 
    67cb:	48 0f bf f8          	movswq %ax,%rdi
    67cf:	0f 85 2d 03 00 00    	jne    6b02 <main+0x3792>
    67d5:	48 8b 74 24 08       	mov    0x8(%rsp),%rsi
    67da:	49 8b 14 fe          	mov    (%r14,%rdi,8),%rdx
    67de:	48 8d 0d 18 ed ff ff 	lea    -0x12e8(%rip),%rcx        # 54fd <main+0x218d>
    67e5:	66 89 84 24 bc 00 00 	mov    %ax,0xbc(%rsp)
    67ec:	00 
    67ed:	66 c7 84 24 be 00 00 	movw   $0x5,0xbe(%rsp)
    67f4:	00 05 00 
    67f7:	48 8d 7e 10          	lea    0x10(%rsi),%rdi
    67fb:	48 89 6e 08          	mov    %rbp,0x8(%rsi)
    67ff:	48 8d ac 24 be 00 00 	lea    0xbe(%rsp),%rbp
    6806:	00 
    6807:	48 89 0e             	mov    %rcx,(%rsi)
    680a:	48 89 7c 24 08       	mov    %rdi,0x8(%rsp)
    680f:	ff e2                	jmp    *%rdx
    6811:	48 8d b4 24 98 00 00 	lea    0x98(%rsp),%rsi
    6818:	00 
    6819:	4c 89 ff             	mov    %r15,%rdi
    681c:	e8 0f 11 00 00       	call   7930 <number>
    6821:	48 85 c0             	test   %rax,%rax
    6824:	0f 85 b1 00 00 00    	jne    68db <main+0x356b>
    682a:	41 0f b6 07          	movzbl (%r15),%eax
    682e:	3c 27                	cmp    $0x27,%al
    6830:	0f 84 e2 01 00 00    	je     6a18 <main+0x36a8>
    6836:	3c 60                	cmp    $0x60,%al
    6838:	0f 84 8d 01 00 00    	je     69cb <main+0x365b>
    683e:	48 8b 3d 63 1e 23 00 	mov    0x231e63(%rip),%rdi        # 2386a8 <normal>
    6845:	48 8d 54 24 7e       	lea    0x7e(%rsp),%rdx
    684a:	4c 89 fe             	mov    %r15,%rsi
    684d:	e8 be 0f 00 00       	call   7810 <findpair>
    6852:	66 85 c0             	test   %ax,%ax
    6855:	0f 84 0b 01 00 00    	je     6966 <main+0x35f6>
    685b:	48 83 3d 75 1e 23 00 	cmpq   $0x0,0x231e75(%rip)        # 2386d8 <mode>
    6862:	00 
    6863:	48 0f bf f8          	movswq %ax,%rdi
    6867:	0f 85 00 03 00 00    	jne    6b6d <main+0x37fd>
    686d:	48 8b 4c 24 08       	mov    0x8(%rsp),%rcx
    6872:	49 8b 14 fe          	mov    (%r14,%rdi,8),%rdx
    6876:	48 8d 35 58 e9 ff ff 	lea    -0x16a8(%rip),%rsi        # 51d5 <main+0x1e65>
    687d:	66 89 84 24 bc 00 00 	mov    %ax,0xbc(%rsp)
    6884:	00 
    6885:	66 c7 84 24 be 00 00 	movw   $0x5,0xbe(%rsp)
    688c:	00 05 00 
    688f:	48 8d 79 10          	lea    0x10(%rcx),%rdi
    6893:	48 89 69 08          	mov    %rbp,0x8(%rcx)
    6897:	48 8d ac 24 be 00 00 	lea    0xbe(%rsp),%rbp
    689e:	00 
    689f:	48 89 31             	mov    %rsi,(%rcx)
    68a2:	48 89 7c 24 08       	mov    %rdi,0x8(%rsp)
    68a7:	ff e2                	jmp    *%rdx
    68a9:	4c 89 ff             	mov    %r15,%rdi
    68ac:	e8 1f ca ff ff       	call   32d0 <strlen@plt>
    68b1:	48 29 05 28 1e 23 00 	sub    %rax,0x231e28(%rip)        # 2386e0 <source>
    68b8:	31 c0                	xor    %eax,%eax
    68ba:	e8 71 0a 00 00       	call   7330 <sparse>
    68bf:	48 83 3d 11 1e 23 00 	cmpq   $0x0,0x231e11(%rip)        # 2386d8 <mode>
    68c6:	00 
    68c7:	49 89 c7             	mov    %rax,%r15
    68ca:	75 31                	jne    68fd <main+0x358d>
    68cc:	4c 89 23             	mov    %r12,(%rbx)
    68cf:	49 89 c4             	mov    %rax,%r12
    68d2:	48 83 c3 08          	add    $0x8,%rbx
    68d6:	e9 75 e8 ff ff       	jmp    5150 <main+0x1de0>
    68db:	48 83 3d f5 1d 23 00 	cmpq   $0x0,0x231df5(%rip)        # 2386d8 <mode>
    68e2:	00 
    68e3:	0f 85 01 01 00 00    	jne    69ea <main+0x367a>
    68e9:	4c 89 23             	mov    %r12,(%rbx)
    68ec:	48 83 c3 08          	add    $0x8,%rbx
    68f0:	4c 8b a4 24 98 00 00 	mov    0x98(%rsp),%r12
    68f7:	00 
    68f8:	e9 53 e8 ff ff       	jmp    5150 <main+0x1de0>
    68fd:	48 8d b4 24 88 00 00 	lea    0x88(%rsp),%rsi
    6904:	00 
    6905:	bf 78 00 00 00       	mov    $0x78,%edi
    690a:	48 89 74 24 50       	mov    %rsi,0x50(%rsp)
    690f:	e8 cc 06 00 00       	call   6fe0 <compile>
    6914:	48 8b 74 24 50       	mov    0x50(%rsp),%rsi
    6919:	4c 89 ff             	mov    %r15,%rdi
    691c:	e8 7f 08 00 00       	call   71a0 <scompile>
    6921:	e9 2a e8 ff ff       	jmp    5150 <main+0x1de0>
    6926:	48 8d b4 24 88 00 00 	lea    0x88(%rsp),%rsi
    692d:	00 
    692e:	bf 7c 00 00 00       	mov    $0x7c,%edi
    6933:	4c 89 7c 24 50       	mov    %r15,0x50(%rsp)
    6938:	e8 a3 06 00 00       	call   6fe0 <compile>
    693d:	48 8b 4b f8          	mov    -0x8(%rbx),%rcx
    6941:	48 8b 44 24 50       	mov    0x50(%rsp),%rax
    6946:	48 8b 94 24 88 00 00 	mov    0x88(%rsp),%rdx
    694d:	00 
    694e:	48 29 ca             	sub    %rcx,%rdx
    6951:	66 89 11             	mov    %dx,(%rcx)
    6954:	e9 4b fb ff ff       	jmp    64a4 <main+0x3134>
    6959:	e8 02 c9 ff ff       	call   3260 <strcmp@plt>
    695e:	4c 63 e0             	movslq %eax,%r12
    6961:	e9 58 f8 ff ff       	jmp    61be <main+0x2e4e>
    6966:	48 83 3d 52 1d 23 00 	cmpq   $0x0,0x231d52(%rip)        # 2386c0 <on_what>
    696d:	00 
    696e:	48 8d 4b 08          	lea    0x8(%rbx),%rcx
    6972:	4c 89 23             	mov    %r12,(%rbx)
    6975:	0f 84 05 01 00 00    	je     6a80 <main+0x3710>
    697b:	48 8b 15 3e 1d 23 00 	mov    0x231d3e(%rip),%rdx        # 2386c0 <on_what>
    6982:	48 8b 5c 24 08       	mov    0x8(%rsp),%rbx
    6987:	4d 89 fc             	mov    %r15,%r12
    698a:	48 8d 3d a4 e7 ff ff 	lea    -0x185c(%rip),%rdi        # 5135 <main+0x1dc5>
    6991:	66 c7 84 24 be 00 00 	movw   $0x5,0xbe(%rsp)
    6998:	00 05 00 
    699b:	66 89 94 24 bc 00 00 	mov    %dx,0xbc(%rsp)
    69a2:	00 
    69a3:	89 d0                	mov    %edx,%eax
    69a5:	48 0f bf d2          	movswq %dx,%rdx
    69a9:	48 83 c3 10          	add    $0x10,%rbx
    69ad:	49 8b 14 d6          	mov    (%r14,%rdx,8),%rdx
    69b1:	48 89 6b f8          	mov    %rbp,-0x8(%rbx)
    69b5:	48 8d ac 24 be 00 00 	lea    0xbe(%rsp),%rbp
    69bc:	00 
    69bd:	48 89 7b f0          	mov    %rdi,-0x10(%rbx)
    69c1:	48 89 5c 24 08       	mov    %rbx,0x8(%rsp)
    69c6:	48 89 cb             	mov    %rcx,%rbx
    69c9:	ff e2                	jmp    *%rdx
    69cb:	48 83 3d 05 1d 23 00 	cmpq   $0x0,0x231d05(%rip)        # 2386d8 <mode>
    69d2:	00 
    69d3:	0f 85 fe 00 00 00    	jne    6ad7 <main+0x3767>
    69d9:	4c 89 23             	mov    %r12,(%rbx)
    69dc:	48 83 c3 08          	add    $0x8,%rbx
    69e0:	4d 0f be 67 01       	movsbq 0x1(%r15),%r12
    69e5:	e9 66 e7 ff ff       	jmp    5150 <main+0x1de0>
    69ea:	48 8d b4 24 88 00 00 	lea    0x88(%rsp),%rsi
    69f1:	00 
    69f2:	bf 77 00 00 00       	mov    $0x77,%edi
    69f7:	48 89 74 24 50       	mov    %rsi,0x50(%rsp)
    69fc:	e8 df 05 00 00       	call   6fe0 <compile>
    6a01:	48 8b 74 24 50       	mov    0x50(%rsp),%rsi
    6a06:	48 8b bc 24 98 00 00 	mov    0x98(%rsp),%rdi
    6a0d:	00 
    6a0e:	e8 2d 07 00 00       	call   7140 <ncompile>
    6a13:	e9 38 e7 ff ff       	jmp    5150 <main+0x1de0>
    6a18:	41 80 7f 01 00       	cmpb   $0x0,0x1(%r15)
    6a1d:	48 8b 3d 8c 1c 23 00 	mov    0x231c8c(%rip),%rdi        # 2386b0 <macro>
    6a24:	0f 84 3c ff ff ff    	je     6966 <main+0x35f6>
    6a2a:	49 8d 77 01          	lea    0x1(%r15),%rsi
    6a2e:	48 89 74 24 50       	mov    %rsi,0x50(%rsp)
    6a33:	e8 58 03 00 00       	call   6d90 <find.part.0>
    6a38:	48 8b 74 24 50       	mov    0x50(%rsp),%rsi
    6a3d:	66 85 c0             	test   %ax,%ax
    6a40:	75 20                	jne    6a62 <main+0x36f2>
    6a42:	41 80 7f 01 00       	cmpb   $0x0,0x1(%r15)
    6a47:	48 8b 3d 5a 1c 23 00 	mov    0x231c5a(%rip),%rdi        # 2386a8 <normal>
    6a4e:	0f 84 12 ff ff ff    	je     6966 <main+0x35f6>
    6a54:	e8 37 03 00 00       	call   6d90 <find.part.0>
    6a59:	66 85 c0             	test   %ax,%ax
    6a5c:	0f 84 04 ff ff ff    	je     6966 <main+0x35f6>
    6a62:	48 83 3d 6e 1c 23 00 	cmpq   $0x0,0x231c6e(%rip)        # 2386d8 <mode>
    6a69:	00 
    6a6a:	0f 85 23 01 00 00    	jne    6b93 <main+0x3823>
    6a70:	4c 89 23             	mov    %r12,(%rbx)
    6a73:	4c 0f bf e0          	movswq %ax,%r12
    6a77:	48 83 c3 08          	add    $0x8,%rbx
    6a7b:	e9 d0 e6 ff ff       	jmp    5150 <main+0x1de0>
    6a80:	48 8b 44 24 10       	mov    0x10(%rsp),%rax
    6a85:	45 31 e4             	xor    %r12d,%r12d
    6a88:	48 89 cb             	mov    %rcx,%rbx
    6a8b:	e9 82 e6 ff ff       	jmp    5112 <main+0x1da2>
    6a90:	48 8d b4 24 88 00 00 	lea    0x88(%rsp),%rsi
    6a97:	00 
    6a98:	bf 78 00 00 00       	mov    $0x78,%edi
    6a9d:	48 89 74 24 50       	mov    %rsi,0x50(%rsp)
    6aa2:	e8 39 05 00 00       	call   6fe0 <compile>
    6aa7:	48 8b 74 24 50       	mov    0x50(%rsp),%rsi
    6aac:	4c 89 ff             	mov    %r15,%rdi
    6aaf:	e8 ec 06 00 00       	call   71a0 <scompile>
    6ab4:	48 8b 74 24 50       	mov    0x50(%rsp),%rsi
    6ab9:	bf 4e 00 00 00       	mov    $0x4e,%edi
    6abe:	e8 1d 05 00 00       	call   6fe0 <compile>
    6ac3:	48 8b 74 24 50       	mov    0x50(%rsp),%rsi
    6ac8:	bf 5b 00 00 00       	mov    $0x5b,%edi
    6acd:	e8 0e 05 00 00       	call   6fe0 <compile>
    6ad2:	e9 79 e6 ff ff       	jmp    5150 <main+0x1de0>
    6ad7:	48 8d b4 24 88 00 00 	lea    0x88(%rsp),%rsi
    6ade:	00 
    6adf:	bf 77 00 00 00       	mov    $0x77,%edi
    6ae4:	48 89 74 24 50       	mov    %rsi,0x50(%rsp)
    6ae9:	e8 f2 04 00 00       	call   6fe0 <compile>
    6aee:	49 0f be 7f 01       	movsbq 0x1(%r15),%rdi
    6af3:	48 8b 74 24 50       	mov    0x50(%rsp),%rsi
    6af8:	e8 43 06 00 00       	call   7140 <ncompile>
    6afd:	e9 4e e6 ff ff       	jmp    5150 <main+0x1de0>
    6b02:	48 8d b4 24 88 00 00 	lea    0x88(%rsp),%rsi
    6b09:	00 
    6b0a:	e8 d1 04 00 00       	call   6fe0 <compile>
    6b0f:	e9 3c e6 ff ff       	jmp    5150 <main+0x1de0>
    6b14:	48 8b 2d 75 81 00 00 	mov    0x8175(%rip),%rbp        # ec90 <stderr>
    6b1b:	ba 13 00 00 00       	mov    $0x13,%edx
    6b20:	be 01 00 00 00       	mov    $0x1,%esi
    6b25:	48 8d 3d d7 24 00 00 	lea    0x24d7(%rip),%rdi        # 9003 <_fini+0xee2>
    6b2c:	48 89 e9             	mov    %rbp,%rcx
    6b2f:	e8 5c c7 ff ff       	call   3290 <fwrite@plt>
    6b34:	bf 0a 00 00 00       	mov    $0xa,%edi
    6b39:	48 89 ee             	mov    %rbp,%rsi
    6b3c:	e8 2f c7 ff ff       	call   3270 <fputc@plt>
    6b41:	bf 01 00 00 00       	mov    $0x1,%edi
    6b46:	e8 55 c7 ff ff       	call   32a0 <exit@plt>
    6b4b:	48 8b 2d 3e 81 00 00 	mov    0x813e(%rip),%rbp        # ec90 <stderr>
    6b52:	ba 0d 00 00 00       	mov    $0xd,%edx
    6b57:	be 01 00 00 00       	mov    $0x1,%esi
    6b5c:	48 8d 3d f2 24 00 00 	lea    0x24f2(%rip),%rdi        # 9055 <_fini+0xf34>
    6b63:	48 89 e9             	mov    %rbp,%rcx
    6b66:	eb c7                	jmp    6b2f <main+0x37bf>
    6b68:	e8 53 c5 ff ff       	call   30c0 <__stack_chk_fail@plt>
    6b6d:	48 8d b4 24 88 00 00 	lea    0x88(%rsp),%rsi
    6b74:	00 
    6b75:	48 89 74 24 50       	mov    %rsi,0x50(%rsp)
    6b7a:	e8 61 04 00 00       	call   6fe0 <compile>
    6b7f:	0f bf 7c 24 7e       	movswl 0x7e(%rsp),%edi
    6b84:	48 8b 74 24 50       	mov    0x50(%rsp),%rsi
    6b89:	e8 52 04 00 00       	call   6fe0 <compile>
    6b8e:	e9 bd e5 ff ff       	jmp    5150 <main+0x1de0>
    6b93:	48 8d b4 24 88 00 00 	lea    0x88(%rsp),%rsi
    6b9a:	00 
    6b9b:	bf 76 00 00 00       	mov    $0x76,%edi
    6ba0:	89 44 24 6c          	mov    %eax,0x6c(%rsp)
    6ba4:	48 89 74 24 50       	mov    %rsi,0x50(%rsp)
    6ba9:	e8 32 04 00 00       	call   6fe0 <compile>
    6bae:	8b 44 24 6c          	mov    0x6c(%rsp),%eax
    6bb2:	48 8b 74 24 50       	mov    0x50(%rsp),%rsi
    6bb7:	0f bf f8             	movswl %ax,%edi
    6bba:	e8 21 04 00 00       	call   6fe0 <compile>
    6bbf:	e9 8c e5 ff ff       	jmp    5150 <main+0x1de0>

0000000000006bc4 <_start>:
    6bc4:	48 31 ed             	xor    %rbp,%rbp
    6bc7:	48 89 e7             	mov    %rsp,%rdi
    6bca:	48 8d 35 c7 80 00 00 	lea    0x80c7(%rip),%rsi        # ec98 <_DYNAMIC>
    6bd1:	48 83 e4 f0          	and    $0xfffffffffffffff0,%rsp
    6bd5:	e8 00 00 00 00       	call   6bda <_start_c>

0000000000006bda <_start_c>:
    6bda:	48 8b 37             	mov    (%rdi),%rsi
    6bdd:	48 8d 57 08          	lea    0x8(%rdi),%rdx
    6be1:	45 31 c9             	xor    %r9d,%r9d
    6be4:	4c 8d 05 36 15 00 00 	lea    0x1536(%rip),%r8        # 8121 <_fini>
    6beb:	48 8d 0d 0e c4 ff ff 	lea    -0x3bf2(%rip),%rcx        # 3000 <_init>
    6bf2:	48 8d 3d 77 c7 ff ff 	lea    -0x3889(%rip),%rdi        # 3370 <main>
    6bf9:	e9 c2 c6 ff ff       	jmp    32c0 <__libc_start_main@plt>
    6bfe:	66 90                	xchg   %ax,%ax

0000000000006c00 <deregister_tm_clones>:
    6c00:	48 8d 3d 91 94 00 00 	lea    0x9491(%rip),%rdi        # 10098 <__TMC_END__>
    6c07:	48 8d 05 8a 94 00 00 	lea    0x948a(%rip),%rax        # 10098 <__TMC_END__>
    6c0e:	48 39 f8             	cmp    %rdi,%rax
    6c11:	74 15                	je     6c28 <deregister_tm_clones+0x28>
    6c13:	48 8b 05 be 83 00 00 	mov    0x83be(%rip),%rax        # efd8 <_ITM_deregisterTMCloneTable>
    6c1a:	48 85 c0             	test   %rax,%rax
    6c1d:	74 09                	je     6c28 <deregister_tm_clones+0x28>
    6c1f:	ff e0                	jmp    *%rax
    6c21:	0f 1f 80 00 00 00 00 	nopl   0x0(%rax)
    6c28:	c3                   	ret    
    6c29:	0f 1f 80 00 00 00 00 	nopl   0x0(%rax)

0000000000006c30 <register_tm_clones>:
    6c30:	48 8d 3d 61 94 00 00 	lea    0x9461(%rip),%rdi        # 10098 <__TMC_END__>
    6c37:	48 8d 35 5a 94 00 00 	lea    0x945a(%rip),%rsi        # 10098 <__TMC_END__>
    6c3e:	48 29 fe             	sub    %rdi,%rsi
    6c41:	48 89 f0             	mov    %rsi,%rax
    6c44:	48 c1 ee 3f          	shr    $0x3f,%rsi
    6c48:	48 c1 f8 03          	sar    $0x3,%rax
    6c4c:	48 01 c6             	add    %rax,%rsi
    6c4f:	48 d1 fe             	sar    %rsi
    6c52:	74 14                	je     6c68 <register_tm_clones+0x38>
    6c54:	48 8b 05 75 83 00 00 	mov    0x8375(%rip),%rax        # efd0 <_ITM_registerTMCloneTable>
    6c5b:	48 85 c0             	test   %rax,%rax
    6c5e:	74 08                	je     6c68 <register_tm_clones+0x38>
    6c60:	ff e0                	jmp    *%rax
    6c62:	66 0f 1f 44 00 00    	nopw   0x0(%rax,%rax,1)
    6c68:	c3                   	ret    
    6c69:	0f 1f 80 00 00 00 00 	nopl   0x0(%rax)

0000000000006c70 <__do_global_dtors_aux>:
    6c70:	f3 0f 1e fa          	endbr64 
    6c74:	80 3d 25 94 00 00 00 	cmpb   $0x0,0x9425(%rip)        # 100a0 <completed.2>
    6c7b:	0f 85 97 00 00 00    	jne    6d18 <__do_global_dtors_aux+0xa8>
    6c81:	55                   	push   %rbp
    6c82:	48 83 3d 36 83 00 00 	cmpq   $0x0,0x8336(%rip)        # efc0 <__cxa_finalize>
    6c89:	00 
    6c8a:	48 89 e5             	mov    %rsp,%rbp
    6c8d:	41 54                	push   %r12
    6c8f:	53                   	push   %rbx
    6c90:	74 0c                	je     6c9e <__do_global_dtors_aux+0x2e>
    6c92:	48 8b 3d 67 83 00 00 	mov    0x8367(%rip),%rdi        # f000 <__dso_handle>
    6c99:	e8 a2 c6 ff ff       	call   3340 <__cxa_finalize@plt>
    6c9e:	48 8d 05 cb 7f 00 00 	lea    0x7fcb(%rip),%rax        # ec70 <__DTOR_LIST__>
    6ca5:	48 8d 1d cc 7f 00 00 	lea    0x7fcc(%rip),%rbx        # ec78 <__DTOR_END__>
    6cac:	48 29 c3             	sub    %rax,%rbx
    6caf:	49 89 c4             	mov    %rax,%r12
    6cb2:	48 8b 05 ef 93 00 00 	mov    0x93ef(%rip),%rax        # 100a8 <dtor_idx.1>
    6cb9:	48 c1 fb 03          	sar    $0x3,%rbx
    6cbd:	48 83 eb 01          	sub    $0x1,%rbx
    6cc1:	48 39 d8             	cmp    %rbx,%rax
    6cc4:	73 25                	jae    6ceb <__do_global_dtors_aux+0x7b>
    6cc6:	66 2e 0f 1f 84 00 00 	cs nopw 0x0(%rax,%rax,1)
    6ccd:	00 00 00 
    6cd0:	48 83 c0 01          	add    $0x1,%rax
    6cd4:	48 89 05 cd 93 00 00 	mov    %rax,0x93cd(%rip)        # 100a8 <dtor_idx.1>
    6cdb:	41 ff 14 c4          	call   *(%r12,%rax,8)
    6cdf:	48 8b 05 c2 93 00 00 	mov    0x93c2(%rip),%rax        # 100a8 <dtor_idx.1>
    6ce6:	48 39 d8             	cmp    %rbx,%rax
    6ce9:	72 e5                	jb     6cd0 <__do_global_dtors_aux+0x60>
    6ceb:	e8 10 ff ff ff       	call   6c00 <deregister_tm_clones>
    6cf0:	48 83 3d d0 82 00 00 	cmpq   $0x0,0x82d0(%rip)        # efc8 <__deregister_frame_info>
    6cf7:	00 
    6cf8:	74 0c                	je     6d06 <__do_global_dtors_aux+0x96>
    6cfa:	48 8d 3d 47 5b 00 00 	lea    0x5b47(%rip),%rdi        # c848 <__EH_FRAME_BEGIN__>
    6d01:	e8 42 c6 ff ff       	call   3348 <__deregister_frame_info@plt>
    6d06:	5b                   	pop    %rbx
    6d07:	41 5c                	pop    %r12
    6d09:	c6 05 90 93 00 00 01 	movb   $0x1,0x9390(%rip)        # 100a0 <completed.2>
    6d10:	5d                   	pop    %rbp
    6d11:	c3                   	ret    
    6d12:	66 0f 1f 44 00 00    	nopw   0x0(%rax,%rax,1)
    6d18:	c3                   	ret    
    6d19:	0f 1f 80 00 00 00 00 	nopl   0x0(%rax)

0000000000006d20 <frame_dummy>:
    6d20:	f3 0f 1e fa          	endbr64 
    6d24:	48 83 3d b4 82 00 00 	cmpq   $0x0,0x82b4(%rip)        # efe0 <__register_frame_info>
    6d2b:	00 
    6d2c:	74 22                	je     6d50 <frame_dummy+0x30>
    6d2e:	55                   	push   %rbp
    6d2f:	48 8d 35 8a 93 00 00 	lea    0x938a(%rip),%rsi        # 100c0 <object.0>
    6d36:	48 8d 3d 0b 5b 00 00 	lea    0x5b0b(%rip),%rdi        # c848 <__EH_FRAME_BEGIN__>
    6d3d:	48 89 e5             	mov    %rsp,%rbp
    6d40:	e8 0b c6 ff ff       	call   3350 <__register_frame_info@plt>
    6d45:	5d                   	pop    %rbp
    6d46:	e9 e5 fe ff ff       	jmp    6c30 <register_tm_clones>
    6d4b:	0f 1f 44 00 00       	nopl   0x0(%rax,%rax,1)
    6d50:	e9 db fe ff ff       	jmp    6c30 <register_tm_clones>
    6d55:	66 2e 0f 1f 84 00 00 	cs nopw 0x0(%rax,%rax,1)
    6d5c:	00 00 00 
    6d5f:	90                   	nop

0000000000006d60 <catch_exit>:
    6d60:	48 83 ec 08          	sub    $0x8,%rsp
    6d64:	0f 1f 40 00          	nopl   0x0(%rax)
    6d68:	31 f6                	xor    %esi,%esi
    6d6a:	ba 01 00 00 00       	mov    $0x1,%edx
    6d6f:	bf ff ff ff ff       	mov    $0xffffffff,%edi
    6d74:	e8 a7 c2 ff ff       	call   3020 <waitpid@plt>
    6d79:	85 c0                	test   %eax,%eax
    6d7b:	7f eb                	jg     6d68 <catch_exit+0x8>
    6d7d:	48 83 c4 08          	add    $0x8,%rsp
    6d81:	c3                   	ret    
    6d82:	66 66 2e 0f 1f 84 00 	data16 cs nopw 0x0(%rax,%rax,1)
    6d89:	00 00 00 00 
    6d8d:	0f 1f 00             	nopl   (%rax)

0000000000006d90 <find.part.0>:
    6d90:	41 56                	push   %r14
    6d92:	41 55                	push   %r13
    6d94:	41 54                	push   %r12
    6d96:	49 89 f4             	mov    %rsi,%r12
    6d99:	be 3a 00 00 00       	mov    $0x3a,%esi
    6d9e:	55                   	push   %rbp
    6d9f:	53                   	push   %rbx
    6da0:	48 89 fb             	mov    %rdi,%rbx
    6da3:	4c 89 e7             	mov    %r12,%rdi
    6da6:	e8 45 c5 ff ff       	call   32f0 <strchr@plt>
    6dab:	48 85 c0             	test   %rax,%rax
    6dae:	74 0e                	je     6dbe <find.part.0+0x2e>
    6db0:	80 78 01 00          	cmpb   $0x0,0x1(%rax)
    6db4:	49 89 c5             	mov    %rax,%r13
    6db7:	74 05                	je     6dbe <find.part.0+0x2e>
    6db9:	49 39 c4             	cmp    %rax,%r12
    6dbc:	72 6a                	jb     6e28 <find.part.0+0x98>
    6dbe:	48 85 db             	test   %rbx,%rbx
    6dc1:	74 55                	je     6e18 <find.part.0+0x88>
    6dc3:	41 0f b7 2c 24       	movzwl (%r12),%ebp
    6dc8:	eb 0f                	jmp    6dd9 <find.part.0+0x49>
    6dca:	66 0f 1f 44 00 00    	nopw   0x0(%rax,%rax,1)
    6dd0:	48 8b 5b 08          	mov    0x8(%rbx),%rbx
    6dd4:	48 85 db             	test   %rbx,%rbx
    6dd7:	74 3f                	je     6e18 <find.part.0+0x88>
    6dd9:	48 8b 3b             	mov    (%rbx),%rdi
    6ddc:	66 39 2f             	cmp    %bp,(%rdi)
    6ddf:	75 ef                	jne    6dd0 <find.part.0+0x40>
    6de1:	4c 89 e6             	mov    %r12,%rsi
    6de4:	e8 77 c4 ff ff       	call   3260 <strcmp@plt>
    6de9:	85 c0                	test   %eax,%eax
    6deb:	75 e3                	jne    6dd0 <find.part.0+0x40>
    6ded:	48 8d 05 ac 98 01 00 	lea    0x198ac(%rip),%rax        # 206a0 <head>
    6df4:	48 29 c3             	sub    %rax,%rbx
    6df7:	48 c1 fb 03          	sar    $0x3,%rbx
    6dfb:	66 69 c3 ab aa       	imul   $0xaaab,%bx,%ax
    6e00:	5b                   	pop    %rbx
    6e01:	5d                   	pop    %rbp
    6e02:	41 5c                	pop    %r12
    6e04:	41 5d                	pop    %r13
    6e06:	41 5e                	pop    %r14
    6e08:	c3                   	ret    
    6e09:	0f 1f 80 00 00 00 00 	nopl   0x0(%rax)
    6e10:	41 c6 45 00 3a       	movb   $0x3a,0x0(%r13)
    6e15:	0f 1f 00             	nopl   (%rax)
    6e18:	31 c0                	xor    %eax,%eax
    6e1a:	5b                   	pop    %rbx
    6e1b:	5d                   	pop    %rbp
    6e1c:	41 5c                	pop    %r12
    6e1e:	41 5d                	pop    %r13
    6e20:	41 5e                	pop    %r14
    6e22:	c3                   	ret    
    6e23:	0f 1f 44 00 00       	nopl   0x0(%rax,%rax,1)
    6e28:	c6 00 00             	movb   $0x0,(%rax)
    6e2b:	48 85 db             	test   %rbx,%rbx
    6e2e:	74 e0                	je     6e10 <find.part.0+0x80>
    6e30:	45 0f b7 34 24       	movzwl (%r12),%r14d
    6e35:	48 89 dd             	mov    %rbx,%rbp
    6e38:	eb 0f                	jmp    6e49 <find.part.0+0xb9>
    6e3a:	66 0f 1f 44 00 00    	nopw   0x0(%rax,%rax,1)
    6e40:	48 8b 6d 08          	mov    0x8(%rbp),%rbp
    6e44:	48 85 ed             	test   %rbp,%rbp
    6e47:	74 c7                	je     6e10 <find.part.0+0x80>
    6e49:	48 8b 7d 00          	mov    0x0(%rbp),%rdi
    6e4d:	66 44 39 37          	cmp    %r14w,(%rdi)
    6e51:	75 ed                	jne    6e40 <find.part.0+0xb0>
    6e53:	4c 89 e6             	mov    %r12,%rsi
    6e56:	e8 05 c4 ff ff       	call   3260 <strcmp@plt>
    6e5b:	85 c0                	test   %eax,%eax
    6e5d:	75 e1                	jne    6e40 <find.part.0+0xb0>
    6e5f:	48 8b 5d 10          	mov    0x10(%rbp),%rbx
    6e63:	48 39 eb             	cmp    %rbp,%rbx
    6e66:	74 4e                	je     6eb6 <find.part.0+0x126>
    6e68:	48 85 db             	test   %rbx,%rbx
    6e6b:	74 49                	je     6eb6 <find.part.0+0x126>
    6e6d:	45 0f b7 65 01       	movzwl 0x1(%r13),%r12d
    6e72:	4d 8d 75 01          	lea    0x1(%r13),%r14
    6e76:	eb 16                	jmp    6e8e <find.part.0+0xfe>
    6e78:	0f 1f 84 00 00 00 00 	nopl   0x0(%rax,%rax,1)
    6e7f:	00 
    6e80:	48 8b 5b 08          	mov    0x8(%rbx),%rbx
    6e84:	48 85 db             	test   %rbx,%rbx
    6e87:	74 2d                	je     6eb6 <find.part.0+0x126>
    6e89:	48 39 eb             	cmp    %rbp,%rbx
    6e8c:	74 28                	je     6eb6 <find.part.0+0x126>
    6e8e:	48 8b 3b             	mov    (%rbx),%rdi
    6e91:	66 44 39 27          	cmp    %r12w,(%rdi)
    6e95:	75 e9                	jne    6e80 <find.part.0+0xf0>
    6e97:	4c 89 f6             	mov    %r14,%rsi
    6e9a:	e8 c1 c3 ff ff       	call   3260 <strcmp@plt>
    6e9f:	85 c0                	test   %eax,%eax
    6ea1:	75 dd                	jne    6e80 <find.part.0+0xf0>
    6ea3:	48 39 eb             	cmp    %rbp,%rbx
    6ea6:	0f 84 64 ff ff ff    	je     6e10 <find.part.0+0x80>
    6eac:	41 c6 45 00 3a       	movb   $0x3a,0x0(%r13)
    6eb1:	e9 37 ff ff ff       	jmp    6ded <find.part.0+0x5d>
    6eb6:	48 39 dd             	cmp    %rbx,%rbp
    6eb9:	0f 84 51 ff ff ff    	je     6e10 <find.part.0+0x80>
    6ebf:	41 c6 45 00 3a       	movb   $0x3a,0x0(%r13)
    6ec4:	48 85 db             	test   %rbx,%rbx
    6ec7:	0f 85 20 ff ff ff    	jne    6ded <find.part.0+0x5d>
    6ecd:	31 c0                	xor    %eax,%eax
    6ecf:	e9 46 ff ff ff       	jmp    6e1a <find.part.0+0x8a>
    6ed4:	66 66 2e 0f 1f 84 00 	data16 cs nopw 0x0(%rax,%rax,1)
    6edb:	00 00 00 00 
    6edf:	90                   	nop

0000000000006ee0 <slurp>:
    6ee0:	41 55                	push   %r13
    6ee2:	41 54                	push   %r12
    6ee4:	49 89 fc             	mov    %rdi,%r12
    6ee7:	bf 01 04 00 00       	mov    $0x401,%edi
    6eec:	55                   	push   %rbp
    6eed:	53                   	push   %rbx
    6eee:	48 83 ec 08          	sub    $0x8,%rsp
    6ef2:	e8 a9 c1 ff ff       	call   30a0 <malloc@plt>
    6ef7:	48 8d 35 90 21 00 00 	lea    0x2190(%rip),%rsi        # 908e <_fini+0xf6d>
    6efe:	4c 89 e7             	mov    %r12,%rdi
    6f01:	48 89 c5             	mov    %rax,%rbp
    6f04:	e8 c7 c2 ff ff       	call   31d0 <fopen@plt>
    6f09:	48 85 c0             	test   %rax,%rax
    6f0c:	74 66                	je     6f74 <slurp+0x94>
    6f0e:	49 89 c5             	mov    %rax,%r13
    6f11:	41 bc 01 08 00 00    	mov    $0x801,%r12d
    6f17:	31 db                	xor    %ebx,%ebx
    6f19:	eb 1a                	jmp    6f35 <slurp+0x55>
    6f1b:	0f 1f 44 00 00       	nopl   0x0(%rax,%rax,1)
    6f20:	4c 89 e6             	mov    %r12,%rsi
    6f23:	48 89 ef             	mov    %rbp,%rdi
    6f26:	49 81 c4 00 04 00 00 	add    $0x400,%r12
    6f2d:	e8 3e c2 ff ff       	call   3170 <realloc@plt>
    6f32:	48 89 c5             	mov    %rax,%rbp
    6f35:	48 63 fb             	movslq %ebx,%rdi
    6f38:	ba 00 04 00 00       	mov    $0x400,%edx
    6f3d:	4c 89 e9             	mov    %r13,%rcx
    6f40:	be 01 00 00 00       	mov    $0x1,%esi
    6f45:	48 01 ef             	add    %rbp,%rdi
    6f48:	e8 53 c2 ff ff       	call   31a0 <fread@plt>
    6f4d:	01 c3                	add    %eax,%ebx
    6f4f:	48 63 d3             	movslq %ebx,%rdx
    6f52:	c6 44 15 00 00       	movb   $0x0,0x0(%rbp,%rdx,1)
    6f57:	3d ff 03 00 00       	cmp    $0x3ff,%eax
    6f5c:	77 c2                	ja     6f20 <slurp+0x40>
    6f5e:	4c 89 ef             	mov    %r13,%rdi
    6f61:	e8 aa c2 ff ff       	call   3210 <fclose@plt>
    6f66:	48 83 c4 08          	add    $0x8,%rsp
    6f6a:	48 89 e8             	mov    %rbp,%rax
    6f6d:	5b                   	pop    %rbx
    6f6e:	5d                   	pop    %rbp
    6f6f:	41 5c                	pop    %r12
    6f71:	41 5d                	pop    %r13
    6f73:	c3                   	ret    
    6f74:	31 ed                	xor    %ebp,%ebp
    6f76:	eb ee                	jmp    6f66 <slurp+0x86>
    6f78:	0f 1f 84 00 00 00 00 	nopl   0x0(%rax,%rax,1)
    6f7f:	00 

0000000000006f80 <blurt>:
    6f80:	41 54                	push   %r12
    6f82:	49 89 f4             	mov    %rsi,%r12
    6f85:	48 8d 35 74 20 00 00 	lea    0x2074(%rip),%rsi        # 9000 <_fini+0xedf>
    6f8c:	55                   	push   %rbp
    6f8d:	53                   	push   %rbx
    6f8e:	89 d3                	mov    %edx,%ebx
    6f90:	e8 3b c2 ff ff       	call   31d0 <fopen@plt>
    6f95:	48 85 c0             	test   %rax,%rax
    6f98:	74 1b                	je     6fb5 <blurt+0x35>
    6f9a:	48 89 c1             	mov    %rax,%rcx
    6f9d:	48 89 da             	mov    %rbx,%rdx
    6fa0:	be 01 00 00 00       	mov    $0x1,%esi
    6fa5:	4c 89 e7             	mov    %r12,%rdi
    6fa8:	48 89 c5             	mov    %rax,%rbp
    6fab:	e8 e0 c2 ff ff       	call   3290 <fwrite@plt>
    6fb0:	48 39 c3             	cmp    %rax,%rbx
    6fb3:	74 0b                	je     6fc0 <blurt+0x40>
    6fb5:	5b                   	pop    %rbx
    6fb6:	31 c0                	xor    %eax,%eax
    6fb8:	5d                   	pop    %rbp
    6fb9:	41 5c                	pop    %r12
    6fbb:	c3                   	ret    
    6fbc:	0f 1f 40 00          	nopl   0x0(%rax)
    6fc0:	48 89 ef             	mov    %rbp,%rdi
    6fc3:	e8 48 c2 ff ff       	call   3210 <fclose@plt>
    6fc8:	5b                   	pop    %rbx
    6fc9:	b8 01 00 00 00       	mov    $0x1,%eax
    6fce:	5d                   	pop    %rbp
    6fcf:	41 5c                	pop    %r12
    6fd1:	c3                   	ret    
    6fd2:	66 66 2e 0f 1f 84 00 	data16 cs nopw 0x0(%rax,%rax,1)
    6fd9:	00 00 00 00 
    6fdd:	0f 1f 00             	nopl   (%rax)

0000000000006fe0 <compile>:
    6fe0:	48 8b 06             	mov    (%rsi),%rax
    6fe3:	48 8d 15 b6 16 23 00 	lea    0x2316b6(%rip),%rdx        # 2386a0 <current>
    6fea:	48 8d 48 04          	lea    0x4(%rax),%rcx
    6fee:	48 39 d1             	cmp    %rdx,%rcx
    6ff1:	0f 83 0c 01 00 00    	jae    7103 <compile+0x123>
    6ff7:	48 8b 15 8a 96 00 00 	mov    0x968a(%rip),%rdx        # 10688 <compile_last>
    6ffe:	48 8d 48 fe          	lea    -0x2(%rax),%rcx
    7002:	48 39 ca             	cmp    %rcx,%rdx
    7005:	74 21                	je     7028 <compile+0x48>
    7007:	48 8d 48 f6          	lea    -0xa(%rax),%rcx
    700b:	48 39 ca             	cmp    %rcx,%rdx
    700e:	74 78                	je     7088 <compile+0xa8>
    7010:	48 89 05 71 96 00 00 	mov    %rax,0x9671(%rip)        # 10688 <compile_last>
    7017:	48 83 c0 02          	add    $0x2,%rax
    701b:	66 89 78 fe          	mov    %di,-0x2(%rax)
    701f:	48 89 06             	mov    %rax,(%rsi)
    7022:	c3                   	ret    
    7023:	0f 1f 44 00 00       	nopl   0x0(%rax,%rax,1)
    7028:	0f b7 0a             	movzwl (%rdx),%ecx
    702b:	66 83 f9 19          	cmp    $0x19,%cx
    702f:	0f 84 ab 00 00 00    	je     70e0 <compile+0x100>
    7035:	7f 39                	jg     7070 <compile+0x90>
    7037:	66 83 f9 0a          	cmp    $0xa,%cx
    703b:	74 6b                	je     70a8 <compile+0xc8>
    703d:	66 83 f9 0f          	cmp    $0xf,%cx
    7041:	75 cd                	jne    7010 <compile+0x30>
    7043:	66 83 ff 19          	cmp    $0x19,%di
    7047:	0f 84 9d 00 00 00    	je     70ea <compile+0x10a>
    704d:	7e 71                	jle    70c0 <compile+0xe0>
    704f:	66 83 ff 1b          	cmp    $0x1b,%di
    7053:	74 27                	je     707c <compile+0x9c>
    7055:	66 83 ff 79          	cmp    $0x79,%di
    7059:	75 b5                	jne    7010 <compile+0x30>
    705b:	41 b8 a6 00 00 00    	mov    $0xa6,%r8d
    7061:	66 44 89 02          	mov    %r8w,(%rdx)
    7065:	c3                   	ret    
    7066:	66 2e 0f 1f 84 00 00 	cs nopw 0x0(%rax,%rax,1)
    706d:	00 00 00 
    7070:	66 83 f9 1b          	cmp    $0x1b,%cx
    7074:	75 91                	jne    7007 <compile+0x27>
    7076:	66 83 ff 1c          	cmp    $0x1c,%di
    707a:	75 94                	jne    7010 <compile+0x30>
    707c:	bf a2 00 00 00       	mov    $0xa2,%edi
    7081:	66 89 3a             	mov    %di,(%rdx)
    7084:	c3                   	ret    
    7085:	0f 1f 00             	nopl   (%rax)
    7088:	66 83 3a 77          	cmpw   $0x77,(%rdx)
    708c:	75 82                	jne    7010 <compile+0x30>
    708e:	66 83 ff 28          	cmp    $0x28,%di
    7092:	0f 85 78 ff ff ff    	jne    7010 <compile+0x30>
    7098:	b8 a8 00 00 00       	mov    $0xa8,%eax
    709d:	66 89 02             	mov    %ax,(%rdx)
    70a0:	c3                   	ret    
    70a1:	0f 1f 80 00 00 00 00 	nopl   0x0(%rax)
    70a8:	66 83 ff 28          	cmp    $0x28,%di
    70ac:	0f 85 5e ff ff ff    	jne    7010 <compile+0x30>
    70b2:	b9 a7 00 00 00       	mov    $0xa7,%ecx
    70b7:	66 89 0a             	mov    %cx,(%rdx)
    70ba:	c3                   	ret    
    70bb:	0f 1f 44 00 00       	nopl   0x0(%rax,%rax,1)
    70c0:	66 83 ff 0d          	cmp    $0xd,%di
    70c4:	74 32                	je     70f8 <compile+0x118>
    70c6:	66 83 ff 0e          	cmp    $0xe,%di
    70ca:	0f 85 40 ff ff ff    	jne    7010 <compile+0x30>
    70d0:	41 b9 a5 00 00 00    	mov    $0xa5,%r9d
    70d6:	66 44 89 0a          	mov    %r9w,(%rdx)
    70da:	c3                   	ret    
    70db:	0f 1f 44 00 00       	nopl   0x0(%rax,%rax,1)
    70e0:	66 83 ff 1a          	cmp    $0x1a,%di
    70e4:	0f 85 26 ff ff ff    	jne    7010 <compile+0x30>
    70ea:	be a3 00 00 00       	mov    $0xa3,%esi
    70ef:	66 89 32             	mov    %si,(%rdx)
    70f2:	c3                   	ret    
    70f3:	0f 1f 44 00 00       	nopl   0x0(%rax,%rax,1)
    70f8:	41 ba a4 00 00 00    	mov    $0xa4,%r10d
    70fe:	66 44 89 12          	mov    %r10w,(%rdx)
    7102:	c3                   	ret    
    7103:	55                   	push   %rbp
    7104:	48 8b 2d 85 7b 00 00 	mov    0x7b85(%rip),%rbp        # ec90 <stderr>
    710b:	ba 13 00 00 00       	mov    $0x13,%edx
    7110:	be 01 00 00 00       	mov    $0x1,%esi
    7115:	48 8d 3d e7 1e 00 00 	lea    0x1ee7(%rip),%rdi        # 9003 <_fini+0xee2>
    711c:	48 89 e9             	mov    %rbp,%rcx
    711f:	e8 6c c1 ff ff       	call   3290 <fwrite@plt>
    7124:	bf 0a 00 00 00       	mov    $0xa,%edi
    7129:	48 89 ee             	mov    %rbp,%rsi
    712c:	e8 3f c1 ff ff       	call   3270 <fputc@plt>
    7131:	bf 01 00 00 00       	mov    $0x1,%edi
    7136:	e8 65 c1 ff ff       	call   32a0 <exit@plt>
    713b:	0f 1f 44 00 00       	nopl   0x0(%rax,%rax,1)

0000000000007140 <ncompile>:
    7140:	48 8b 06             	mov    (%rsi),%rax
    7143:	48 8d 15 56 15 23 00 	lea    0x231556(%rip),%rdx        # 2386a0 <current>
    714a:	48 8d 48 10          	lea    0x10(%rax),%rcx
    714e:	48 39 d1             	cmp    %rdx,%rcx
    7151:	73 13                	jae    7166 <ncompile+0x26>
    7153:	48 89 05 26 95 00 00 	mov    %rax,0x9526(%rip)        # 10680 <ncompile_last>
    715a:	48 83 c0 08          	add    $0x8,%rax
    715e:	48 89 78 f8          	mov    %rdi,-0x8(%rax)
    7162:	48 89 06             	mov    %rax,(%rsi)
    7165:	c3                   	ret    
    7166:	55                   	push   %rbp
    7167:	48 8b 2d 22 7b 00 00 	mov    0x7b22(%rip),%rbp        # ec90 <stderr>
    716e:	ba 13 00 00 00       	mov    $0x13,%edx
    7173:	be 01 00 00 00       	mov    $0x1,%esi
    7178:	48 8d 3d 84 1e 00 00 	lea    0x1e84(%rip),%rdi        # 9003 <_fini+0xee2>
    717f:	48 89 e9             	mov    %rbp,%rcx
    7182:	e8 09 c1 ff ff       	call   3290 <fwrite@plt>
    7187:	bf 0a 00 00 00       	mov    $0xa,%edi
    718c:	48 89 ee             	mov    %rbp,%rsi
    718f:	e8 dc c0 ff ff       	call   3270 <fputc@plt>
    7194:	bf 01 00 00 00       	mov    $0x1,%edi
    7199:	e8 02 c1 ff ff       	call   32a0 <exit@plt>
    719e:	66 90                	xchg   %ax,%ax

00000000000071a0 <scompile>:
    71a0:	41 54                	push   %r12
    71a2:	55                   	push   %rbp
    71a3:	48 89 f5             	mov    %rsi,%rbp
    71a6:	53                   	push   %rbx
    71a7:	4c 8b 26             	mov    (%rsi),%r12
    71aa:	48 89 fb             	mov    %rdi,%rbx
    71ad:	e8 1e c1 ff ff       	call   32d0 <strlen@plt>
    71b2:	49 8d 54 44 02       	lea    0x2(%r12,%rax,2),%rdx
    71b7:	48 8d 05 e2 14 23 00 	lea    0x2314e2(%rip),%rax        # 2386a0 <current>
    71be:	48 39 c2             	cmp    %rax,%rdx
    71c1:	73 64                	jae    7227 <scompile+0x87>
    71c3:	0f b6 03             	movzbl (%rbx),%eax
    71c6:	49 8d 4c 24 02       	lea    0x2(%r12),%rcx
    71cb:	48 89 ca             	mov    %rcx,%rdx
    71ce:	84 c0                	test   %al,%al
    71d0:	74 17                	je     71e9 <scompile+0x49>
    71d2:	66 0f 1f 44 00 00    	nopw   0x0(%rax,%rax,1)
    71d8:	48 83 c3 01          	add    $0x1,%rbx
    71dc:	88 02                	mov    %al,(%rdx)
    71de:	48 83 c2 01          	add    $0x1,%rdx
    71e2:	0f b6 03             	movzbl (%rbx),%eax
    71e5:	84 c0                	test   %al,%al
    71e7:	75 ef                	jne    71d8 <scompile+0x38>
    71e9:	48 8d 42 01          	lea    0x1(%rdx),%rax
    71ed:	c6 02 00             	movb   $0x0,(%rdx)
    71f0:	48 89 c2             	mov    %rax,%rdx
    71f3:	48 29 ca             	sub    %rcx,%rdx
    71f6:	83 e2 01             	and    $0x1,%edx
    71f9:	74 18                	je     7213 <scompile+0x73>
    71fb:	0f 1f 44 00 00       	nopl   0x0(%rax,%rax,1)
    7200:	48 83 c0 01          	add    $0x1,%rax
    7204:	c6 40 ff 00          	movb   $0x0,-0x1(%rax)
    7208:	48 89 c2             	mov    %rax,%rdx
    720b:	48 29 ca             	sub    %rcx,%rdx
    720e:	83 e2 01             	and    $0x1,%edx
    7211:	75 ed                	jne    7200 <scompile+0x60>
    7213:	48 89 c2             	mov    %rax,%rdx
    7216:	4c 29 e2             	sub    %r12,%rdx
    7219:	66 41 89 14 24       	mov    %dx,(%r12)
    721e:	48 89 45 00          	mov    %rax,0x0(%rbp)
    7222:	5b                   	pop    %rbx
    7223:	5d                   	pop    %rbp
    7224:	41 5c                	pop    %r12
    7226:	c3                   	ret    
    7227:	48 8b 2d 62 7a 00 00 	mov    0x7a62(%rip),%rbp        # ec90 <stderr>
    722e:	ba 13 00 00 00       	mov    $0x13,%edx
    7233:	be 01 00 00 00       	mov    $0x1,%esi
    7238:	48 8d 3d c4 1d 00 00 	lea    0x1dc4(%rip),%rdi        # 9003 <_fini+0xee2>
    723f:	48 89 e9             	mov    %rbp,%rcx
    7242:	e8 49 c0 ff ff       	call   3290 <fwrite@plt>
    7247:	bf 0a 00 00 00       	mov    $0xa,%edi
    724c:	48 89 ee             	mov    %rbp,%rsi
    724f:	e8 1c c0 ff ff       	call   3270 <fputc@plt>
    7254:	bf 01 00 00 00       	mov    $0x1,%edi
    7259:	e8 42 c0 ff ff       	call   32a0 <exit@plt>
    725e:	66 90                	xchg   %ax,%ax

0000000000007260 <mark>:
    7260:	41 54                	push   %r12
    7262:	4c 8b 27             	mov    (%rdi),%r12
    7265:	48 89 fe             	mov    %rdi,%rsi
    7268:	31 ff                	xor    %edi,%edi
    726a:	e8 71 fd ff ff       	call   6fe0 <compile>
    726f:	4c 89 e0             	mov    %r12,%rax
    7272:	41 5c                	pop    %r12
    7274:	c3                   	ret    
    7275:	66 66 2e 0f 1f 84 00 	data16 cs nopw 0x0(%rax,%rax,1)
    727c:	00 00 00 00 

0000000000007280 <patch>:
    7280:	48 8b 06             	mov    (%rsi),%rax
    7283:	48 29 f8             	sub    %rdi,%rax
    7286:	66 89 07             	mov    %ax,(%rdi)
    7289:	c3                   	ret    
    728a:	66 0f 1f 44 00 00    	nopw   0x0(%rax,%rax,1)

0000000000007290 <parse>:
    7290:	48 8b 15 49 14 23 00 	mov    0x231449(%rip),%rdx        # 2386e0 <source>
    7297:	0f b6 0a             	movzbl (%rdx),%ecx
    729a:	84 c9                	test   %cl,%cl
    729c:	75 0e                	jne    72ac <parse+0x1c>
    729e:	eb 58                	jmp    72f8 <parse+0x68>
    72a0:	0f b6 4a 01          	movzbl 0x1(%rdx),%ecx
    72a4:	48 83 c2 01          	add    $0x1,%rdx
    72a8:	84 c9                	test   %cl,%cl
    72aa:	74 4c                	je     72f8 <parse+0x68>
    72ac:	80 f9 20             	cmp    $0x20,%cl
    72af:	7e ef                	jle    72a0 <parse+0x10>
    72b1:	b8 01 00 00 00       	mov    $0x1,%eax
    72b6:	48 8d 3d c2 8f 00 00 	lea    0x8fc2(%rip),%rdi        # 1027f <sparse_i+0x17>
    72bd:	eb 0d                	jmp    72cc <parse+0x3c>
    72bf:	90                   	nop
    72c0:	48 83 c0 01          	add    $0x1,%rax
    72c4:	48 3d 00 04 00 00    	cmp    $0x400,%rax
    72ca:	74 42                	je     730e <parse+0x7e>
    72cc:	48 83 c2 01          	add    $0x1,%rdx
    72d0:	88 0c 07             	mov    %cl,(%rdi,%rax,1)
    72d3:	48 63 f0             	movslq %eax,%rsi
    72d6:	0f b6 0a             	movzbl (%rdx),%ecx
    72d9:	80 f9 20             	cmp    $0x20,%cl
    72dc:	7f e2                	jg     72c0 <parse+0x30>
    72de:	48 8d 05 9b 8f 00 00 	lea    0x8f9b(%rip),%rax        # 10280 <parsed>
    72e5:	48 89 15 f4 13 23 00 	mov    %rdx,0x2313f4(%rip)        # 2386e0 <source>
    72ec:	c6 04 30 00          	movb   $0x0,(%rax,%rsi,1)
    72f0:	c3                   	ret    
    72f1:	0f 1f 80 00 00 00 00 	nopl   0x0(%rax)
    72f8:	80 f9 20             	cmp    $0x20,%cl
    72fb:	7f b4                	jg     72b1 <parse+0x21>
    72fd:	c6 05 7c 8f 00 00 00 	movb   $0x0,0x8f7c(%rip)        # 10280 <parsed>
    7304:	31 c0                	xor    %eax,%eax
    7306:	48 89 15 d3 13 23 00 	mov    %rdx,0x2313d3(%rip)        # 2386e0 <source>
    730d:	c3                   	ret    
    730e:	c6 05 6a 93 00 00 00 	movb   $0x0,0x936a(%rip)        # 1067f <parsed+0x3ff>
    7315:	48 8d 05 64 8f 00 00 	lea    0x8f64(%rip),%rax        # 10280 <parsed>
    731c:	48 89 15 bd 13 23 00 	mov    %rdx,0x2313bd(%rip)        # 2386e0 <source>
    7323:	c3                   	ret    
    7324:	66 66 2e 0f 1f 84 00 	data16 cs nopw 0x0(%rax,%rax,1)
    732b:	00 00 00 00 
    732f:	90                   	nop

0000000000007330 <sparse>:
    7330:	41 54                	push   %r12
    7332:	bf 00 04 00 00       	mov    $0x400,%edi
    7337:	55                   	push   %rbp
    7338:	48 8d 2d 11 8f 00 00 	lea    0x8f11(%rip),%rbp        # 10250 <sparse_bufs>
    733f:	53                   	push   %rbx
    7340:	e8 5b bd ff ff       	call   30a0 <malloc@plt>
    7345:	48 63 1d 1c 8f 00 00 	movslq 0x8f1c(%rip),%rbx        # 10268 <sparse_i>
    734c:	31 c9                	xor    %ecx,%ecx
    734e:	49 89 c4             	mov    %rax,%r12
    7351:	83 fb 02             	cmp    $0x2,%ebx
    7354:	8d 53 01             	lea    0x1(%rbx),%edx
    7357:	48 8b 7c dd 00       	mov    0x0(%rbp,%rbx,8),%rdi
    735c:	0f 44 d1             	cmove  %ecx,%edx
    735f:	89 15 03 8f 00 00    	mov    %edx,0x8f03(%rip)        # 10268 <sparse_i>
    7365:	e8 c6 bf ff ff       	call   3330 <free@plt>
    736a:	48 8b 05 6f 13 23 00 	mov    0x23136f(%rip),%rax        # 2386e0 <source>
    7371:	4c 89 64 dd 00       	mov    %r12,0x0(%rbp,%rbx,8)
    7376:	48 8d 50 01          	lea    0x1(%rax),%rdx
    737a:	44 0f b6 00          	movzbl (%rax),%r8d
    737e:	48 8d 78 02          	lea    0x2(%rax),%rdi
    7382:	0f b6 40 01          	movzbl 0x1(%rax),%eax
    7386:	84 c0                	test   %al,%al
    7388:	0f 84 ec 00 00 00    	je     747a <sparse+0x14a>
    738e:	4c 89 e6             	mov    %r12,%rsi
    7391:	31 c9                	xor    %ecx,%ecx
    7393:	4c 8d 1d 46 20 00 00 	lea    0x2046(%rip),%r11        # 93e0 <_fini+0x12bf>
    739a:	eb 27                	jmp    73c3 <sparse+0x93>
    739c:	0f 1f 40 00          	nopl   0x0(%rax)
    73a0:	48 89 fa             	mov    %rdi,%rdx
    73a3:	88 06                	mov    %al,(%rsi)
    73a5:	0f b6 02             	movzbl (%rdx),%eax
    73a8:	83 c1 01             	add    $0x1,%ecx
    73ab:	48 8d 7a 01          	lea    0x1(%rdx),%rdi
    73af:	84 c0                	test   %al,%al
    73b1:	74 4d                	je     7400 <sparse+0xd0>
    73b3:	48 83 c6 01          	add    $0x1,%rsi
    73b7:	81 f9 ff 03 00 00    	cmp    $0x3ff,%ecx
    73bd:	0f 84 ad 00 00 00    	je     7470 <sparse+0x140>
    73c3:	41 38 c0             	cmp    %al,%r8b
    73c6:	74 38                	je     7400 <sparse+0xd0>
    73c8:	3c 5c                	cmp    $0x5c,%al
    73ca:	75 d4                	jne    73a0 <sparse+0x70>
    73cc:	44 0f b6 4a 01       	movzbl 0x1(%rdx),%r9d
    73d1:	45 84 c9             	test   %r9b,%r9b
    73d4:	74 ca                	je     73a0 <sparse+0x70>
    73d6:	48 83 c2 02          	add    $0x2,%rdx
    73da:	41 80 f9 6e          	cmp    $0x6e,%r9b
    73de:	74 40                	je     7420 <sparse+0xf0>
    73e0:	45 8d 51 a4          	lea    -0x5c(%r9),%r10d
    73e4:	41 80 fa 18          	cmp    $0x18,%r10b
    73e8:	77 46                	ja     7430 <sparse+0x100>
    73ea:	45 0f b6 d2          	movzbl %r10b,%r10d
    73ee:	4f 63 14 93          	movslq (%r11,%r10,4),%r10
    73f2:	4d 01 da             	add    %r11,%r10
    73f5:	41 ff e2             	jmp    *%r10
    73f8:	0f 1f 84 00 00 00 00 	nopl   0x0(%rax,%rax,1)
    73ff:	00 
    7400:	48 63 c9             	movslq %ecx,%rcx
    7403:	4c 01 e1             	add    %r12,%rcx
    7406:	c6 01 00             	movb   $0x0,(%rcx)
    7409:	4c 89 e0             	mov    %r12,%rax
    740c:	5b                   	pop    %rbx
    740d:	5d                   	pop    %rbp
    740e:	41 5c                	pop    %r12
    7410:	48 89 3d c9 12 23 00 	mov    %rdi,0x2312c9(%rip)        # 2386e0 <source>
    7417:	c3                   	ret    
    7418:	0f 1f 84 00 00 00 00 	nopl   0x0(%rax,%rax,1)
    741f:	00 
    7420:	b8 0a 00 00 00       	mov    $0xa,%eax
    7425:	e9 79 ff ff ff       	jmp    73a3 <sparse+0x73>
    742a:	66 0f 1f 44 00 00    	nopw   0x0(%rax,%rax,1)
    7430:	45 38 c1             	cmp    %r8b,%r9b
    7433:	48 0f 45 d7          	cmovne %rdi,%rdx
    7437:	41 0f 44 c0          	cmove  %r8d,%eax
    743b:	e9 63 ff ff ff       	jmp    73a3 <sparse+0x73>
    7440:	b8 09 00 00 00       	mov    $0x9,%eax
    7445:	e9 59 ff ff ff       	jmp    73a3 <sparse+0x73>
    744a:	b8 07 00 00 00       	mov    $0x7,%eax
    744f:	e9 4f ff ff ff       	jmp    73a3 <sparse+0x73>
    7454:	44 89 c8             	mov    %r9d,%eax
    7457:	e9 47 ff ff ff       	jmp    73a3 <sparse+0x73>
    745c:	b8 0d 00 00 00       	mov    $0xd,%eax
    7461:	e9 3d ff ff ff       	jmp    73a3 <sparse+0x73>
    7466:	b8 1b 00 00 00       	mov    $0x1b,%eax
    746b:	e9 33 ff ff ff       	jmp    73a3 <sparse+0x73>
    7470:	49 8d 8c 24 ff 03 00 	lea    0x3ff(%r12),%rcx
    7477:	00 
    7478:	eb 8c                	jmp    7406 <sparse+0xd6>
    747a:	4c 89 e1             	mov    %r12,%rcx
    747d:	eb 87                	jmp    7406 <sparse+0xd6>
    747f:	90                   	nop

0000000000007480 <label>:
    7480:	55                   	push   %rbp
    7481:	31 c0                	xor    %eax,%eax
    7483:	48 89 fd             	mov    %rdi,%rbp
    7486:	53                   	push   %rbx
    7487:	48 83 ec 08          	sub    $0x8,%rsp
    748b:	48 8b 1f             	mov    (%rdi),%rbx
    748e:	e8 fd fd ff ff       	call   7290 <parse>
    7493:	48 8d 3d e6 8d 00 00 	lea    0x8de6(%rip),%rdi        # 10280 <parsed>
    749a:	e8 11 bd ff ff       	call   31b0 <strdup@plt>
    749f:	48 89 03             	mov    %rax,(%rbx)
    74a2:	48 8b 05 f7 11 23 00 	mov    0x2311f7(%rip),%rax        # 2386a0 <current>
    74a9:	48 8b 10             	mov    (%rax),%rdx
    74ac:	48 89 5b 10          	mov    %rbx,0x10(%rbx)
    74b0:	48 89 53 08          	mov    %rdx,0x8(%rbx)
    74b4:	48 89 18             	mov    %rbx,(%rax)
    74b7:	48 8d 43 18          	lea    0x18(%rbx),%rax
    74bb:	48 89 45 00          	mov    %rax,0x0(%rbp)
    74bf:	48 8d 05 da 91 01 00 	lea    0x191da(%rip),%rax        # 206a0 <head>
    74c6:	48 c7 05 b7 91 00 00 	movq   $0x0,0x91b7(%rip)        # 10688 <compile_last>
    74cd:	00 00 00 00 
    74d1:	48 29 c3             	sub    %rax,%rbx
    74d4:	48 c7 05 a1 91 00 00 	movq   $0x0,0x91a1(%rip)        # 10680 <ncompile_last>
    74db:	00 00 00 00 
    74df:	48 c1 fb 03          	sar    $0x3,%rbx
    74e3:	48 83 c4 08          	add    $0x8,%rsp
    74e7:	66 69 c3 ab aa       	imul   $0xaaab,%bx,%ax
    74ec:	5b                   	pop    %rbx
    74ed:	5d                   	pop    %rbp
    74ee:	c3                   	ret    
    74ef:	90                   	nop

00000000000074f0 <format>:
    74f0:	41 57                	push   %r15
    74f2:	41 56                	push   %r14
    74f4:	41 55                	push   %r13
    74f6:	41 54                	push   %r12
    74f8:	55                   	push   %rbp
    74f9:	53                   	push   %rbx
    74fa:	48 89 fb             	mov    %rdi,%rbx
    74fd:	bf 00 00 01 00       	mov    $0x10000,%edi
    7502:	48 83 ec 68          	sub    $0x68,%rsp
    7506:	48 89 74 24 18       	mov    %rsi,0x18(%rsp)
    750b:	64 48 8b 04 25 28 00 	mov    %fs:0x28,%rax
    7512:	00 00 
    7514:	48 89 44 24 58       	mov    %rax,0x58(%rsp)
    7519:	48 8b 06             	mov    (%rsi),%rax
    751c:	48 89 44 24 08       	mov    %rax,0x8(%rsp)
    7521:	e8 7a bb ff ff       	call   30a0 <malloc@plt>
    7526:	8b 3d 1c 8d 00 00    	mov    0x8d1c(%rip),%edi        # 10248 <format_i>
    752c:	31 d2                	xor    %edx,%edx
    752e:	49 89 c4             	mov    %rax,%r12
    7531:	83 ff 02             	cmp    $0x2,%edi
    7534:	8d 47 01             	lea    0x1(%rdi),%eax
    7537:	89 7c 24 14          	mov    %edi,0x14(%rsp)
    753b:	0f 44 c2             	cmove  %edx,%eax
    753e:	89 05 04 8d 00 00    	mov    %eax,0x8d04(%rip)        # 10248 <format_i>
    7544:	0f b6 03             	movzbl (%rbx),%eax
    7547:	84 c0                	test   %al,%al
    7549:	0f 84 e9 01 00 00    	je     7738 <format+0x248>
    754f:	45 31 ed             	xor    %r13d,%r13d
    7552:	48 8d 74 24 30       	lea    0x30(%rsp),%rsi
    7557:	4c 89 24 24          	mov    %r12,(%rsp)
    755b:	45 31 f6             	xor    %r14d,%r14d
    755e:	48 89 74 24 20       	mov    %rsi,0x20(%rsp)
    7563:	4d 89 ec             	mov    %r13,%r12
    7566:	eb 29                	jmp    7591 <format+0xa1>
    7568:	0f 1f 84 00 00 00 00 	nopl   0x0(%rax,%rax,1)
    756f:	00 
    7570:	48 8b 0c 24          	mov    (%rsp),%rcx
    7574:	41 83 c6 01          	add    $0x1,%r14d
    7578:	4c 89 fb             	mov    %r15,%rbx
    757b:	42 88 04 21          	mov    %al,(%rcx,%r12,1)
    757f:	89 e8                	mov    %ebp,%eax
    7581:	4d 63 e6             	movslq %r14d,%r12
    7584:	41 81 fe fd ff 00 00 	cmp    $0xfffd,%r14d
    758b:	7f 33                	jg     75c0 <format+0xd0>
    758d:	84 d2                	test   %dl,%dl
    758f:	74 2f                	je     75c0 <format+0xd0>
    7591:	0f b6 6b 01          	movzbl 0x1(%rbx),%ebp
    7595:	4c 8d 7b 01          	lea    0x1(%rbx),%r15
    7599:	40 84 ed             	test   %bpl,%bpl
    759c:	0f 95 c2             	setne  %dl
    759f:	3c 25                	cmp    $0x25,%al
    75a1:	75 cd                	jne    7570 <format+0x80>
    75a3:	84 d2                	test   %dl,%dl
    75a5:	74 c9                	je     7570 <format+0x80>
    75a7:	40 80 fd 25          	cmp    $0x25,%bpl
    75ab:	75 73                	jne    7620 <format+0x130>
    75ad:	0f b6 6b 02          	movzbl 0x2(%rbx),%ebp
    75b1:	4c 8d 7b 02          	lea    0x2(%rbx),%r15
    75b5:	40 84 ed             	test   %bpl,%bpl
    75b8:	0f 95 c2             	setne  %dl
    75bb:	eb b3                	jmp    7570 <format+0x80>
    75bd:	0f 1f 00             	nopl   (%rax)
    75c0:	4d 89 e5             	mov    %r12,%r13
    75c3:	4c 8b 24 24          	mov    (%rsp),%r12
    75c7:	4b 8d 14 2c          	lea    (%r12,%r13,1),%rdx
    75cb:	48 63 5c 24 14       	movslq 0x14(%rsp),%rbx
    75d0:	48 8d 2d 59 8c 00 00 	lea    0x8c59(%rip),%rbp        # 10230 <format_bufs>
    75d7:	c6 02 00             	movb   $0x0,(%rdx)
    75da:	48 8b 7c dd 00       	mov    0x0(%rbp,%rbx,8),%rdi
    75df:	e8 4c bd ff ff       	call   3330 <free@plt>
    75e4:	48 8b 44 24 18       	mov    0x18(%rsp),%rax
    75e9:	48 8b 4c 24 08       	mov    0x8(%rsp),%rcx
    75ee:	4c 89 64 dd 00       	mov    %r12,0x0(%rbp,%rbx,8)
    75f3:	48 89 08             	mov    %rcx,(%rax)
    75f6:	48 8b 44 24 58       	mov    0x58(%rsp),%rax
    75fb:	64 48 2b 04 25 28 00 	sub    %fs:0x28,%rax
    7602:	00 00 
    7604:	0f 85 36 01 00 00    	jne    7740 <format+0x250>
    760a:	48 83 c4 68          	add    $0x68,%rsp
    760e:	4c 89 e0             	mov    %r12,%rax
    7611:	5b                   	pop    %rbx
    7612:	5d                   	pop    %rbp
    7613:	41 5c                	pop    %r12
    7615:	41 5d                	pop    %r13
    7617:	41 5e                	pop    %r14
    7619:	41 5f                	pop    %r15
    761b:	c3                   	ret    
    761c:	0f 1f 40 00          	nopl   0x0(%rax)
    7620:	c6 44 24 30 25       	movb   $0x25,0x30(%rsp)
    7625:	4c 8d 6c 24 31       	lea    0x31(%rsp),%r13
    762a:	4c 89 64 24 28       	mov    %r12,0x28(%rsp)
    762f:	eb 0f                	jmp    7640 <format+0x150>
    7631:	0f 1f 80 00 00 00 00 	nopl   0x0(%rax)
    7638:	41 0f b6 6f 01       	movzbl 0x1(%r15),%ebp
    763d:	49 89 df             	mov    %rbx,%r15
    7640:	41 88 6d 00          	mov    %bpl,0x0(%r13)
    7644:	44 0f be e5          	movsbl %bpl,%r12d
    7648:	49 83 c5 01          	add    $0x1,%r13
    764c:	49 8d 5f 01          	lea    0x1(%r15),%rbx
    7650:	44 89 e6             	mov    %r12d,%esi
    7653:	48 8d 3d bd 19 00 00 	lea    0x19bd(%rip),%rdi        # 9017 <_fini+0xef6>
    765a:	e8 91 bc ff ff       	call   32f0 <strchr@plt>
    765f:	48 85 c0             	test   %rax,%rax
    7662:	74 d4                	je     7638 <format+0x148>
    7664:	48 8b 04 24          	mov    (%rsp),%rax
    7668:	44 89 e6             	mov    %r12d,%esi
    766b:	4c 8b 64 24 28       	mov    0x28(%rsp),%r12
    7670:	41 c6 45 00 00       	movb   $0x0,0x0(%r13)
    7675:	4e 8d 2c 20          	lea    (%rax,%r12,1),%r13
    7679:	40 80 fd 73          	cmp    $0x73,%bpl
    767d:	74 19                	je     7698 <format+0x1a8>
    767f:	48 8d 3d 9f 19 00 00 	lea    0x199f(%rip),%rdi        # 9025 <_fini+0xf04>
    7686:	89 74 24 28          	mov    %esi,0x28(%rsp)
    768a:	e8 61 bc ff ff       	call   32f0 <strchr@plt>
    768f:	8b 74 24 28          	mov    0x28(%rsp),%esi
    7693:	48 85 c0             	test   %rax,%rax
    7696:	74 48                	je     76e0 <format+0x1f0>
    7698:	48 8b 44 24 08       	mov    0x8(%rsp),%rax
    769d:	be 00 00 01 00       	mov    $0x10000,%esi
    76a2:	48 8b 54 24 20       	mov    0x20(%rsp),%rdx
    76a7:	4c 89 ef             	mov    %r13,%rdi
    76aa:	44 29 f6             	sub    %r14d,%esi
    76ad:	48 8b 48 f8          	mov    -0x8(%rax),%rcx
    76b1:	48 8d 68 f8          	lea    -0x8(%rax),%rbp
    76b5:	48 63 f6             	movslq %esi,%rsi
    76b8:	31 c0                	xor    %eax,%eax
    76ba:	e8 91 b9 ff ff       	call   3050 <snprintf@plt>
    76bf:	41 01 c6             	add    %eax,%r14d
    76c2:	41 0f b6 47 01       	movzbl 0x1(%r15),%eax
    76c7:	48 89 6c 24 08       	mov    %rbp,0x8(%rsp)
    76cc:	4d 63 e6             	movslq %r14d,%r12
    76cf:	84 c0                	test   %al,%al
    76d1:	0f 95 c2             	setne  %dl
    76d4:	e9 ab fe ff ff       	jmp    7584 <format+0x94>
    76d9:	0f 1f 80 00 00 00 00 	nopl   0x0(%rax)
    76e0:	48 8d 3d 46 19 00 00 	lea    0x1946(%rip),%rdi        # 902d <_fini+0xf0c>
    76e7:	e8 04 bc ff ff       	call   32f0 <strchr@plt>
    76ec:	48 85 c0             	test   %rax,%rax
    76ef:	74 32                	je     7723 <format+0x233>
    76f1:	48 8b 44 24 08       	mov    0x8(%rsp),%rax
    76f6:	66 0f ef c0          	pxor   %xmm0,%xmm0
    76fa:	be 00 00 01 00       	mov    $0x10000,%esi
    76ff:	4c 89 ef             	mov    %r13,%rdi
    7702:	44 29 f6             	sub    %r14d,%esi
    7705:	48 8b 54 24 20       	mov    0x20(%rsp),%rdx
    770a:	f2 48 0f 2a 40 f8    	cvtsi2sdq -0x8(%rax),%xmm0
    7710:	48 8d 68 f8          	lea    -0x8(%rax),%rbp
    7714:	48 63 f6             	movslq %esi,%rsi
    7717:	b8 01 00 00 00       	mov    $0x1,%eax
    771c:	e8 2f b9 ff ff       	call   3050 <snprintf@plt>
    7721:	eb 9c                	jmp    76bf <format+0x1cf>
    7723:	41 0f b6 47 01       	movzbl 0x1(%r15),%eax
    7728:	84 c0                	test   %al,%al
    772a:	0f 95 c2             	setne  %dl
    772d:	e9 52 fe ff ff       	jmp    7584 <format+0x94>
    7732:	66 0f 1f 44 00 00    	nopw   0x0(%rax,%rax,1)
    7738:	4c 89 e2             	mov    %r12,%rdx
    773b:	e9 8b fe ff ff       	jmp    75cb <format+0xdb>
    7740:	e8 7b b9 ff ff       	call   30c0 <__stack_chk_fail@plt>
    7745:	66 66 2e 0f 1f 84 00 	data16 cs nopw 0x0(%rax,%rax,1)
    774c:	00 00 00 00 

0000000000007750 <date_format>:
    7750:	41 56                	push   %r14
    7752:	41 55                	push   %r13
    7754:	49 89 fd             	mov    %rdi,%r13
    7757:	41 54                	push   %r12
    7759:	53                   	push   %rbx
    775a:	48 83 ec 18          	sub    $0x18,%rsp
    775e:	64 48 8b 04 25 28 00 	mov    %fs:0x28,%rax
    7765:	00 00 
    7767:	48 89 44 24 08       	mov    %rax,0x8(%rsp)
    776c:	31 c0                	xor    %eax,%eax
    776e:	48 89 e7             	mov    %rsp,%rdi
    7771:	48 89 34 24          	mov    %rsi,(%rsp)
    7775:	e8 66 ba ff ff       	call   31e0 <localtime@plt>
    777a:	bf 00 00 01 00       	mov    $0x10000,%edi
    777f:	49 89 c6             	mov    %rax,%r14
    7782:	e8 19 b9 ff ff       	call   30a0 <malloc@plt>
    7787:	31 d2                	xor    %edx,%edx
    7789:	4c 89 f1             	mov    %r14,%rcx
    778c:	be 00 00 01 00       	mov    $0x10000,%esi
    7791:	48 63 1d b0 8a 00 00 	movslq 0x8ab0(%rip),%rbx        # 10248 <format_i>
    7798:	49 89 c4             	mov    %rax,%r12
    779b:	4c 89 e7             	mov    %r12,%rdi
    779e:	83 fb 02             	cmp    $0x2,%ebx
    77a1:	8d 43 01             	lea    0x1(%rbx),%eax
    77a4:	0f 44 c2             	cmove  %edx,%eax
    77a7:	4c 89 ea             	mov    %r13,%rdx
    77aa:	4c 8d 2d 7f 8a 00 00 	lea    0x8a7f(%rip),%r13        # 10230 <format_bufs>
    77b1:	89 05 91 8a 00 00    	mov    %eax,0x8a91(%rip)        # 10248 <format_i>
    77b7:	e8 c4 ba ff ff       	call   3280 <strftime@plt>
    77bc:	49 8b 7c dd 00       	mov    0x0(%r13,%rbx,8),%rdi
    77c1:	e8 6a bb ff ff       	call   3330 <free@plt>
    77c6:	4d 89 64 dd 00       	mov    %r12,0x0(%r13,%rbx,8)
    77cb:	48 8b 44 24 08       	mov    0x8(%rsp),%rax
    77d0:	64 48 2b 04 25 28 00 	sub    %fs:0x28,%rax
    77d7:	00 00 
    77d9:	75 0f                	jne    77ea <date_format+0x9a>
    77db:	48 83 c4 18          	add    $0x18,%rsp
    77df:	4c 89 e0             	mov    %r12,%rax
    77e2:	5b                   	pop    %rbx
    77e3:	41 5c                	pop    %r12
    77e5:	41 5d                	pop    %r13
    77e7:	41 5e                	pop    %r14
    77e9:	c3                   	ret    
    77ea:	e8 d1 b8 ff ff       	call   30c0 <__stack_chk_fail@plt>
    77ef:	90                   	nop

00000000000077f0 <find>:
    77f0:	80 3e 00             	cmpb   $0x0,(%rsi)
    77f3:	74 0b                	je     7800 <find+0x10>
    77f5:	e9 96 f5 ff ff       	jmp    6d90 <find.part.0>
    77fa:	66 0f 1f 44 00 00    	nopw   0x0(%rax,%rax,1)
    7800:	31 c0                	xor    %eax,%eax
    7802:	c3                   	ret    
    7803:	66 66 2e 0f 1f 84 00 	data16 cs nopw 0x0(%rax,%rax,1)
    780a:	00 00 00 00 
    780e:	66 90                	xchg   %ax,%ax

0000000000007810 <findpair>:
    7810:	41 57                	push   %r15
    7812:	41 56                	push   %r14
    7814:	41 55                	push   %r13
    7816:	41 54                	push   %r12
    7818:	49 89 d4             	mov    %rdx,%r12
    781b:	55                   	push   %rbp
    781c:	53                   	push   %rbx
    781d:	48 83 ec 08          	sub    $0x8,%rsp
    7821:	0f b6 06             	movzbl (%rsi),%eax
    7824:	84 c0                	test   %al,%al
    7826:	0f 84 d4 00 00 00    	je     7900 <findpair+0xf0>
    782c:	3c 2e                	cmp    $0x2e,%al
    782e:	0f 84 cc 00 00 00    	je     7900 <findpair+0xf0>
    7834:	48 89 f5             	mov    %rsi,%rbp
    7837:	48 89 fb             	mov    %rdi,%rbx
    783a:	be 2e 00 00 00       	mov    $0x2e,%esi
    783f:	48 89 ef             	mov    %rbp,%rdi
    7842:	e8 a9 ba ff ff       	call   32f0 <strchr@plt>
    7847:	49 89 c5             	mov    %rax,%r13
    784a:	48 85 c0             	test   %rax,%rax
    784d:	0f 84 ad 00 00 00    	je     7900 <findpair+0xf0>
    7853:	c6 00 00             	movb   $0x0,(%rax)
    7856:	48 85 db             	test   %rbx,%rbx
    7859:	0f 84 c1 00 00 00    	je     7920 <findpair+0x110>
    785f:	44 0f b7 75 00       	movzwl 0x0(%rbp),%r14d
    7864:	eb 17                	jmp    787d <findpair+0x6d>
    7866:	66 2e 0f 1f 84 00 00 	cs nopw 0x0(%rax,%rax,1)
    786d:	00 00 00 
    7870:	48 8b 5b 08          	mov    0x8(%rbx),%rbx
    7874:	48 85 db             	test   %rbx,%rbx
    7877:	0f 84 a3 00 00 00    	je     7920 <findpair+0x110>
    787d:	48 8b 3b             	mov    (%rbx),%rdi
    7880:	66 44 39 37          	cmp    %r14w,(%rdi)
    7884:	75 ea                	jne    7870 <findpair+0x60>
    7886:	48 89 ee             	mov    %rbp,%rsi
    7889:	e8 d2 b9 ff ff       	call   3260 <strcmp@plt>
    788e:	85 c0                	test   %eax,%eax
    7890:	75 de                	jne    7870 <findpair+0x60>
    7892:	48 8b 6b 10          	mov    0x10(%rbx),%rbp
    7896:	48 85 ed             	test   %rbp,%rbp
    7899:	0f 84 81 00 00 00    	je     7920 <findpair+0x110>
    789f:	45 0f b7 7d 01       	movzwl 0x1(%r13),%r15d
    78a4:	4d 8d 75 01          	lea    0x1(%r13),%r14
    78a8:	eb 0f                	jmp    78b9 <findpair+0xa9>
    78aa:	66 0f 1f 44 00 00    	nopw   0x0(%rax,%rax,1)
    78b0:	48 8b 6d 08          	mov    0x8(%rbp),%rbp
    78b4:	48 85 ed             	test   %rbp,%rbp
    78b7:	74 67                	je     7920 <findpair+0x110>
    78b9:	48 8b 7d 00          	mov    0x0(%rbp),%rdi
    78bd:	66 44 39 3f          	cmp    %r15w,(%rdi)
    78c1:	75 ed                	jne    78b0 <findpair+0xa0>
    78c3:	4c 89 f6             	mov    %r14,%rsi
    78c6:	e8 95 b9 ff ff       	call   3260 <strcmp@plt>
    78cb:	85 c0                	test   %eax,%eax
    78cd:	75 e1                	jne    78b0 <findpair+0xa0>
    78cf:	48 8d 0d ca 8d 01 00 	lea    0x18dca(%rip),%rcx        # 206a0 <head>
    78d6:	48 89 d8             	mov    %rbx,%rax
    78d9:	48 ba ab aa aa aa aa 	movabs $0xaaaaaaaaaaaaaaab,%rdx
    78e0:	aa aa aa 
    78e3:	48 29 cd             	sub    %rcx,%rbp
    78e6:	48 29 c8             	sub    %rcx,%rax
    78e9:	48 c1 fd 03          	sar    $0x3,%rbp
    78ed:	48 c1 f8 03          	sar    $0x3,%rax
    78f1:	0f af ea             	imul   %edx,%ebp
    78f4:	0f af c2             	imul   %edx,%eax
    78f7:	eb 2b                	jmp    7924 <findpair+0x114>
    78f9:	0f 1f 80 00 00 00 00 	nopl   0x0(%rax)
    7900:	31 c0                	xor    %eax,%eax
    7902:	31 ed                	xor    %ebp,%ebp
    7904:	66 41 89 2c 24       	mov    %bp,(%r12)
    7909:	48 83 c4 08          	add    $0x8,%rsp
    790d:	5b                   	pop    %rbx
    790e:	5d                   	pop    %rbp
    790f:	41 5c                	pop    %r12
    7911:	41 5d                	pop    %r13
    7913:	41 5e                	pop    %r14
    7915:	41 5f                	pop    %r15
    7917:	c3                   	ret    
    7918:	0f 1f 84 00 00 00 00 	nopl   0x0(%rax,%rax,1)
    791f:	00 
    7920:	31 c0                	xor    %eax,%eax
    7922:	31 ed                	xor    %ebp,%ebp
    7924:	41 c6 45 00 2e       	movb   $0x2e,0x0(%r13)
    7929:	eb d9                	jmp    7904 <findpair+0xf4>
    792b:	0f 1f 44 00 00       	nopl   0x0(%rax,%rax,1)

0000000000007930 <number>:
    7930:	41 56                	push   %r14
    7932:	41 55                	push   %r13
    7934:	41 54                	push   %r12
    7936:	55                   	push   %rbp
    7937:	53                   	push   %rbx
    7938:	48 83 ec 40          	sub    $0x40,%rsp
    793c:	64 48 8b 04 25 28 00 	mov    %fs:0x28,%rax
    7943:	00 00 
    7945:	48 89 44 24 38       	mov    %rax,0x38(%rsp)
    794a:	31 c0                	xor    %eax,%eax
    794c:	48 c7 06 00 00 00 00 	movq   $0x0,(%rsi)
    7953:	48 85 ff             	test   %rdi,%rdi
    7956:	74 6c                	je     79c4 <number+0x94>
    7958:	48 89 fd             	mov    %rdi,%rbp
    795b:	49 89 f4             	mov    %rsi,%r12
    795e:	e8 6d b9 ff ff       	call   32d0 <strlen@plt>
    7963:	ba 1f 00 00 00       	mov    $0x1f,%edx
    7968:	39 d0                	cmp    %edx,%eax
    796a:	0f 4e d0             	cmovle %eax,%edx
    796d:	4c 63 ea             	movslq %edx,%r13
    7970:	4c 89 eb             	mov    %r13,%rbx
    7973:	49 83 fd 20          	cmp    $0x20,%r13
    7977:	0f 87 e3 b9 ff ff    	ja     3360 <number.cold>
    797d:	4c 8d 74 24 10       	lea    0x10(%rsp),%r14
    7982:	83 eb 01             	sub    $0x1,%ebx
    7985:	4c 89 ea             	mov    %r13,%rdx
    7988:	48 89 ee             	mov    %rbp,%rsi
    798b:	4c 89 f7             	mov    %r14,%rdi
    798e:	48 63 db             	movslq %ebx,%rbx
    7991:	e8 ca b7 ff ff       	call   3160 <strncpy@plt>
    7996:	42 c6 44 2c 10 00    	movb   $0x0,0x10(%rsp,%r13,1)
    799c:	0f b6 44 1c 10       	movzbl 0x10(%rsp,%rbx,1),%eax
    79a1:	3c 68                	cmp    $0x68,%al
    79a3:	74 43                	je     79e8 <number+0xb8>
    79a5:	3c 62                	cmp    $0x62,%al
    79a7:	74 7f                	je     7a28 <number+0xf8>
    79a9:	66 81 7c 24 10 30 78 	cmpw   $0x7830,0x10(%rsp)
    79b0:	ba 0a 00 00 00       	mov    $0xa,%edx
    79b5:	b8 10 00 00 00       	mov    $0x10,%eax
    79ba:	0f 44 d0             	cmove  %eax,%edx
    79bd:	80 7c 24 10 00       	cmpb   $0x0,0x10(%rsp)
    79c2:	75 35                	jne    79f9 <number+0xc9>
    79c4:	31 c0                	xor    %eax,%eax
    79c6:	48 8b 54 24 38       	mov    0x38(%rsp),%rdx
    79cb:	64 48 2b 14 25 28 00 	sub    %fs:0x28,%rdx
    79d2:	00 00 
    79d4:	75 5e                	jne    7a34 <number+0x104>
    79d6:	48 83 c4 40          	add    $0x40,%rsp
    79da:	5b                   	pop    %rbx
    79db:	5d                   	pop    %rbp
    79dc:	41 5c                	pop    %r12
    79de:	41 5d                	pop    %r13
    79e0:	41 5e                	pop    %r14
    79e2:	c3                   	ret    
    79e3:	0f 1f 44 00 00       	nopl   0x0(%rax,%rax,1)
    79e8:	c6 44 1c 10 00       	movb   $0x0,0x10(%rsp,%rbx,1)
    79ed:	80 7c 24 10 00       	cmpb   $0x0,0x10(%rsp)
    79f2:	ba 10 00 00 00       	mov    $0x10,%edx
    79f7:	74 cb                	je     79c4 <number+0x94>
    79f9:	4c 89 f7             	mov    %r14,%rdi
    79fc:	48 8d 74 24 08       	lea    0x8(%rsp),%rsi
    7a01:	e8 ca b6 ff ff       	call   30d0 <strtol@plt>
    7a06:	4c 89 f7             	mov    %r14,%rdi
    7a09:	49 89 04 24          	mov    %rax,(%r12)
    7a0d:	e8 be b8 ff ff       	call   32d0 <strlen@plt>
    7a12:	49 01 c6             	add    %rax,%r14
    7a15:	31 c0                	xor    %eax,%eax
    7a17:	4c 39 74 24 08       	cmp    %r14,0x8(%rsp)
    7a1c:	0f 94 c0             	sete   %al
    7a1f:	48 f7 d8             	neg    %rax
    7a22:	eb a2                	jmp    79c6 <number+0x96>
    7a24:	0f 1f 40 00          	nopl   0x0(%rax)
    7a28:	c6 44 1c 10 00       	movb   $0x0,0x10(%rsp,%rbx,1)
    7a2d:	ba 02 00 00 00       	mov    $0x2,%edx
    7a32:	eb 89                	jmp    79bd <number+0x8d>
    7a34:	e8 87 b6 ff ff       	call   30c0 <__stack_chk_fail@plt>
    7a39:	0f 1f 80 00 00 00 00 	nopl   0x0(%rax)

0000000000007a40 <at_xy>:
    7a40:	41 54                	push   %r12
    7a42:	48 8d 15 ed 15 00 00 	lea    0x15ed(%rip),%rdx        # 9036 <_fini+0xf15>
    7a49:	55                   	push   %rbp
    7a4a:	48 83 ec 38          	sub    $0x38,%rsp
    7a4e:	64 48 8b 04 25 28 00 	mov    %fs:0x28,%rax
    7a55:	00 00 
    7a57:	48 89 44 24 28       	mov    %rax,0x28(%rsp)
    7a5c:	31 c0                	xor    %eax,%eax
    7a5e:	85 ff                	test   %edi,%edi
    7a60:	48 89 e5             	mov    %rsp,%rbp
    7a63:	0f 48 f8             	cmovs  %eax,%edi
    7a66:	85 f6                	test   %esi,%esi
    7a68:	0f 48 f0             	cmovs  %eax,%esi
    7a6b:	44 8d 47 01          	lea    0x1(%rdi),%r8d
    7a6f:	48 89 ef             	mov    %rbp,%rdi
    7a72:	8d 4e 01             	lea    0x1(%rsi),%ecx
    7a75:	be 20 00 00 00       	mov    $0x20,%esi
    7a7a:	e8 d1 b5 ff ff       	call   3050 <snprintf@plt>
    7a7f:	83 c0 01             	add    $0x1,%eax
    7a82:	83 f8 20             	cmp    $0x20,%eax
    7a85:	0f 87 d7 b8 ff ff    	ja     3362 <at_xy.cold>
    7a8b:	48 89 ef             	mov    %rbp,%rdi
    7a8e:	e8 3d b8 ff ff       	call   32d0 <strlen@plt>
    7a93:	48 8b 3d 86 87 00 00 	mov    0x8786(%rip),%rdi        # 10220 <stdout_current>
    7a9a:	49 89 c4             	mov    %rax,%r12
    7a9d:	e8 0e b8 ff ff       	call   32b0 <fileno@plt>
    7aa2:	4c 89 e2             	mov    %r12,%rdx
    7aa5:	48 89 ee             	mov    %rbp,%rsi
    7aa8:	89 c7                	mov    %eax,%edi
    7aaa:	e8 51 b6 ff ff       	call   3100 <write@plt>
    7aaf:	48 8b 44 24 28       	mov    0x28(%rsp),%rax
    7ab4:	64 48 2b 04 25 28 00 	sub    %fs:0x28,%rax
    7abb:	00 00 
    7abd:	75 08                	jne    7ac7 <at_xy+0x87>
    7abf:	48 83 c4 38          	add    $0x38,%rsp
    7ac3:	5d                   	pop    %rbp
    7ac4:	41 5c                	pop    %r12
    7ac6:	c3                   	ret    
    7ac7:	e8 f4 b5 ff ff       	call   30c0 <__stack_chk_fail@plt>
    7acc:	0f 1f 40 00          	nopl   0x0(%rax)

0000000000007ad0 <max_xy>:
    7ad0:	55                   	push   %rbp
    7ad1:	48 89 fd             	mov    %rdi,%rbp
    7ad4:	53                   	push   %rbx
    7ad5:	48 89 f3             	mov    %rsi,%rbx
    7ad8:	48 83 ec 18          	sub    $0x18,%rsp
    7adc:	48 8b 3d 45 87 00 00 	mov    0x8745(%rip),%rdi        # 10228 <stdin_current>
    7ae3:	64 48 8b 04 25 28 00 	mov    %fs:0x28,%rax
    7aea:	00 00 
    7aec:	48 89 44 24 08       	mov    %rax,0x8(%rsp)
    7af1:	31 c0                	xor    %eax,%eax
    7af3:	e8 b8 b7 ff ff       	call   32b0 <fileno@plt>
    7af8:	48 89 e2             	mov    %rsp,%rdx
    7afb:	be 13 54 00 00       	mov    $0x5413,%esi
    7b00:	89 c7                	mov    %eax,%edi
    7b02:	31 c0                	xor    %eax,%eax
    7b04:	e8 27 b5 ff ff       	call   3030 <ioctl@plt>
    7b09:	0f b7 44 24 02       	movzwl 0x2(%rsp),%eax
    7b0e:	83 e8 01             	sub    $0x1,%eax
    7b11:	89 45 00             	mov    %eax,0x0(%rbp)
    7b14:	0f b7 04 24          	movzwl (%rsp),%eax
    7b18:	83 e8 01             	sub    $0x1,%eax
    7b1b:	89 03                	mov    %eax,(%rbx)
    7b1d:	48 8b 44 24 08       	mov    0x8(%rsp),%rax
    7b22:	64 48 2b 04 25 28 00 	sub    %fs:0x28,%rax
    7b29:	00 00 
    7b2b:	75 07                	jne    7b34 <max_xy+0x64>
    7b2d:	48 83 c4 18          	add    $0x18,%rsp
    7b31:	5b                   	pop    %rbx
    7b32:	5d                   	pop    %rbp
    7b33:	c3                   	ret    
    7b34:	e8 87 b5 ff ff       	call   30c0 <__stack_chk_fail@plt>
    7b39:	0f 1f 80 00 00 00 00 	nopl   0x0(%rax)

0000000000007b40 <key>:
    7b40:	48 83 ec 18          	sub    $0x18,%rsp
    7b44:	48 8b 3d dd 86 00 00 	mov    0x86dd(%rip),%rdi        # 10228 <stdin_current>
    7b4b:	64 48 8b 04 25 28 00 	mov    %fs:0x28,%rax
    7b52:	00 00 
    7b54:	48 89 44 24 08       	mov    %rax,0x8(%rsp)
    7b59:	31 c0                	xor    %eax,%eax
    7b5b:	c6 44 24 07 00       	movb   $0x0,0x7(%rsp)
    7b60:	e8 4b b7 ff ff       	call   32b0 <fileno@plt>
    7b65:	48 8d 74 24 07       	lea    0x7(%rsp),%rsi
    7b6a:	ba 01 00 00 00       	mov    $0x1,%edx
    7b6f:	89 c7                	mov    %eax,%edi
    7b71:	e8 ca b5 ff ff       	call   3140 <read@plt>
    7b76:	49 89 c0             	mov    %rax,%r8
    7b79:	31 c0                	xor    %eax,%eax
    7b7b:	45 85 c0             	test   %r8d,%r8d
    7b7e:	7e 05                	jle    7b85 <key+0x45>
    7b80:	0f be 44 24 07       	movsbl 0x7(%rsp),%eax
    7b85:	48 8b 54 24 08       	mov    0x8(%rsp),%rdx
    7b8a:	64 48 2b 14 25 28 00 	sub    %fs:0x28,%rdx
    7b91:	00 00 
    7b93:	75 05                	jne    7b9a <key+0x5a>
    7b95:	48 83 c4 18          	add    $0x18,%rsp
    7b99:	c3                   	ret    
    7b9a:	e8 21 b5 ff ff       	call   30c0 <__stack_chk_fail@plt>
    7b9f:	90                   	nop

0000000000007ba0 <keyq>:
    7ba0:	48 83 ec 18          	sub    $0x18,%rsp
    7ba4:	48 8b 3d 7d 86 00 00 	mov    0x867d(%rip),%rdi        # 10228 <stdin_current>
    7bab:	64 48 8b 04 25 28 00 	mov    %fs:0x28,%rax
    7bb2:	00 00 
    7bb4:	48 89 44 24 08       	mov    %rax,0x8(%rsp)
    7bb9:	31 c0                	xor    %eax,%eax
    7bbb:	e8 f0 b6 ff ff       	call   32b0 <fileno@plt>
    7bc0:	31 d2                	xor    %edx,%edx
    7bc2:	48 89 e7             	mov    %rsp,%rdi
    7bc5:	be 01 00 00 00       	mov    $0x1,%esi
    7bca:	89 04 24             	mov    %eax,(%rsp)
    7bcd:	c7 44 24 04 01 00 00 	movl   $0x1,0x4(%rsp)
    7bd4:	00 
    7bd5:	e8 76 b6 ff ff       	call   3250 <poll@plt>
    7bda:	85 c0                	test   %eax,%eax
    7bdc:	0f 9f c0             	setg   %al
    7bdf:	0f b6 c0             	movzbl %al,%eax
    7be2:	f7 d8                	neg    %eax
    7be4:	48 8b 54 24 08       	mov    0x8(%rsp),%rdx
    7be9:	64 48 2b 14 25 28 00 	sub    %fs:0x28,%rdx
    7bf0:	00 00 
    7bf2:	75 05                	jne    7bf9 <keyq+0x59>
    7bf4:	48 83 c4 18          	add    $0x18,%rsp
    7bf8:	c3                   	ret    
    7bf9:	e8 c2 b4 ff ff       	call   30c0 <__stack_chk_fail@plt>
    7bfe:	66 90                	xchg   %ax,%ax

0000000000007c00 <regex>:
    7c00:	41 55                	push   %r13
    7c02:	4c 8d 2d f7 85 00 00 	lea    0x85f7(%rip),%r13        # 10200 <re_patterns>
    7c09:	41 54                	push   %r12
    7c0b:	55                   	push   %rbp
    7c0c:	48 89 fd             	mov    %rdi,%rbp
    7c0f:	53                   	push   %rbx
    7c10:	31 db                	xor    %ebx,%ebx
    7c12:	48 83 ec 08          	sub    $0x8,%rsp
    7c16:	49 8b 74 dd 00       	mov    0x0(%r13,%rbx,8),%rsi
    7c1b:	4c 63 e3             	movslq %ebx,%r12
    7c1e:	48 85 f6             	test   %rsi,%rsi
    7c21:	74 0d                	je     7c30 <regex+0x30>
    7c23:	0f b7 06             	movzwl (%rsi),%eax
    7c26:	66 39 45 00          	cmp    %ax,0x0(%rbp)
    7c2a:	0f 84 a0 00 00 00    	je     7cd0 <regex+0xd0>
    7c30:	48 83 c3 01          	add    $0x1,%rbx
    7c34:	48 83 fb 04          	cmp    $0x4,%rbx
    7c38:	75 dc                	jne    7c16 <regex+0x16>
    7c3a:	31 c0                	xor    %eax,%eax
    7c3c:	49 83 7c c5 00 00    	cmpq   $0x0,0x0(%r13,%rax,8)
    7c42:	0f 84 b8 00 00 00    	je     7d00 <regex+0x100>
    7c48:	48 83 c0 01          	add    $0x1,%rax
    7c4c:	48 83 f8 04          	cmp    $0x4,%rax
    7c50:	75 ea                	jne    7c3c <regex+0x3c>
    7c52:	4c 8d 25 a7 84 00 00 	lea    0x84a7(%rip),%r12        # 10100 <re_compiled>
    7c59:	bb 03 00 00 00       	mov    $0x3,%ebx
    7c5e:	4c 89 e7             	mov    %r12,%rdi
    7c61:	e8 7a b6 ff ff       	call   32e0 <regfree@plt>
    7c66:	49 8b 7d 00          	mov    0x0(%r13),%rdi
    7c6a:	e8 c1 b6 ff ff       	call   3330 <free@plt>
    7c6f:	ba c0 00 00 00       	mov    $0xc0,%edx
    7c74:	49 8d 74 24 40       	lea    0x40(%r12),%rsi
    7c79:	4c 89 e7             	mov    %r12,%rdi
    7c7c:	e8 bf b3 ff ff       	call   3040 <memmove@plt>
    7c81:	ba 18 00 00 00       	mov    $0x18,%edx
    7c86:	48 8d 35 7b 85 00 00 	lea    0x857b(%rip),%rsi        # 10208 <re_patterns+0x8>
    7c8d:	4c 89 ef             	mov    %r13,%rdi
    7c90:	e8 ab b3 ff ff       	call   3040 <memmove@plt>
    7c95:	b8 c0 00 00 00       	mov    $0xc0,%eax
    7c9a:	49 01 c4             	add    %rax,%r12
    7c9d:	48 89 ef             	mov    %rbp,%rdi
    7ca0:	e8 0b b5 ff ff       	call   31b0 <strdup@plt>
    7ca5:	ba 01 00 00 00       	mov    $0x1,%edx
    7caa:	48 89 ee             	mov    %rbp,%rsi
    7cad:	4c 89 e7             	mov    %r12,%rdi
    7cb0:	49 89 44 dd 00       	mov    %rax,0x0(%r13,%rbx,8)
    7cb5:	e8 06 b5 ff ff       	call   31c0 <regcomp@plt>
    7cba:	85 c0                	test   %eax,%eax
    7cbc:	75 32                	jne    7cf0 <regex+0xf0>
    7cbe:	48 83 c4 08          	add    $0x8,%rsp
    7cc2:	4c 89 e0             	mov    %r12,%rax
    7cc5:	5b                   	pop    %rbx
    7cc6:	5d                   	pop    %rbp
    7cc7:	41 5c                	pop    %r12
    7cc9:	41 5d                	pop    %r13
    7ccb:	c3                   	ret    
    7ccc:	0f 1f 40 00          	nopl   0x0(%rax)
    7cd0:	48 89 ef             	mov    %rbp,%rdi
    7cd3:	e8 88 b5 ff ff       	call   3260 <strcmp@plt>
    7cd8:	85 c0                	test   %eax,%eax
    7cda:	0f 85 50 ff ff ff    	jne    7c30 <regex+0x30>
    7ce0:	49 c1 e4 06          	shl    $0x6,%r12
    7ce4:	48 8d 05 15 84 00 00 	lea    0x8415(%rip),%rax        # 10100 <re_compiled>
    7ceb:	49 01 c4             	add    %rax,%r12
    7cee:	eb ce                	jmp    7cbe <regex+0xbe>
    7cf0:	49 c7 44 dd 00 00 00 	movq   $0x0,0x0(%r13,%rbx,8)
    7cf7:	00 00 
    7cf9:	45 31 e4             	xor    %r12d,%r12d
    7cfc:	eb c0                	jmp    7cbe <regex+0xbe>
    7cfe:	66 90                	xchg   %ax,%ax
    7d00:	48 63 d8             	movslq %eax,%rbx
    7d03:	4c 8d 25 f6 83 00 00 	lea    0x83f6(%rip),%r12        # 10100 <re_compiled>
    7d0a:	48 89 d8             	mov    %rbx,%rax
    7d0d:	48 c1 e0 06          	shl    $0x6,%rax
    7d11:	e9 84 ff ff ff       	jmp    7c9a <regex+0x9a>
    7d16:	66 2e 0f 1f 84 00 00 	cs nopw 0x0(%rax,%rax,1)
    7d1d:	00 00 00 

0000000000007d20 <match>:
    7d20:	41 54                	push   %r12
    7d22:	55                   	push   %rbp
    7d23:	53                   	push   %rbx
    7d24:	48 89 f3             	mov    %rsi,%rbx
    7d27:	48 83 ec 20          	sub    $0x20,%rsp
    7d2b:	64 48 8b 04 25 28 00 	mov    %fs:0x28,%rax
    7d32:	00 00 
    7d34:	48 89 44 24 18       	mov    %rax,0x18(%rsp)
    7d39:	31 c0                	xor    %eax,%eax
    7d3b:	e8 c0 fe ff ff       	call   7c00 <regex>
    7d40:	48 85 c0             	test   %rax,%rax
    7d43:	74 3b                	je     7d80 <match+0x60>
    7d45:	48 85 db             	test   %rbx,%rbx
    7d48:	74 36                	je     7d80 <match+0x60>
    7d4a:	48 8b 33             	mov    (%rbx),%rsi
    7d4d:	45 31 e4             	xor    %r12d,%r12d
    7d50:	48 85 f6             	test   %rsi,%rsi
    7d53:	74 2e                	je     7d83 <match+0x63>
    7d55:	48 89 e1             	mov    %rsp,%rcx
    7d58:	45 31 c0             	xor    %r8d,%r8d
    7d5b:	ba 01 00 00 00       	mov    $0x1,%edx
    7d60:	48 89 c7             	mov    %rax,%rdi
    7d63:	e8 c8 b4 ff ff       	call   3230 <regexec@plt>
    7d68:	48 8b 2b             	mov    (%rbx),%rbp
    7d6b:	85 c0                	test   %eax,%eax
    7d6d:	74 31                	je     7da0 <match+0x80>
    7d6f:	48 89 ef             	mov    %rbp,%rdi
    7d72:	e8 59 b5 ff ff       	call   32d0 <strlen@plt>
    7d77:	48 01 c5             	add    %rax,%rbp
    7d7a:	48 89 2b             	mov    %rbp,(%rbx)
    7d7d:	eb 04                	jmp    7d83 <match+0x63>
    7d7f:	90                   	nop
    7d80:	45 31 e4             	xor    %r12d,%r12d
    7d83:	48 8b 44 24 18       	mov    0x18(%rsp),%rax
    7d88:	64 48 2b 04 25 28 00 	sub    %fs:0x28,%rax
    7d8f:	00 00 
    7d91:	75 19                	jne    7dac <match+0x8c>
    7d93:	48 83 c4 20          	add    $0x20,%rsp
    7d97:	44 89 e0             	mov    %r12d,%eax
    7d9a:	5b                   	pop    %rbx
    7d9b:	5d                   	pop    %rbp
    7d9c:	41 5c                	pop    %r12
    7d9e:	c3                   	ret    
    7d9f:	90                   	nop
    7da0:	48 8b 04 24          	mov    (%rsp),%rax
    7da4:	41 bc ff ff ff ff    	mov    $0xffffffff,%r12d
    7daa:	eb cb                	jmp    7d77 <match+0x57>
    7dac:	e8 0f b3 ff ff       	call   30c0 <__stack_chk_fail@plt>
    7db1:	66 66 2e 0f 1f 84 00 	data16 cs nopw 0x0(%rax,%rax,1)
    7db8:	00 00 00 00 
    7dbc:	0f 1f 40 00          	nopl   0x0(%rax)

0000000000007dc0 <split>:
    7dc0:	41 54                	push   %r12
    7dc2:	45 31 e4             	xor    %r12d,%r12d
    7dc5:	55                   	push   %rbp
    7dc6:	53                   	push   %rbx
    7dc7:	48 89 f3             	mov    %rsi,%rbx
    7dca:	48 83 ec 20          	sub    $0x20,%rsp
    7dce:	64 48 8b 04 25 28 00 	mov    %fs:0x28,%rax
    7dd5:	00 00 
    7dd7:	48 89 44 24 18       	mov    %rax,0x18(%rsp)
    7ddc:	31 c0                	xor    %eax,%eax
    7dde:	e8 1d fe ff ff       	call   7c00 <regex>
    7de3:	48 85 c0             	test   %rax,%rax
    7de6:	74 30                	je     7e18 <split+0x58>
    7de8:	48 8b 33             	mov    (%rbx),%rsi
    7deb:	48 85 f6             	test   %rsi,%rsi
    7dee:	74 28                	je     7e18 <split+0x58>
    7df0:	45 31 c0             	xor    %r8d,%r8d
    7df3:	48 89 e1             	mov    %rsp,%rcx
    7df6:	ba 01 00 00 00       	mov    $0x1,%edx
    7dfb:	48 89 c7             	mov    %rax,%rdi
    7dfe:	e8 2d b4 ff ff       	call   3230 <regexec@plt>
    7e03:	85 c0                	test   %eax,%eax
    7e05:	74 2d                	je     7e34 <split+0x74>
    7e07:	48 8b 2b             	mov    (%rbx),%rbp
    7e0a:	48 89 ef             	mov    %rbp,%rdi
    7e0d:	e8 be b4 ff ff       	call   32d0 <strlen@plt>
    7e12:	48 01 c5             	add    %rax,%rbp
    7e15:	48 89 2b             	mov    %rbp,(%rbx)
    7e18:	48 8b 44 24 18       	mov    0x18(%rsp),%rax
    7e1d:	64 48 2b 04 25 28 00 	sub    %fs:0x28,%rax
    7e24:	00 00 
    7e26:	75 32                	jne    7e5a <split+0x9a>
    7e28:	48 83 c4 20          	add    $0x20,%rsp
    7e2c:	44 89 e0             	mov    %r12d,%eax
    7e2f:	5b                   	pop    %rbx
    7e30:	5d                   	pop    %rbp
    7e31:	41 5c                	pop    %r12
    7e33:	c3                   	ret    
    7e34:	48 8b 3c 24          	mov    (%rsp),%rdi
    7e38:	48 8b 54 24 08       	mov    0x8(%rsp),%rdx
    7e3d:	31 f6                	xor    %esi,%esi
    7e3f:	41 bc ff ff ff ff    	mov    $0xffffffff,%r12d
    7e45:	48 29 fa             	sub    %rdi,%rdx
    7e48:	48 03 3b             	add    (%rbx),%rdi
    7e4b:	e8 a0 b3 ff ff       	call   31f0 <memset@plt>
    7e50:	48 8b 44 24 08       	mov    0x8(%rsp),%rax
    7e55:	48 01 03             	add    %rax,(%rbx)
    7e58:	eb be                	jmp    7e18 <split+0x58>
    7e5a:	e8 61 b2 ff ff       	call   30c0 <__stack_chk_fail@plt>
    7e5f:	90                   	nop

0000000000007e60 <exec_cmd_io>:
    7e60:	41 55                	push   %r13
    7e62:	49 89 fd             	mov    %rdi,%r13
    7e65:	bf 11 00 00 00       	mov    $0x11,%edi
    7e6a:	41 54                	push   %r12
    7e6c:	55                   	push   %rbp
    7e6d:	48 89 f5             	mov    %rsi,%rbp
    7e70:	48 8d 35 e9 ee ff ff 	lea    -0x1117(%rip),%rsi        # 6d60 <catch_exit>
    7e77:	53                   	push   %rbx
    7e78:	48 89 d3             	mov    %rdx,%rbx
    7e7b:	48 83 ec 28          	sub    $0x28,%rsp
    7e7f:	64 48 8b 04 25 28 00 	mov    %fs:0x28,%rax
    7e86:	00 00 
    7e88:	48 89 44 24 18       	mov    %rax,0x18(%rsp)
    7e8d:	31 c0                	xor    %eax,%eax
    7e8f:	e8 9c b2 ff ff       	call   3130 <signal@plt>
    7e94:	48 8d 7c 24 08       	lea    0x8(%rsp),%rdi
    7e99:	e8 42 b2 ff ff       	call   30e0 <pipe@plt>
    7e9e:	85 c0                	test   %eax,%eax
    7ea0:	0f 85 8a 00 00 00    	jne    7f30 <exec_cmd_io+0xd0>
    7ea6:	48 8d 7c 24 10       	lea    0x10(%rsp),%rdi
    7eab:	e8 30 b2 ff ff       	call   30e0 <pipe@plt>
    7eb0:	85 c0                	test   %eax,%eax
    7eb2:	75 7c                	jne    7f30 <exec_cmd_io+0xd0>
    7eb4:	e8 c7 b2 ff ff       	call   3180 <fork@plt>
    7eb9:	41 89 c4             	mov    %eax,%r12d
    7ebc:	85 c0                	test   %eax,%eax
    7ebe:	78 2b                	js     7eeb <exec_cmd_io+0x8b>
    7ec0:	8b 7c 24 0c          	mov    0xc(%rsp),%edi
    7ec4:	74 77                	je     7f3d <exec_cmd_io+0xdd>
    7ec6:	48 85 ed             	test   %rbp,%rbp
    7ec9:	74 45                	je     7f10 <exec_cmd_io+0xb0>
    7ecb:	89 7d 00             	mov    %edi,0x0(%rbp)
    7ece:	8b 7c 24 10          	mov    0x10(%rsp),%edi
    7ed2:	48 85 db             	test   %rbx,%rbx
    7ed5:	74 49                	je     7f20 <exec_cmd_io+0xc0>
    7ed7:	89 3b                	mov    %edi,(%rbx)
    7ed9:	8b 7c 24 08          	mov    0x8(%rsp),%edi
    7edd:	e8 3e b4 ff ff       	call   3320 <close@plt>
    7ee2:	8b 7c 24 14          	mov    0x14(%rsp),%edi
    7ee6:	e8 35 b4 ff ff       	call   3320 <close@plt>
    7eeb:	48 8b 44 24 18       	mov    0x18(%rsp),%rax
    7ef0:	64 48 2b 04 25 28 00 	sub    %fs:0x28,%rax
    7ef7:	00 00 
    7ef9:	75 3d                	jne    7f38 <exec_cmd_io+0xd8>
    7efb:	48 83 c4 28          	add    $0x28,%rsp
    7eff:	44 89 e0             	mov    %r12d,%eax
    7f02:	5b                   	pop    %rbx
    7f03:	5d                   	pop    %rbp
    7f04:	41 5c                	pop    %r12
    7f06:	41 5d                	pop    %r13
    7f08:	c3                   	ret    
    7f09:	0f 1f 80 00 00 00 00 	nopl   0x0(%rax)
    7f10:	e8 0b b4 ff ff       	call   3320 <close@plt>
    7f15:	8b 7c 24 10          	mov    0x10(%rsp),%edi
    7f19:	48 85 db             	test   %rbx,%rbx
    7f1c:	75 b9                	jne    7ed7 <exec_cmd_io+0x77>
    7f1e:	66 90                	xchg   %ax,%ax
    7f20:	e8 fb b3 ff ff       	call   3320 <close@plt>
    7f25:	eb b2                	jmp    7ed9 <exec_cmd_io+0x79>
    7f27:	66 0f 1f 84 00 00 00 	nopw   0x0(%rax,%rax,1)
    7f2e:	00 00 
    7f30:	41 bc ff ff ff ff    	mov    $0xffffffff,%r12d
    7f36:	eb b3                	jmp    7eeb <exec_cmd_io+0x8b>
    7f38:	e8 83 b1 ff ff       	call   30c0 <__stack_chk_fail@plt>
    7f3d:	e8 de b3 ff ff       	call   3320 <close@plt>
    7f42:	8b 7c 24 08          	mov    0x8(%rsp),%edi
    7f46:	31 f6                	xor    %esi,%esi
    7f48:	e8 43 b1 ff ff       	call   3090 <dup2@plt>
    7f4d:	8b 7c 24 10          	mov    0x10(%rsp),%edi
    7f51:	e8 ca b3 ff ff       	call   3320 <close@plt>
    7f56:	8b 7c 24 14          	mov    0x14(%rsp),%edi
    7f5a:	be 01 00 00 00       	mov    $0x1,%esi
    7f5f:	e8 2c b1 ff ff       	call   3090 <dup2@plt>
    7f64:	45 31 c0             	xor    %r8d,%r8d
    7f67:	4c 89 e9             	mov    %r13,%rcx
    7f6a:	31 c0                	xor    %eax,%eax
    7f6c:	48 8d 3d cf 10 00 00 	lea    0x10cf(%rip),%rdi        # 9042 <_fini+0xf21>
    7f73:	48 8d 15 c5 10 00 00 	lea    0x10c5(%rip),%rdx        # 903f <_fini+0xf1e>
    7f7a:	48 8d 35 c6 10 00 00 	lea    0x10c6(%rip),%rsi        # 9047 <_fini+0xf26>
    7f81:	e8 0a b2 ff ff       	call   3190 <execlp@plt>
    7f86:	bf 01 00 00 00       	mov    $0x1,%edi
    7f8b:	e8 10 b3 ff ff       	call   32a0 <exit@plt>

0000000000007f90 <exec_cmd>:
    7f90:	41 54                	push   %r12
    7f92:	48 8d 35 c7 ed ff ff 	lea    -0x1239(%rip),%rsi        # 6d60 <catch_exit>
    7f99:	49 89 fc             	mov    %rdi,%r12
    7f9c:	bf 11 00 00 00       	mov    $0x11,%edi
    7fa1:	e8 8a b1 ff ff       	call   3130 <signal@plt>
    7fa6:	e8 d5 b1 ff ff       	call   3180 <fork@plt>
    7fab:	85 c0                	test   %eax,%eax
    7fad:	74 03                	je     7fb2 <exec_cmd+0x22>
    7faf:	41 5c                	pop    %r12
    7fb1:	c3                   	ret    
    7fb2:	e8 49 b3 ff ff       	call   3300 <setsid@plt>
    7fb7:	45 31 c0             	xor    %r8d,%r8d
    7fba:	4c 89 e1             	mov    %r12,%rcx
    7fbd:	31 c0                	xor    %eax,%eax
    7fbf:	48 8d 3d 7c 10 00 00 	lea    0x107c(%rip),%rdi        # 9042 <_fini+0xf21>
    7fc6:	48 8d 15 72 10 00 00 	lea    0x1072(%rip),%rdx        # 903f <_fini+0xf1e>
    7fcd:	48 8d 35 73 10 00 00 	lea    0x1073(%rip),%rsi        # 9047 <_fini+0xf26>
    7fd4:	e8 b7 b1 ff ff       	call   3190 <execlp@plt>
    7fd9:	bf 01 00 00 00       	mov    $0x1,%edi
    7fde:	e8 bd b2 ff ff       	call   32a0 <exit@plt>
    7fe3:	66 66 2e 0f 1f 84 00 	data16 cs nopw 0x0(%rax,%rax,1)
    7fea:	00 00 00 00 
    7fee:	66 90                	xchg   %ax,%ax

0000000000007ff0 <sys_exec>:
    7ff0:	41 55                	push   %r13
    7ff2:	41 54                	push   %r12
    7ff4:	55                   	push   %rbp
    7ff5:	48 89 f5             	mov    %rsi,%rbp
    7ff8:	53                   	push   %rbx
    7ff9:	48 83 ec 18          	sub    $0x18,%rsp
    7ffd:	64 48 8b 04 25 28 00 	mov    %fs:0x28,%rax
    8004:	00 00 
    8006:	48 89 44 24 08       	mov    %rax,0x8(%rsp)
    800b:	31 c0                	xor    %eax,%eax
    800d:	48 8d 54 24 04       	lea    0x4(%rsp),%rdx
    8012:	48 89 e6             	mov    %rsp,%rsi
    8015:	e8 46 fe ff ff       	call   7e60 <exec_cmd_io>
    801a:	44 8b 24 24          	mov    (%rsp),%r12d
    801e:	48 85 ed             	test   %rbp,%rbp
    8021:	74 1a                	je     803d <sys_exec+0x4d>
    8023:	48 89 ef             	mov    %rbp,%rdi
    8026:	e8 a5 b2 ff ff       	call   32d0 <strlen@plt>
    802b:	44 8b 24 24          	mov    (%rsp),%r12d
    802f:	48 89 ee             	mov    %rbp,%rsi
    8032:	48 89 c2             	mov    %rax,%rdx
    8035:	44 89 e7             	mov    %r12d,%edi
    8038:	e8 c3 b0 ff ff       	call   3100 <write@plt>
    803d:	44 89 e7             	mov    %r12d,%edi
    8040:	31 db                	xor    %ebx,%ebx
    8042:	e8 d9 b2 ff ff       	call   3320 <close@plt>
    8047:	bf 00 04 00 00       	mov    $0x400,%edi
    804c:	e8 4f b0 ff ff       	call   30a0 <malloc@plt>
    8051:	44 8b 64 24 04       	mov    0x4(%rsp),%r12d
    8056:	48 89 c5             	mov    %rax,%rbp
    8059:	eb 22                	jmp    807d <sys_exec+0x8d>
    805b:	0f 1f 44 00 00       	nopl   0x0(%rax,%rax,1)
    8060:	01 c3                	add    %eax,%ebx
    8062:	3d fe 03 00 00       	cmp    $0x3fe,%eax
    8067:	7e 59                	jle    80c2 <sys_exec+0xd2>
    8069:	8d b3 00 04 00 00    	lea    0x400(%rbx),%esi
    806f:	48 89 ef             	mov    %rbp,%rdi
    8072:	48 63 f6             	movslq %esi,%rsi
    8075:	e8 f6 b0 ff ff       	call   3170 <realloc@plt>
    807a:	48 89 c5             	mov    %rax,%rbp
    807d:	4c 63 eb             	movslq %ebx,%r13
    8080:	ba ff 03 00 00       	mov    $0x3ff,%edx
    8085:	44 89 e7             	mov    %r12d,%edi
    8088:	49 01 ed             	add    %rbp,%r13
    808b:	4c 89 ee             	mov    %r13,%rsi
    808e:	e8 ad b0 ff ff       	call   3140 <read@plt>
    8093:	85 c0                	test   %eax,%eax
    8095:	7f c9                	jg     8060 <sys_exec+0x70>
    8097:	41 c6 45 00 00       	movb   $0x0,0x0(%r13)
    809c:	44 89 e7             	mov    %r12d,%edi
    809f:	e8 7c b2 ff ff       	call   3320 <close@plt>
    80a4:	48 8b 44 24 08       	mov    0x8(%rsp),%rax
    80a9:	64 48 2b 04 25 28 00 	sub    %fs:0x28,%rax
    80b0:	00 00 
    80b2:	75 18                	jne    80cc <sys_exec+0xdc>
    80b4:	48 83 c4 18          	add    $0x18,%rsp
    80b8:	48 89 e8             	mov    %rbp,%rax
    80bb:	5b                   	pop    %rbx
    80bc:	5d                   	pop    %rbp
    80bd:	41 5c                	pop    %r12
    80bf:	41 5d                	pop    %r13
    80c1:	c3                   	ret    
    80c2:	48 63 db             	movslq %ebx,%rbx
    80c5:	4c 8d 6c 1d 00       	lea    0x0(%rbp,%rbx,1),%r13
    80ca:	eb cb                	jmp    8097 <sys_exec+0xa7>
    80cc:	e8 ef af ff ff       	call   30c0 <__stack_chk_fail@plt>
    80d1:	66 2e 0f 1f 84 00 00 	cs nopw 0x0(%rax,%rax,1)
    80d8:	00 00 00 
    80db:	0f 1f 44 00 00       	nopl   0x0(%rax,%rax,1)

00000000000080e0 <__do_global_ctors_aux>:
    80e0:	f3 0f 1e fa          	endbr64 
    80e4:	48 8b 05 75 6b 00 00 	mov    0x6b75(%rip),%rax        # ec60 <__CTOR_LIST__>
    80eb:	48 83 f8 ff          	cmp    $0xffffffffffffffff,%rax
    80ef:	74 2f                	je     8120 <__do_global_ctors_aux+0x40>
    80f1:	55                   	push   %rbp
    80f2:	48 89 e5             	mov    %rsp,%rbp
    80f5:	53                   	push   %rbx
    80f6:	48 8d 1d 63 6b 00 00 	lea    0x6b63(%rip),%rbx        # ec60 <__CTOR_LIST__>
    80fd:	48 83 ec 08          	sub    $0x8,%rsp
    8101:	0f 1f 80 00 00 00 00 	nopl   0x0(%rax)
    8108:	ff d0                	call   *%rax
    810a:	48 8b 43 f8          	mov    -0x8(%rbx),%rax
    810e:	48 83 eb 08          	sub    $0x8,%rbx
    8112:	48 83 f8 ff          	cmp    $0xffffffffffffffff,%rax
    8116:	75 f0                	jne    8108 <__do_global_ctors_aux+0x28>
    8118:	48 8b 5d f8          	mov    -0x8(%rbp),%rbx
    811c:	c9                   	leave  
    811d:	c3                   	ret    
    811e:	66 90                	xchg   %ax,%ax
    8120:	c3                   	ret    

Disassembly of section .fini:

0000000000008121 <_fini>:
    8121:	50                   	push   %rax
    8122:	e8 49 eb ff ff       	call   6c70 <__do_global_dtors_aux>
    8127:	58                   	pop    %rax
    8128:	c3                   	ret    
