
reforth:     file format elf64-x86-64


Disassembly of section .init:

0000000000003000 <_init>:
    3000:	f3 0f 1e fa          	endbr64 
    3004:	48 83 ec 08          	sub    $0x8,%rsp
    3008:	48 8b 05 d9 af 00 00 	mov    0xafd9(%rip),%rax        # dfe8 <__gmon_start__>
    300f:	48 85 c0             	test   %rax,%rax
    3012:	74 02                	je     3016 <_init+0x16>
    3014:	ff d0                	call   *%rax
    3016:	48 83 c4 08          	add    $0x8,%rsp
    301a:	c3                   	ret    

Disassembly of section .plt:

0000000000003020 <getenv@plt-0x10>:
    3020:	ff 35 e2 af 00 00    	push   0xafe2(%rip)        # e008 <_GLOBAL_OFFSET_TABLE_+0x8>
    3026:	ff 25 e4 af 00 00    	jmp    *0xafe4(%rip)        # e010 <_GLOBAL_OFFSET_TABLE_+0x10>
    302c:	0f 1f 40 00          	nopl   0x0(%rax)

0000000000003030 <getenv@plt>:
    3030:	ff 25 e2 af 00 00    	jmp    *0xafe2(%rip)        # e018 <getenv@GLIBC_2.2.5>
    3036:	68 00 00 00 00       	push   $0x0
    303b:	e9 e0 ff ff ff       	jmp    3020 <_init+0x20>

0000000000003040 <free@plt>:
    3040:	ff 25 da af 00 00    	jmp    *0xafda(%rip)        # e020 <free@GLIBC_2.2.5>
    3046:	68 01 00 00 00       	push   $0x1
    304b:	e9 d0 ff ff ff       	jmp    3020 <_init+0x20>

0000000000003050 <localtime@plt>:
    3050:	ff 25 d2 af 00 00    	jmp    *0xafd2(%rip)        # e028 <localtime@GLIBC_2.2.5>
    3056:	68 02 00 00 00       	push   $0x2
    305b:	e9 c0 ff ff ff       	jmp    3020 <_init+0x20>

0000000000003060 <strncpy@plt>:
    3060:	ff 25 ca af 00 00    	jmp    *0xafca(%rip)        # e030 <strncpy@GLIBC_2.2.5>
    3066:	68 03 00 00 00       	push   $0x3
    306b:	e9 b0 ff ff ff       	jmp    3020 <_init+0x20>

0000000000003070 <strncmp@plt>:
    3070:	ff 25 c2 af 00 00    	jmp    *0xafc2(%rip)        # e038 <strncmp@GLIBC_2.2.5>
    3076:	68 04 00 00 00       	push   $0x4
    307b:	e9 a0 ff ff ff       	jmp    3020 <_init+0x20>

0000000000003080 <strcpy@plt>:
    3080:	ff 25 ba af 00 00    	jmp    *0xafba(%rip)        # e040 <strcpy@GLIBC_2.2.5>
    3086:	68 05 00 00 00       	push   $0x5
    308b:	e9 90 ff ff ff       	jmp    3020 <_init+0x20>

0000000000003090 <fread@plt>:
    3090:	ff 25 b2 af 00 00    	jmp    *0xafb2(%rip)        # e048 <fread@GLIBC_2.2.5>
    3096:	68 06 00 00 00       	push   $0x6
    309b:	e9 80 ff ff ff       	jmp    3020 <_init+0x20>

00000000000030a0 <write@plt>:
    30a0:	ff 25 aa af 00 00    	jmp    *0xafaa(%rip)        # e050 <write@GLIBC_2.2.5>
    30a6:	68 07 00 00 00       	push   $0x7
    30ab:	e9 70 ff ff ff       	jmp    3020 <_init+0x20>

00000000000030b0 <getpid@plt>:
    30b0:	ff 25 a2 af 00 00    	jmp    *0xafa2(%rip)        # e058 <getpid@GLIBC_2.2.5>
    30b6:	68 08 00 00 00       	push   $0x8
    30bb:	e9 60 ff ff ff       	jmp    3020 <_init+0x20>

00000000000030c0 <fclose@plt>:
    30c0:	ff 25 9a af 00 00    	jmp    *0xaf9a(%rip)        # e060 <fclose@GLIBC_2.2.5>
    30c6:	68 09 00 00 00       	push   $0x9
    30cb:	e9 50 ff ff ff       	jmp    3020 <_init+0x20>

00000000000030d0 <regfree@plt>:
    30d0:	ff 25 92 af 00 00    	jmp    *0xaf92(%rip)        # e068 <regfree@GLIBC_2.2.5>
    30d6:	68 0a 00 00 00       	push   $0xa
    30db:	e9 40 ff ff ff       	jmp    3020 <_init+0x20>

00000000000030e0 <strlen@plt>:
    30e0:	ff 25 8a af 00 00    	jmp    *0xaf8a(%rip)        # e070 <strlen@GLIBC_2.2.5>
    30e6:	68 0b 00 00 00       	push   $0xb
    30eb:	e9 30 ff ff ff       	jmp    3020 <_init+0x20>

00000000000030f0 <__stack_chk_fail@plt>:
    30f0:	ff 25 82 af 00 00    	jmp    *0xaf82(%rip)        # e078 <__stack_chk_fail@GLIBC_2.4>
    30f6:	68 0c 00 00 00       	push   $0xc
    30fb:	e9 20 ff ff ff       	jmp    3020 <_init+0x20>

0000000000003100 <dup2@plt>:
    3100:	ff 25 7a af 00 00    	jmp    *0xaf7a(%rip)        # e080 <dup2@GLIBC_2.2.5>
    3106:	68 0d 00 00 00       	push   $0xd
    310b:	e9 10 ff ff ff       	jmp    3020 <_init+0x20>

0000000000003110 <strchr@plt>:
    3110:	ff 25 72 af 00 00    	jmp    *0xaf72(%rip)        # e088 <strchr@GLIBC_2.2.5>
    3116:	68 0e 00 00 00       	push   $0xe
    311b:	e9 00 ff ff ff       	jmp    3020 <_init+0x20>

0000000000003120 <snprintf@plt>:
    3120:	ff 25 6a af 00 00    	jmp    *0xaf6a(%rip)        # e090 <snprintf@GLIBC_2.2.5>
    3126:	68 0f 00 00 00       	push   $0xf
    312b:	e9 f0 fe ff ff       	jmp    3020 <_init+0x20>

0000000000003130 <memset@plt>:
    3130:	ff 25 62 af 00 00    	jmp    *0xaf62(%rip)        # e098 <memset@GLIBC_2.2.5>
    3136:	68 10 00 00 00       	push   $0x10
    313b:	e9 e0 fe ff ff       	jmp    3020 <_init+0x20>

0000000000003140 <ioctl@plt>:
    3140:	ff 25 5a af 00 00    	jmp    *0xaf5a(%rip)        # e0a0 <ioctl@GLIBC_2.2.5>
    3146:	68 11 00 00 00       	push   $0x11
    314b:	e9 d0 fe ff ff       	jmp    3020 <_init+0x20>

0000000000003150 <close@plt>:
    3150:	ff 25 52 af 00 00    	jmp    *0xaf52(%rip)        # e0a8 <close@GLIBC_2.2.5>
    3156:	68 12 00 00 00       	push   $0x12
    315b:	e9 c0 fe ff ff       	jmp    3020 <_init+0x20>

0000000000003160 <pipe@plt>:
    3160:	ff 25 4a af 00 00    	jmp    *0xaf4a(%rip)        # e0b0 <pipe@GLIBC_2.2.5>
    3166:	68 13 00 00 00       	push   $0x13
    316b:	e9 b0 fe ff ff       	jmp    3020 <_init+0x20>

0000000000003170 <setsid@plt>:
    3170:	ff 25 42 af 00 00    	jmp    *0xaf42(%rip)        # e0b8 <setsid@GLIBC_2.2.5>
    3176:	68 14 00 00 00       	push   $0x14
    317b:	e9 a0 fe ff ff       	jmp    3020 <_init+0x20>

0000000000003180 <regcomp@plt>:
    3180:	ff 25 3a af 00 00    	jmp    *0xaf3a(%rip)        # e0c0 <regcomp@GLIBC_2.2.5>
    3186:	68 15 00 00 00       	push   $0x15
    318b:	e9 90 fe ff ff       	jmp    3020 <_init+0x20>

0000000000003190 <fputc@plt>:
    3190:	ff 25 32 af 00 00    	jmp    *0xaf32(%rip)        # e0c8 <fputc@GLIBC_2.2.5>
    3196:	68 16 00 00 00       	push   $0x16
    319b:	e9 80 fe ff ff       	jmp    3020 <_init+0x20>

00000000000031a0 <read@plt>:
    31a0:	ff 25 2a af 00 00    	jmp    *0xaf2a(%rip)        # e0d0 <read@GLIBC_2.2.5>
    31a6:	68 17 00 00 00       	push   $0x17
    31ab:	e9 70 fe ff ff       	jmp    3020 <_init+0x20>

00000000000031b0 <srand@plt>:
    31b0:	ff 25 22 af 00 00    	jmp    *0xaf22(%rip)        # e0d8 <srand@GLIBC_2.2.5>
    31b6:	68 18 00 00 00       	push   $0x18
    31bb:	e9 60 fe ff ff       	jmp    3020 <_init+0x20>

00000000000031c0 <calloc@plt>:
    31c0:	ff 25 1a af 00 00    	jmp    *0xaf1a(%rip)        # e0e0 <calloc@GLIBC_2.2.5>
    31c6:	68 19 00 00 00       	push   $0x19
    31cb:	e9 50 fe ff ff       	jmp    3020 <_init+0x20>

00000000000031d0 <putenv@plt>:
    31d0:	ff 25 12 af 00 00    	jmp    *0xaf12(%rip)        # e0e8 <putenv@GLIBC_2.2.5>
    31d6:	68 1a 00 00 00       	push   $0x1a
    31db:	e9 40 fe ff ff       	jmp    3020 <_init+0x20>

00000000000031e0 <strcmp@plt>:
    31e0:	ff 25 0a af 00 00    	jmp    *0xaf0a(%rip)        # e0f0 <strcmp@GLIBC_2.2.5>
    31e6:	68 1b 00 00 00       	push   $0x1b
    31eb:	e9 30 fe ff ff       	jmp    3020 <_init+0x20>

00000000000031f0 <signal@plt>:
    31f0:	ff 25 02 af 00 00    	jmp    *0xaf02(%rip)        # e0f8 <signal@GLIBC_2.2.5>
    31f6:	68 1c 00 00 00       	push   $0x1c
    31fb:	e9 20 fe ff ff       	jmp    3020 <_init+0x20>

0000000000003200 <strtol@plt>:
    3200:	ff 25 fa ae 00 00    	jmp    *0xaefa(%rip)        # e100 <strtol@GLIBC_2.2.5>
    3206:	68 1d 00 00 00       	push   $0x1d
    320b:	e9 10 fe ff ff       	jmp    3020 <_init+0x20>

0000000000003210 <time@plt>:
    3210:	ff 25 f2 ae 00 00    	jmp    *0xaef2(%rip)        # e108 <time@GLIBC_2.2.5>
    3216:	68 1e 00 00 00       	push   $0x1e
    321b:	e9 00 fe ff ff       	jmp    3020 <_init+0x20>

0000000000003220 <fileno@plt>:
    3220:	ff 25 ea ae 00 00    	jmp    *0xaeea(%rip)        # e110 <fileno@GLIBC_2.2.5>
    3226:	68 1f 00 00 00       	push   $0x1f
    322b:	e9 f0 fd ff ff       	jmp    3020 <_init+0x20>

0000000000003230 <malloc@plt>:
    3230:	ff 25 e2 ae 00 00    	jmp    *0xaee2(%rip)        # e118 <malloc@GLIBC_2.2.5>
    3236:	68 20 00 00 00       	push   $0x20
    323b:	e9 e0 fd ff ff       	jmp    3020 <_init+0x20>

0000000000003240 <regexec@plt>:
    3240:	ff 25 da ae 00 00    	jmp    *0xaeda(%rip)        # e120 <regexec@GLIBC_2.3.4>
    3246:	68 21 00 00 00       	push   $0x21
    324b:	e9 d0 fd ff ff       	jmp    3020 <_init+0x20>

0000000000003250 <realloc@plt>:
    3250:	ff 25 d2 ae 00 00    	jmp    *0xaed2(%rip)        # e128 <realloc@GLIBC_2.2.5>
    3256:	68 22 00 00 00       	push   $0x22
    325b:	e9 c0 fd ff ff       	jmp    3020 <_init+0x20>

0000000000003260 <poll@plt>:
    3260:	ff 25 ca ae 00 00    	jmp    *0xaeca(%rip)        # e130 <poll@GLIBC_2.2.5>
    3266:	68 23 00 00 00       	push   $0x23
    326b:	e9 b0 fd ff ff       	jmp    3020 <_init+0x20>

0000000000003270 <strftime@plt>:
    3270:	ff 25 c2 ae 00 00    	jmp    *0xaec2(%rip)        # e138 <strftime@GLIBC_2.2.5>
    3276:	68 24 00 00 00       	push   $0x24
    327b:	e9 a0 fd ff ff       	jmp    3020 <_init+0x20>

0000000000003280 <memmove@plt>:
    3280:	ff 25 ba ae 00 00    	jmp    *0xaeba(%rip)        # e140 <memmove@GLIBC_2.2.5>
    3286:	68 25 00 00 00       	push   $0x25
    328b:	e9 90 fd ff ff       	jmp    3020 <_init+0x20>

0000000000003290 <waitpid@plt>:
    3290:	ff 25 b2 ae 00 00    	jmp    *0xaeb2(%rip)        # e148 <waitpid@GLIBC_2.2.5>
    3296:	68 26 00 00 00       	push   $0x26
    329b:	e9 80 fd ff ff       	jmp    3020 <_init+0x20>

00000000000032a0 <tcgetattr@plt>:
    32a0:	ff 25 aa ae 00 00    	jmp    *0xaeaa(%rip)        # e150 <tcgetattr@GLIBC_2.2.5>
    32a6:	68 27 00 00 00       	push   $0x27
    32ab:	e9 70 fd ff ff       	jmp    3020 <_init+0x20>

00000000000032b0 <tcsetattr@plt>:
    32b0:	ff 25 a2 ae 00 00    	jmp    *0xaea2(%rip)        # e158 <tcsetattr@GLIBC_2.2.5>
    32b6:	68 28 00 00 00       	push   $0x28
    32bb:	e9 60 fd ff ff       	jmp    3020 <_init+0x20>

00000000000032c0 <fopen@plt>:
    32c0:	ff 25 9a ae 00 00    	jmp    *0xae9a(%rip)        # e160 <fopen@GLIBC_2.2.5>
    32c6:	68 29 00 00 00       	push   $0x29
    32cb:	e9 50 fd ff ff       	jmp    3020 <_init+0x20>

00000000000032d0 <sprintf@plt>:
    32d0:	ff 25 92 ae 00 00    	jmp    *0xae92(%rip)        # e168 <sprintf@GLIBC_2.2.5>
    32d6:	68 2a 00 00 00       	push   $0x2a
    32db:	e9 40 fd ff ff       	jmp    3020 <_init+0x20>

00000000000032e0 <exit@plt>:
    32e0:	ff 25 8a ae 00 00    	jmp    *0xae8a(%rip)        # e170 <exit@GLIBC_2.2.5>
    32e6:	68 2b 00 00 00       	push   $0x2b
    32eb:	e9 30 fd ff ff       	jmp    3020 <_init+0x20>

00000000000032f0 <fwrite@plt>:
    32f0:	ff 25 82 ae 00 00    	jmp    *0xae82(%rip)        # e178 <fwrite@GLIBC_2.2.5>
    32f6:	68 2c 00 00 00       	push   $0x2c
    32fb:	e9 20 fd ff ff       	jmp    3020 <_init+0x20>

0000000000003300 <strdup@plt>:
    3300:	ff 25 7a ae 00 00    	jmp    *0xae7a(%rip)        # e180 <strdup@GLIBC_2.2.5>
    3306:	68 2d 00 00 00       	push   $0x2d
    330b:	e9 10 fd ff ff       	jmp    3020 <_init+0x20>

0000000000003310 <execlp@plt>:
    3310:	ff 25 72 ae 00 00    	jmp    *0xae72(%rip)        # e188 <execlp@GLIBC_2.2.5>
    3316:	68 2e 00 00 00       	push   $0x2e
    331b:	e9 00 fd ff ff       	jmp    3020 <_init+0x20>

0000000000003320 <fork@plt>:
    3320:	ff 25 6a ae 00 00    	jmp    *0xae6a(%rip)        # e190 <fork@GLIBC_2.2.5>
    3326:	68 2f 00 00 00       	push   $0x2f
    332b:	e9 f0 fc ff ff       	jmp    3020 <_init+0x20>

0000000000003330 <rand@plt>:
    3330:	ff 25 62 ae 00 00    	jmp    *0xae62(%rip)        # e198 <rand@GLIBC_2.2.5>
    3336:	68 30 00 00 00       	push   $0x30
    333b:	e9 e0 fc ff ff       	jmp    3020 <_init+0x20>

0000000000003340 <usleep@plt>:
    3340:	ff 25 5a ae 00 00    	jmp    *0xae5a(%rip)        # e1a0 <usleep@GLIBC_2.2.5>
    3346:	68 31 00 00 00       	push   $0x31
    334b:	e9 d0 fc ff ff       	jmp    3020 <_init+0x20>

Disassembly of section .text:

0000000000003350 <main>:
    3350:	41 57                	push   %r15
    3352:	41 89 ff             	mov    %edi,%r15d
    3355:	31 ff                	xor    %edi,%edi
    3357:	41 56                	push   %r14
    3359:	4c 8d 35 e0 44 01 00 	lea    0x144e0(%rip),%r14        # 17840 <call>
    3360:	41 55                	push   %r13
    3362:	41 54                	push   %r12
    3364:	55                   	push   %rbp
    3365:	53                   	push   %rbx
    3366:	48 8d 1d 4d 1d 00 00 	lea    0x1d4d(%rip),%rbx        # 50ba <main+0x1d6a>
    336d:	48 81 ec 58 81 00 00 	sub    $0x8158,%rsp
    3374:	48 89 74 24 30       	mov    %rsi,0x30(%rsp)
    3379:	64 48 8b 04 25 28 00 	mov    %fs:0x28,%rax
    3380:	00 00 
    3382:	48 89 84 24 48 81 00 	mov    %rax,0x8148(%rsp)
    3389:	00 
    338a:	31 c0                	xor    %eax,%eax
    338c:	e8 7f fe ff ff       	call   3210 <time@plt>
    3391:	89 c7                	mov    %eax,%edi
    3393:	e8 18 fe ff ff       	call   31b0 <srand@plt>
    3398:	48 8b 05 d1 be 00 00 	mov    0xbed1(%rip),%rax        # f270 <stdin@@GLIBC_2.2.5>
    339f:	48 89 1d b2 47 01 00 	mov    %rbx,0x147b2(%rip)        # 17b58 <call+0x318>
    33a6:	48 8d 0d 13 b4 00 00 	lea    0xb413(%rip),%rcx        # e7c0 <list_normals>
    33ad:	48 8d 35 d4 cd 01 00 	lea    0x1cdd4(%rip),%rsi        # 20188 <head+0x948>
    33b4:	48 c7 05 d1 cd 01 00 	movq   $0x0,0x1cdd1(%rip)        # 20190 <head+0x950>
    33bb:	00 00 00 00 
    33bf:	4c 8d 89 98 0a 00 00 	lea    0xa98(%rcx),%r9
    33c6:	49 bb ab aa aa aa aa 	movabs $0xaaaaaaaaaaaaaaab,%r11
    33cd:	aa aa aa 
    33d0:	48 89 05 f1 bf 00 00 	mov    %rax,0xbff1(%rip)        # f3c8 <stdin_current>
    33d7:	48 8b 05 82 be 00 00 	mov    0xbe82(%rip),%rax        # f260 <stdout@@GLIBC_2.2.5>
    33de:	4c 8d ae b8 f6 ff ff 	lea    -0x948(%rsi),%r13
    33e5:	4c 8d 15 54 c4 00 00 	lea    0xc454(%rip),%r10        # f840 <body>
    33ec:	48 89 05 cd bf 00 00 	mov    %rax,0xbfcd(%rip)        # f3c0 <stdout_current>
    33f3:	48 8d 05 54 5c 00 00 	lea    0x5c54(%rip),%rax        # 904e <_IO_stdin_used+0x4e>
    33fa:	48 89 05 87 cd 01 00 	mov    %rax,0x1cd87(%rip)        # 20188 <head+0x948>
    3401:	0f 1f 80 00 00 00 00 	nopl   0x0(%rax)
    3408:	48 0f bf 01          	movswq (%rcx),%rax
    340c:	48 8b 69 08          	mov    0x8(%rcx),%rbp
    3410:	48 89 f7             	mov    %rsi,%rdi
    3413:	48 89 c2             	mov    %rax,%rdx
    3416:	48 8d 04 40          	lea    (%rax,%rax,2),%rax
    341a:	4c 8d 04 52          	lea    (%rdx,%rdx,2),%r8
    341e:	48 c1 e0 03          	shl    $0x3,%rax
    3422:	4b 89 6c c5 00       	mov    %rbp,0x0(%r13,%r8,8)
    3427:	4c 8b 41 10          	mov    0x10(%rcx),%r8
    342b:	49 8d 74 05 00       	lea    0x0(%r13,%rax,1),%rsi
    3430:	4d 85 c0             	test   %r8,%r8
    3433:	74 17                	je     344c <main+0xfc>
    3435:	48 c1 f8 03          	sar    $0x3,%rax
    3439:	48 8d 2d c3 1b 00 00 	lea    0x1bc3(%rip),%rbp        # 5003 <main+0x1cb3>
    3440:	49 0f af c3          	imul   %r11,%rax
    3444:	49 89 2c c6          	mov    %rbp,(%r14,%rax,8)
    3448:	4d 89 04 c2          	mov    %r8,(%r10,%rax,8)
    344c:	48 8d 04 52          	lea    (%rdx,%rdx,2),%rax
    3450:	48 83 c1 18          	add    $0x18,%rcx
    3454:	49 8d 44 c5 00       	lea    0x0(%r13,%rax,8),%rax
    3459:	48 89 70 10          	mov    %rsi,0x10(%rax)
    345d:	48 89 78 08          	mov    %rdi,0x8(%rax)
    3461:	49 39 c9             	cmp    %rcx,%r9
    3464:	75 a2                	jne    3408 <main+0xb8>
    3466:	48 8d 05 e6 5b 00 00 	lea    0x5be6(%rip),%rax        # 9053 <_IO_stdin_used+0x53>
    346d:	48 89 1d ec 46 01 00 	mov    %rbx,0x146ec(%rip)        # 17b60 <call+0x320>
    3474:	48 8d 2d 25 cd 01 00 	lea    0x1cd25(%rip),%rbp        # 201a0 <head+0x960>
    347b:	49 bb ab aa aa aa aa 	movabs $0xaaaaaaaaaaaaaaab,%r11
    3482:	aa aa aa 
    3485:	48 89 05 14 cd 01 00 	mov    %rax,0x1cd14(%rip)        # 201a0 <head+0x960>
    348c:	48 8d 0d 4d ad 00 00 	lea    0xad4d(%rip),%rcx        # e1e0 <list_hiddens>
    3493:	4c 8d 15 a6 c3 00 00 	lea    0xc3a6(%rip),%r10        # f840 <body>
    349a:	48 89 35 f7 cc 01 00 	mov    %rsi,0x1ccf7(%rip)        # 20198 <head+0x958>
    34a1:	4c 8d 89 80 04 00 00 	lea    0x480(%rcx),%r9
    34a8:	48 89 35 f9 cc 01 00 	mov    %rsi,0x1ccf9(%rip)        # 201a8 <head+0x968>
    34af:	48 89 ee             	mov    %rbp,%rsi
    34b2:	66 0f 1f 44 00 00    	nopw   0x0(%rax,%rax,1)
    34b8:	48 0f bf 01          	movswq (%rcx),%rax
    34bc:	4c 8b 61 08          	mov    0x8(%rcx),%r12
    34c0:	49 89 f0             	mov    %rsi,%r8
    34c3:	48 89 c2             	mov    %rax,%rdx
    34c6:	48 8d 04 40          	lea    (%rax,%rax,2),%rax
    34ca:	48 8d 3c 52          	lea    (%rdx,%rdx,2),%rdi
    34ce:	48 c1 e0 03          	shl    $0x3,%rax
    34d2:	4d 89 64 fd 00       	mov    %r12,0x0(%r13,%rdi,8)
    34d7:	48 8b 79 10          	mov    0x10(%rcx),%rdi
    34db:	49 8d 74 05 00       	lea    0x0(%r13,%rax,1),%rsi
    34e0:	48 85 ff             	test   %rdi,%rdi
    34e3:	74 17                	je     34fc <main+0x1ac>
    34e5:	48 c1 f8 03          	sar    $0x3,%rax
    34e9:	4c 8d 25 13 1b 00 00 	lea    0x1b13(%rip),%r12        # 5003 <main+0x1cb3>
    34f0:	49 0f af c3          	imul   %r11,%rax
    34f4:	4d 89 24 c6          	mov    %r12,(%r14,%rax,8)
    34f8:	49 89 3c c2          	mov    %rdi,(%r10,%rax,8)
    34fc:	48 8d 04 52          	lea    (%rdx,%rdx,2),%rax
    3500:	48 83 c1 18          	add    $0x18,%rcx
    3504:	49 8d 44 c5 00       	lea    0x0(%r13,%rax,8),%rax
    3509:	48 89 70 10          	mov    %rsi,0x10(%rax)
    350d:	4c 89 40 08          	mov    %r8,0x8(%rax)
    3511:	49 39 c9             	cmp    %rcx,%r9
    3514:	75 a2                	jne    34b8 <main+0x168>
    3516:	48 89 2d 2b 43 23 00 	mov    %rbp,0x23432b(%rip)        # 237848 <normal>
    351d:	48 8d 0d 3c b1 00 00 	lea    0xb13c(%rip),%rcx        # e660 <list_macros>
    3524:	49 bb ab aa aa aa aa 	movabs $0xaaaaaaaaaaaaaaab,%r11
    352b:	aa aa aa 
    352e:	4c 8d 15 0b c3 00 00 	lea    0xc30b(%rip),%r10        # f840 <body>
    3535:	48 89 35 74 cc 01 00 	mov    %rsi,0x1cc74(%rip)        # 201b0 <head+0x970>
    353c:	4c 8d 89 50 01 00 00 	lea    0x150(%rcx),%r9
    3543:	31 f6                	xor    %esi,%esi
    3545:	0f 1f 00             	nopl   (%rax)
    3548:	48 0f bf 01          	movswq (%rcx),%rax
    354c:	48 8b 69 08          	mov    0x8(%rcx),%rbp
    3550:	48 89 f7             	mov    %rsi,%rdi
    3553:	48 89 c2             	mov    %rax,%rdx
    3556:	48 8d 04 40          	lea    (%rax,%rax,2),%rax
    355a:	4c 8d 04 52          	lea    (%rdx,%rdx,2),%r8
    355e:	48 c1 e0 03          	shl    $0x3,%rax
    3562:	4b 89 6c c5 00       	mov    %rbp,0x0(%r13,%r8,8)
    3567:	4c 8b 41 10          	mov    0x10(%rcx),%r8
    356b:	49 8d 74 05 00       	lea    0x0(%r13,%rax,1),%rsi
    3570:	4d 85 c0             	test   %r8,%r8
    3573:	74 17                	je     358c <main+0x23c>
    3575:	48 c1 f8 03          	sar    $0x3,%rax
    3579:	48 8d 2d 83 1a 00 00 	lea    0x1a83(%rip),%rbp        # 5003 <main+0x1cb3>
    3580:	49 0f af c3          	imul   %r11,%rax
    3584:	49 89 2c c6          	mov    %rbp,(%r14,%rax,8)
    3588:	4d 89 04 c2          	mov    %r8,(%r10,%rax,8)
    358c:	48 8d 04 52          	lea    (%rdx,%rdx,2),%rax
    3590:	48 83 c1 18          	add    $0x18,%rcx
    3594:	49 8d 44 c5 00       	lea    0x0(%r13,%rax,8),%rax
    3599:	48 89 70 10          	mov    %rsi,0x10(%rax)
    359d:	48 89 78 08          	mov    %rdi,0x8(%rax)
    35a1:	49 39 c9             	cmp    %rcx,%r9
    35a4:	75 a2                	jne    3548 <main+0x1f8>
    35a6:	48 8d 05 9b 42 23 00 	lea    0x23429b(%rip),%rax        # 237848 <normal>
    35ad:	b9 00 04 00 00       	mov    $0x400,%ecx
    35b2:	48 8d bc 24 40 01 00 	lea    0x140(%rsp),%rdi
    35b9:	00 
    35ba:	c7 84 24 80 00 00 00 	movl   $0xe,0x80(%rsp)
    35c1:	0e 00 00 00 
    35c5:	48 89 05 74 42 23 00 	mov    %rax,0x234274(%rip)        # 237840 <current>
    35cc:	48 8d 05 65 d3 01 00 	lea    0x1d365(%rip),%rax        # 20938 <head+0x10f8>
    35d3:	48 89 84 24 b0 00 00 	mov    %rax,0xb0(%rsp)
    35da:	00 
    35db:	48 8d 05 5e 42 03 00 	lea    0x3425e(%rip),%rax        # 37840 <code>
    35e2:	48 89 84 24 88 00 00 	mov    %rax,0x88(%rsp)
    35e9:	00 
    35ea:	31 c0                	xor    %eax,%eax
    35ec:	48 89 7c 24 38       	mov    %rdi,0x38(%rsp)
    35f1:	f3 48 ab             	rep stos %rax,%es:(%rdi)
    35f4:	48 8d 3d 65 5e 00 00 	lea    0x5e65(%rip),%rdi        # 9460 <src_base>
    35fb:	48 89 35 4e 42 23 00 	mov    %rsi,0x23424e(%rip)        # 237850 <macro>
    3602:	e8 f9 fc ff ff       	call   3300 <strdup@plt>
    3607:	48 89 44 24 20       	mov    %rax,0x20(%rsp)
    360c:	49 89 c4             	mov    %rax,%r12
    360f:	41 83 ff 01          	cmp    $0x1,%r15d
    3613:	0f 8f 7c 2c 00 00    	jg     6295 <main+0x2f45>
    3619:	48 8d 05 95 1a 00 00 	lea    0x1a95(%rip),%rax        # 50b5 <main+0x1d65>
    3620:	4c 8b 64 24 20       	mov    0x20(%rsp),%r12
    3625:	49 63 f7             	movslq %r15d,%rsi
    3628:	48 8d 2d a3 ab 00 00 	lea    0xaba3(%rip),%rbp        # e1d2 <init+0x2>
    362f:	48 89 05 12 42 01 00 	mov    %rax,0x14212(%rip)        # 17848 <call+0x8>
    3636:	48 8d 05 2c 1a 00 00 	lea    0x1a2c(%rip),%rax        # 5069 <main+0x1d19>
    363d:	48 89 05 2c 42 01 00 	mov    %rax,0x1422c(%rip)        # 17870 <call+0x30>
    3644:	48 8d 05 f2 19 00 00 	lea    0x19f2(%rip),%rax        # 503d <main+0x1ced>
    364b:	48 89 05 06 42 01 00 	mov    %rax,0x14206(%rip)        # 17858 <call+0x18>
    3652:	48 8d 05 aa 19 00 00 	lea    0x19aa(%rip),%rax        # 5003 <main+0x1cb3>
    3659:	48 89 05 68 45 01 00 	mov    %rax,0x14568(%rip)        # 17bc8 <call+0x388>
    3660:	48 8d 05 ad 0a 00 00 	lea    0xaad(%rip),%rax        # 4114 <main+0xdc4>
    3667:	48 89 05 e2 41 01 00 	mov    %rax,0x141e2(%rip)        # 17850 <call+0x10>
    366e:	48 8d 05 47 19 00 00 	lea    0x1947(%rip),%rax        # 4fbc <main+0x1c6c>
    3675:	48 89 05 fc 41 01 00 	mov    %rax,0x141fc(%rip)        # 17878 <call+0x38>
    367c:	48 8d 05 1e 19 00 00 	lea    0x191e(%rip),%rax        # 4fa1 <main+0x1c51>
    3683:	48 89 05 ae 43 01 00 	mov    %rax,0x143ae(%rip)        # 17a38 <call+0x1f8>
    368a:	48 8d 05 e8 18 00 00 	lea    0x18e8(%rip),%rax        # 4f79 <main+0x1c29>
    3691:	48 89 05 40 45 01 00 	mov    %rax,0x14540(%rip)        # 17bd8 <call+0x398>
    3698:	48 8d 05 af 18 00 00 	lea    0x18af(%rip),%rax        # 4f4e <main+0x1bfe>
    369f:	48 89 05 2a 45 01 00 	mov    %rax,0x1452a(%rip)        # 17bd0 <call+0x390>
    36a6:	48 8d 05 7d 18 00 00 	lea    0x187d(%rip),%rax        # 4f2a <main+0x1bda>
    36ad:	48 89 05 2c 45 01 00 	mov    %rax,0x1452c(%rip)        # 17be0 <call+0x3a0>
    36b4:	48 8d 05 26 18 00 00 	lea    0x1826(%rip),%rax        # 4ee1 <main+0x1b91>
    36bb:	48 89 05 26 45 01 00 	mov    %rax,0x14526(%rip)        # 17be8 <call+0x3a8>
    36c2:	48 8d 05 f9 17 00 00 	lea    0x17f9(%rip),%rax        # 4ec2 <main+0x1b72>
    36c9:	48 89 05 90 41 01 00 	mov    %rax,0x14190(%rip)        # 17860 <call+0x20>
    36d0:	48 8d 05 d3 17 00 00 	lea    0x17d3(%rip),%rax        # 4eaa <main+0x1b5a>
    36d7:	48 89 05 8a 41 01 00 	mov    %rax,0x1418a(%rip)        # 17868 <call+0x28>
    36de:	48 8d 05 ac 17 00 00 	lea    0x17ac(%rip),%rax        # 4e91 <main+0x1b41>
    36e5:	48 89 05 cc 41 01 00 	mov    %rax,0x141cc(%rip)        # 178b8 <call+0x78>
    36ec:	48 8d 05 85 17 00 00 	lea    0x1785(%rip),%rax        # 4e78 <main+0x1b28>
    36f3:	48 89 05 c6 41 01 00 	mov    %rax,0x141c6(%rip)        # 178c0 <call+0x80>
    36fa:	48 8d 05 5a 17 00 00 	lea    0x175a(%rip),%rax        # 4e5b <main+0x1b0b>
    3701:	48 89 05 c0 41 01 00 	mov    %rax,0x141c0(%rip)        # 178c8 <call+0x88>
    3708:	48 8d 05 22 17 00 00 	lea    0x1722(%rip),%rax        # 4e31 <main+0x1ae1>
    370f:	48 89 05 ba 41 01 00 	mov    %rax,0x141ba(%rip)        # 178d0 <call+0x90>
    3716:	48 8d 05 fe 16 00 00 	lea    0x16fe(%rip),%rax        # 4e1b <main+0x1acb>
    371d:	48 89 05 cc 41 01 00 	mov    %rax,0x141cc(%rip)        # 178f0 <call+0xb0>
    3724:	48 8d 05 be 16 00 00 	lea    0x16be(%rip),%rax        # 4de9 <main+0x1a99>
    372b:	48 89 05 c6 41 01 00 	mov    %rax,0x141c6(%rip)        # 178f8 <call+0xb8>
    3732:	48 8d 05 86 16 00 00 	lea    0x1686(%rip),%rax        # 4dbf <main+0x1a6f>
    3739:	48 89 05 c0 41 01 00 	mov    %rax,0x141c0(%rip)        # 17900 <call+0xc0>
    3740:	48 8d 05 4e 16 00 00 	lea    0x164e(%rip),%rax        # 4d95 <main+0x1a45>
    3747:	48 89 05 8a 41 01 00 	mov    %rax,0x1418a(%rip)        # 178d8 <call+0x98>
    374e:	48 8d 05 19 16 00 00 	lea    0x1619(%rip),%rax        # 4d6e <main+0x1a1e>
    3755:	48 89 05 84 41 01 00 	mov    %rax,0x14184(%rip)        # 178e0 <call+0xa0>
    375c:	48 8d 05 e9 15 00 00 	lea    0x15e9(%rip),%rax        # 4d4c <main+0x19fc>
    3763:	48 89 05 7e 41 01 00 	mov    %rax,0x1417e(%rip)        # 178e8 <call+0xa8>
    376a:	48 8d 05 b9 15 00 00 	lea    0x15b9(%rip),%rax        # 4d2a <main+0x19da>
    3771:	48 89 05 90 41 01 00 	mov    %rax,0x14190(%rip)        # 17908 <call+0xc8>
    3778:	48 8d 05 90 15 00 00 	lea    0x1590(%rip),%rax        # 4d0f <main+0x19bf>
    377f:	48 89 05 d2 45 01 00 	mov    %rax,0x145d2(%rip)        # 17d58 <call+0x518>
    3786:	48 8d 05 60 15 00 00 	lea    0x1560(%rip),%rax        # 4ced <main+0x199d>
    378d:	48 89 05 7c 41 01 00 	mov    %rax,0x1417c(%rip)        # 17910 <call+0xd0>
    3794:	48 8d 05 30 15 00 00 	lea    0x1530(%rip),%rax        # 4ccb <main+0x197b>
    379b:	48 89 05 76 41 01 00 	mov    %rax,0x14176(%rip)        # 17918 <call+0xd8>
    37a2:	48 8d 05 07 15 00 00 	lea    0x1507(%rip),%rax        # 4cb0 <main+0x1960>
    37a9:	48 89 05 a0 45 01 00 	mov    %rax,0x145a0(%rip)        # 17d50 <call+0x510>
    37b0:	48 8d 05 d7 14 00 00 	lea    0x14d7(%rip),%rax        # 4c8e <main+0x193e>
    37b7:	48 89 05 62 41 01 00 	mov    %rax,0x14162(%rip)        # 17920 <call+0xe0>
    37be:	48 8d 05 94 14 00 00 	lea    0x1494(%rip),%rax        # 4c59 <main+0x1909>
    37c5:	48 89 05 5c 41 01 00 	mov    %rax,0x1415c(%rip)        # 17928 <call+0xe8>
    37cc:	48 8d 05 51 14 00 00 	lea    0x1451(%rip),%rax        # 4c24 <main+0x18d4>
    37d3:	48 89 05 56 41 01 00 	mov    %rax,0x14156(%rip)        # 17930 <call+0xf0>
    37da:	48 8d 05 06 14 00 00 	lea    0x1406(%rip),%rax        # 4be7 <main+0x1897>
    37e1:	48 89 05 50 41 01 00 	mov    %rax,0x14150(%rip)        # 17938 <call+0xf8>
    37e8:	48 8d 05 c2 13 00 00 	lea    0x13c2(%rip),%rax        # 4bb1 <main+0x1861>
    37ef:	48 89 05 4a 41 01 00 	mov    %rax,0x1414a(%rip)        # 17940 <call+0x100>
    37f6:	48 8d 05 96 13 00 00 	lea    0x1396(%rip),%rax        # 4b93 <main+0x1843>
    37fd:	48 89 05 ec 43 01 00 	mov    %rax,0x143ec(%rip)        # 17bf0 <call+0x3b0>
    3804:	48 8d 05 6b 13 00 00 	lea    0x136b(%rip),%rax        # 4b76 <main+0x1826>
    380b:	48 89 05 e6 43 01 00 	mov    %rax,0x143e6(%rip)        # 17bf8 <call+0x3b8>
    3812:	48 8d 05 47 13 00 00 	lea    0x1347(%rip),%rax        # 4b60 <main+0x1810>
    3819:	48 89 05 60 45 01 00 	mov    %rax,0x14560(%rip)        # 17d80 <call+0x540>
    3820:	48 8d 05 15 13 00 00 	lea    0x1315(%rip),%rax        # 4b3c <main+0x17ec>
    3827:	48 89 05 d2 43 01 00 	mov    %rax,0x143d2(%rip)        # 17c00 <call+0x3c0>
    382e:	48 8d 05 e0 12 00 00 	lea    0x12e0(%rip),%rax        # 4b15 <main+0x17c5>
    3835:	48 89 05 cc 43 01 00 	mov    %rax,0x143cc(%rip)        # 17c08 <call+0x3c8>
    383c:	48 8d 05 b2 12 00 00 	lea    0x12b2(%rip),%rax        # 4af5 <main+0x17a5>
    3843:	48 89 05 26 45 01 00 	mov    %rax,0x14526(%rip)        # 17d70 <call+0x530>
    384a:	48 8d 05 8d 12 00 00 	lea    0x128d(%rip),%rax        # 4ade <main+0x178e>
    3851:	48 89 05 b8 43 01 00 	mov    %rax,0x143b8(%rip)        # 17c10 <call+0x3d0>
    3858:	48 8d 05 3f 12 00 00 	lea    0x123f(%rip),%rax        # 4a9e <main+0x174e>
    385f:	48 89 05 b2 43 01 00 	mov    %rax,0x143b2(%rip)        # 17c18 <call+0x3d8>
    3866:	48 8d 05 de 11 00 00 	lea    0x11de(%rip),%rax        # 4a4b <main+0x16fb>
    386d:	48 89 05 ac 43 01 00 	mov    %rax,0x143ac(%rip)        # 17c20 <call+0x3e0>
    3874:	48 8d 05 ae 11 00 00 	lea    0x11ae(%rip),%rax        # 4a29 <main+0x16d9>
    387b:	48 89 05 0e 40 01 00 	mov    %rax,0x1400e(%rip)        # 17890 <call+0x50>
    3882:	48 8d 05 85 11 00 00 	lea    0x1185(%rip),%rax        # 4a0e <main+0x16be>
    3889:	48 89 05 e8 44 01 00 	mov    %rax,0x144e8(%rip)        # 17d78 <call+0x538>
    3890:	48 8d 05 69 09 00 00 	lea    0x969(%rip),%rax        # 4200 <main+0xeb0>
    3897:	48 89 05 fa 3f 01 00 	mov    %rax,0x13ffa(%rip)        # 17898 <call+0x58>
    389e:	48 8d 05 23 11 00 00 	lea    0x1123(%rip),%rax        # 49c8 <main+0x1678>
    38a5:	48 89 05 dc 3f 01 00 	mov    %rax,0x13fdc(%rip)        # 17888 <call+0x48>
    38ac:	48 8d 05 f8 10 00 00 	lea    0x10f8(%rip),%rax        # 49ab <main+0x165b>
    38b3:	48 89 05 e6 3f 01 00 	mov    %rax,0x13fe6(%rip)        # 178a0 <call+0x60>
    38ba:	48 8d 05 ac 10 00 00 	lea    0x10ac(%rip),%rax        # 496d <main+0x161d>
    38c1:	48 89 05 b8 3f 01 00 	mov    %rax,0x13fb8(%rip)        # 17880 <call+0x40>
    38c8:	48 8d 05 6e 10 00 00 	lea    0x106e(%rip),%rax        # 493d <main+0x15ed>
    38cf:	48 89 05 d2 3f 01 00 	mov    %rax,0x13fd2(%rip)        # 178a8 <call+0x68>
    38d6:	48 8d 05 45 10 00 00 	lea    0x1045(%rip),%rax        # 4922 <main+0x15d2>
    38dd:	48 89 05 7c 44 01 00 	mov    %rax,0x1447c(%rip)        # 17d60 <call+0x520>
    38e4:	48 8d 05 07 10 00 00 	lea    0x1007(%rip),%rax        # 48f2 <main+0x15a2>
    38eb:	48 89 05 be 3f 01 00 	mov    %rax,0x13fbe(%rip)        # 178b0 <call+0x70>
    38f2:	48 8d 05 f4 08 00 00 	lea    0x8f4(%rip),%rax        # 41ed <main+0xe9d>
    38f9:	48 89 05 68 44 01 00 	mov    %rax,0x14468(%rip)        # 17d68 <call+0x528>
    3900:	48 8d 05 d5 0f 00 00 	lea    0xfd5(%rip),%rax        # 48dc <main+0x158c>
    3907:	48 89 05 3a 40 01 00 	mov    %rax,0x1403a(%rip)        # 17948 <call+0x108>
    390e:	48 8d 05 a1 0f 00 00 	lea    0xfa1(%rip),%rax        # 48b6 <main+0x1566>
    3915:	48 89 05 34 40 01 00 	mov    %rax,0x14034(%rip)        # 17950 <call+0x110>
    391c:	48 8d 05 6d 0f 00 00 	lea    0xf6d(%rip),%rax        # 4890 <main+0x1540>
    3923:	48 89 05 2e 40 01 00 	mov    %rax,0x1402e(%rip)        # 17958 <call+0x118>
    392a:	48 8d 05 48 0f 00 00 	lea    0xf48(%rip),%rax        # 4879 <main+0x1529>
    3931:	48 89 05 28 40 01 00 	mov    %rax,0x14028(%rip)        # 17960 <call+0x120>
    3938:	48 8d 05 14 0f 00 00 	lea    0xf14(%rip),%rax        # 4853 <main+0x1503>
    393f:	48 89 05 22 40 01 00 	mov    %rax,0x14022(%rip)        # 17968 <call+0x128>
    3946:	48 8d 05 e7 0e 00 00 	lea    0xee7(%rip),%rax        # 4834 <main+0x14e4>
    394d:	48 89 05 1c 40 01 00 	mov    %rax,0x1401c(%rip)        # 17970 <call+0x130>
    3954:	48 8d 05 c4 0e 00 00 	lea    0xec4(%rip),%rax        # 481f <main+0x14cf>
    395b:	48 89 05 16 40 01 00 	mov    %rax,0x14016(%rip)        # 17978 <call+0x138>
    3962:	48 8d 05 9d 0e 00 00 	lea    0xe9d(%rip),%rax        # 4806 <main+0x14b6>
    3969:	48 89 05 10 40 01 00 	mov    %rax,0x14010(%rip)        # 17980 <call+0x140>
    3970:	48 8d 05 6f 0e 00 00 	lea    0xe6f(%rip),%rax        # 47e6 <main+0x1496>
    3977:	48 89 05 0a 40 01 00 	mov    %rax,0x1400a(%rip)        # 17988 <call+0x148>
    397e:	48 8d 05 3e 0e 00 00 	lea    0xe3e(%rip),%rax        # 47c3 <main+0x1473>
    3985:	48 89 05 04 40 01 00 	mov    %rax,0x14004(%rip)        # 17990 <call+0x150>
    398c:	48 8d 05 0d 0e 00 00 	lea    0xe0d(%rip),%rax        # 47a0 <main+0x1450>
    3993:	48 89 05 fe 3f 01 00 	mov    %rax,0x13ffe(%rip)        # 17998 <call+0x158>
    399a:	48 8d 05 e5 0d 00 00 	lea    0xde5(%rip),%rax        # 4786 <main+0x1436>
    39a1:	48 89 05 f8 3f 01 00 	mov    %rax,0x13ff8(%rip)        # 179a0 <call+0x160>
    39a8:	48 8d 05 b5 0d 00 00 	lea    0xdb5(%rip),%rax        # 4764 <main+0x1414>
    39af:	48 89 05 f2 3f 01 00 	mov    %rax,0x13ff2(%rip)        # 179a8 <call+0x168>
    39b6:	48 8d 05 85 0d 00 00 	lea    0xd85(%rip),%rax        # 4742 <main+0x13f2>
    39bd:	48 89 05 ec 3f 01 00 	mov    %rax,0x13fec(%rip)        # 179b0 <call+0x170>
    39c4:	48 8d 05 5e 0d 00 00 	lea    0xd5e(%rip),%rax        # 4729 <main+0x13d9>
    39cb:	48 89 05 e6 3f 01 00 	mov    %rax,0x13fe6(%rip)        # 179b8 <call+0x178>
    39d2:	48 8d 05 37 0d 00 00 	lea    0xd37(%rip),%rax        # 4710 <main+0x13c0>
    39d9:	48 89 05 e0 3f 01 00 	mov    %rax,0x13fe0(%rip)        # 179c0 <call+0x180>
    39e0:	48 8d 05 10 0d 00 00 	lea    0xd10(%rip),%rax        # 46f7 <main+0x13a7>
    39e7:	48 89 05 da 3f 01 00 	mov    %rax,0x13fda(%rip)        # 179c8 <call+0x188>
    39ee:	48 8d 05 ed 0c 00 00 	lea    0xced(%rip),%rax        # 46e2 <main+0x1392>
    39f5:	48 89 05 4c 43 01 00 	mov    %rax,0x1434c(%rip)        # 17d48 <call+0x508>
    39fc:	48 8d 05 bb 0c 00 00 	lea    0xcbb(%rip),%rax        # 46be <main+0x136e>
    3a03:	48 89 05 c6 3f 01 00 	mov    %rax,0x13fc6(%rip)        # 179d0 <call+0x190>
    3a0a:	48 8d 05 89 0c 00 00 	lea    0xc89(%rip),%rax        # 469a <main+0x134a>
    3a11:	48 89 05 c0 3f 01 00 	mov    %rax,0x13fc0(%rip)        # 179d8 <call+0x198>
    3a18:	48 8d 05 57 0c 00 00 	lea    0xc57(%rip),%rax        # 4676 <main+0x1326>
    3a1f:	48 89 05 ba 3f 01 00 	mov    %rax,0x13fba(%rip)        # 179e0 <call+0x1a0>
    3a26:	48 8d 05 25 0c 00 00 	lea    0xc25(%rip),%rax        # 4652 <main+0x1302>
    3a2d:	48 89 05 b4 3f 01 00 	mov    %rax,0x13fb4(%rip)        # 179e8 <call+0x1a8>
    3a34:	48 8d 05 fe 0b 00 00 	lea    0xbfe(%rip),%rax        # 4639 <main+0x12e9>
    3a3b:	48 89 05 ae 3f 01 00 	mov    %rax,0x13fae(%rip)        # 179f0 <call+0x1b0>
    3a42:	48 8d 05 da 0b 00 00 	lea    0xbda(%rip),%rax        # 4623 <main+0x12d3>
    3a49:	48 89 05 a8 3f 01 00 	mov    %rax,0x13fa8(%rip)        # 179f8 <call+0x1b8>
    3a50:	48 8d 05 ac 0b 00 00 	lea    0xbac(%rip),%rax        # 4603 <main+0x12b3>
    3a57:	48 89 05 a2 3f 01 00 	mov    %rax,0x13fa2(%rip)        # 17a00 <call+0x1c0>
    3a5e:	48 8d 05 86 0b 00 00 	lea    0xb86(%rip),%rax        # 45eb <main+0x129b>
    3a65:	48 89 05 84 40 01 00 	mov    %rax,0x14084(%rip)        # 17af0 <call+0x2b0>
    3a6c:	48 8d 05 4f 0b 00 00 	lea    0xb4f(%rip),%rax        # 45c2 <main+0x1272>
    3a73:	48 89 05 96 3f 01 00 	mov    %rax,0x13f96(%rip)        # 17a10 <call+0x1d0>
    3a7a:	48 8d 05 18 0b 00 00 	lea    0xb18(%rip),%rax        # 4599 <main+0x1249>
    3a81:	48 89 05 80 3f 01 00 	mov    %rax,0x13f80(%rip)        # 17a08 <call+0x1c8>
    3a88:	48 8d 05 f4 0a 00 00 	lea    0xaf4(%rip),%rax        # 4583 <main+0x1233>
    3a8f:	48 89 05 82 3f 01 00 	mov    %rax,0x13f82(%rip)        # 17a18 <call+0x1d8>
    3a96:	48 8d 05 d0 0a 00 00 	lea    0xad0(%rip),%rax        # 456d <main+0x121d>
    3a9d:	48 89 05 7c 3f 01 00 	mov    %rax,0x13f7c(%rip)        # 17a20 <call+0x1e0>
    3aa4:	48 8d 05 ad 0a 00 00 	lea    0xaad(%rip),%rax        # 4558 <main+0x1208>
    3aab:	48 89 05 76 3f 01 00 	mov    %rax,0x13f76(%rip)        # 17a28 <call+0x1e8>
    3ab2:	48 8d 05 8a 0a 00 00 	lea    0xa8a(%rip),%rax        # 4543 <main+0x11f3>
    3ab9:	48 89 05 70 3f 01 00 	mov    %rax,0x13f70(%rip)        # 17a30 <call+0x1f0>
    3ac0:	48 8d 05 4d 0a 00 00 	lea    0xa4d(%rip),%rax        # 4514 <main+0x11c4>
    3ac7:	48 89 05 72 3f 01 00 	mov    %rax,0x13f72(%rip)        # 17a40 <call+0x200>
    3ace:	48 8d 05 10 0a 00 00 	lea    0xa10(%rip),%rax        # 44e5 <main+0x1195>
    3ad5:	48 89 05 6c 3f 01 00 	mov    %rax,0x13f6c(%rip)        # 17a48 <call+0x208>
    3adc:	48 8d 05 dc 09 00 00 	lea    0x9dc(%rip),%rax        # 44bf <main+0x116f>
    3ae3:	48 89 05 96 41 01 00 	mov    %rax,0x14196(%rip)        # 17c80 <call+0x440>
    3aea:	48 8d 05 a8 09 00 00 	lea    0x9a8(%rip),%rax        # 4499 <main+0x1149>
    3af1:	48 89 05 90 41 01 00 	mov    %rax,0x14190(%rip)        # 17c88 <call+0x448>
    3af8:	48 8d 05 70 09 00 00 	lea    0x970(%rip),%rax        # 446f <main+0x111f>
    3aff:	48 89 05 9a 41 01 00 	mov    %rax,0x1419a(%rip)        # 17ca0 <call+0x460>
    3b06:	48 8d 05 63 05 00 00 	lea    0x563(%rip),%rax        # 4070 <main+0xd20>
    3b0d:	48 89 05 94 41 01 00 	mov    %rax,0x14194(%rip)        # 17ca8 <call+0x468>
    3b14:	48 8d 05 2b 09 00 00 	lea    0x92b(%rip),%rax        # 4446 <main+0x10f6>
    3b1b:	48 89 05 8e 41 01 00 	mov    %rax,0x1418e(%rip)        # 17cb0 <call+0x470>
    3b22:	48 8d 05 fd 08 00 00 	lea    0x8fd(%rip),%rax        # 4426 <main+0x10d6>
    3b29:	48 89 05 c0 41 01 00 	mov    %rax,0x141c0(%rip)        # 17cf0 <call+0x4b0>
    3b30:	48 8d 05 cf 08 00 00 	lea    0x8cf(%rip),%rax        # 4406 <main+0x10b6>
    3b37:	48 89 05 7a 41 01 00 	mov    %rax,0x1417a(%rip)        # 17cb8 <call+0x478>
    3b3e:	48 8d 05 a1 08 00 00 	lea    0x8a1(%rip),%rax        # 43e6 <main+0x1096>
    3b45:	48 89 05 dc 40 01 00 	mov    %rax,0x140dc(%rip)        # 17c28 <call+0x3e8>
    3b4c:	48 8d 05 73 08 00 00 	lea    0x873(%rip),%rax        # 43c6 <main+0x1076>
    3b53:	48 89 05 d6 40 01 00 	mov    %rax,0x140d6(%rip)        # 17c30 <call+0x3f0>
    3b5a:	48 8d 05 45 08 00 00 	lea    0x845(%rip),%rax        # 43a6 <main+0x1056>
    3b61:	48 89 05 d0 40 01 00 	mov    %rax,0x140d0(%rip)        # 17c38 <call+0x3f8>
    3b68:	48 8d 05 17 08 00 00 	lea    0x817(%rip),%rax        # 4386 <main+0x1036>
    3b6f:	48 89 05 e2 3e 01 00 	mov    %rax,0x13ee2(%rip)        # 17a58 <call+0x218>
    3b76:	48 8d 05 e9 07 00 00 	lea    0x7e9(%rip),%rax        # 4366 <main+0x1016>
    3b7d:	48 89 05 dc 3e 01 00 	mov    %rax,0x13edc(%rip)        # 17a60 <call+0x220>
    3b84:	48 8d 05 76 07 00 00 	lea    0x776(%rip),%rax        # 4301 <main+0xfb1>
    3b8b:	48 89 05 2e 41 01 00 	mov    %rax,0x1412e(%rip)        # 17cc0 <call+0x480>
    3b92:	48 8d 05 27 07 00 00 	lea    0x727(%rip),%rax        # 42c0 <main+0xf70>
    3b99:	48 89 05 d8 3e 01 00 	mov    %rax,0x13ed8(%rip)        # 17a78 <call+0x238>
    3ba0:	48 8d 05 9a 04 00 00 	lea    0x49a(%rip),%rax        # 4041 <main+0xcf1>
    3ba7:	48 89 05 ba 3e 01 00 	mov    %rax,0x13eba(%rip)        # 17a68 <call+0x228>
    3bae:	48 8d 05 d7 06 00 00 	lea    0x6d7(%rip),%rax        # 428c <main+0xf3c>
    3bb5:	48 89 05 84 40 01 00 	mov    %rax,0x14084(%rip)        # 17c40 <call+0x400>
    3bbc:	48 8d 05 d6 04 00 00 	lea    0x4d6(%rip),%rax        # 4099 <main+0xd49>
    3bc3:	48 89 05 fe 40 01 00 	mov    %rax,0x140fe(%rip)        # 17cc8 <call+0x488>
    3bca:	48 8d 05 8b 06 00 00 	lea    0x68b(%rip),%rax        # 425c <main+0xf0c>
    3bd1:	48 89 05 98 3e 01 00 	mov    %rax,0x13e98(%rip)        # 17a70 <call+0x230>
    3bd8:	48 8d 05 8f 26 00 00 	lea    0x268f(%rip),%rax        # 626e <main+0x2f1e>
    3bdf:	48 89 05 62 40 01 00 	mov    %rax,0x14062(%rip)        # 17c48 <call+0x408>
    3be6:	48 8d 05 68 26 00 00 	lea    0x2668(%rip),%rax        # 6255 <main+0x2f05>
    3bed:	48 89 05 5c 40 01 00 	mov    %rax,0x1405c(%rip)        # 17c50 <call+0x410>
    3bf4:	48 8d 05 41 26 00 00 	lea    0x2641(%rip),%rax        # 623c <main+0x2eec>
    3bfb:	48 89 05 56 40 01 00 	mov    %rax,0x14056(%rip)        # 17c58 <call+0x418>
    3c02:	48 8d 05 1d 26 00 00 	lea    0x261d(%rip),%rax        # 6226 <main+0x2ed6>
    3c09:	48 89 05 50 40 01 00 	mov    %rax,0x14050(%rip)        # 17c60 <call+0x420>
    3c10:	48 8d 05 f2 25 00 00 	lea    0x25f2(%rip),%rax        # 6209 <main+0x2eb9>
    3c17:	48 89 05 4a 40 01 00 	mov    %rax,0x1404a(%rip)        # 17c68 <call+0x428>
    3c1e:	48 8d 05 c9 25 00 00 	lea    0x25c9(%rip),%rax        # 61ee <main+0x2e9e>
    3c25:	48 89 05 44 40 01 00 	mov    %rax,0x14044(%rip)        # 17c70 <call+0x430>
    3c2c:	48 8d 05 a0 25 00 00 	lea    0x25a0(%rip),%rax        # 61d3 <main+0x2e83>
    3c33:	48 89 05 3e 40 01 00 	mov    %rax,0x1403e(%rip)        # 17c78 <call+0x438>
    3c3a:	48 8d 05 70 25 00 00 	lea    0x2570(%rip),%rax        # 61b1 <main+0x2e61>
    3c41:	48 89 05 e0 3e 01 00 	mov    %rax,0x13ee0(%rip)        # 17b28 <call+0x2e8>
    3c48:	48 8d 05 18 25 00 00 	lea    0x2518(%rip),%rax        # 6167 <main+0x2e17>
    3c4f:	48 89 05 da 3e 01 00 	mov    %rax,0x13eda(%rip)        # 17b30 <call+0x2f0>
    3c56:	48 8d 05 cf 24 00 00 	lea    0x24cf(%rip),%rax        # 612c <main+0x2ddc>
    3c5d:	48 89 05 1c 3e 01 00 	mov    %rax,0x13e1c(%rip)        # 17a80 <call+0x240>
    3c64:	48 8d 05 9b 24 00 00 	lea    0x249b(%rip),%rax        # 6106 <main+0x2db6>
    3c6b:	48 89 05 16 3e 01 00 	mov    %rax,0x13e16(%rip)        # 17a88 <call+0x248>
    3c72:	48 8d 05 67 24 00 00 	lea    0x2467(%rip),%rax        # 60e0 <main+0x2d90>
    3c79:	48 89 05 10 3e 01 00 	mov    %rax,0x13e10(%rip)        # 17a90 <call+0x250>
    3c80:	48 8d 05 3c 24 00 00 	lea    0x243c(%rip),%rax        # 60c3 <main+0x2d73>
    3c87:	48 89 05 aa 3e 01 00 	mov    %rax,0x13eaa(%rip)        # 17b38 <call+0x2f8>
    3c8e:	48 8d 05 0d 24 00 00 	lea    0x240d(%rip),%rax        # 60a2 <main+0x2d52>
    3c95:	48 89 05 a4 3e 01 00 	mov    %rax,0x13ea4(%rip)        # 17b40 <call+0x300>
    3c9c:	48 8d 05 df 23 00 00 	lea    0x23df(%rip),%rax        # 6082 <main+0x2d32>
    3ca3:	48 89 05 26 40 01 00 	mov    %rax,0x14026(%rip)        # 17cd0 <call+0x490>
    3caa:	48 8d 05 b1 23 00 00 	lea    0x23b1(%rip),%rax        # 6062 <main+0x2d12>
    3cb1:	48 89 05 20 40 01 00 	mov    %rax,0x14020(%rip)        # 17cd8 <call+0x498>
    3cb8:	48 8d 05 83 23 00 00 	lea    0x2383(%rip),%rax        # 6042 <main+0x2cf2>
    3cbf:	48 89 05 22 40 01 00 	mov    %rax,0x14022(%rip)        # 17ce8 <call+0x4a8>
    3cc6:	48 8d 05 55 23 00 00 	lea    0x2355(%rip),%rax        # 6022 <main+0x2cd2>
    3ccd:	48 89 05 0c 40 01 00 	mov    %rax,0x1400c(%rip)        # 17ce0 <call+0x4a0>
    3cd4:	48 8d 05 19 23 00 00 	lea    0x2319(%rip),%rax        # 5ff4 <main+0x2ca4>
    3cdb:	48 89 05 b6 3d 01 00 	mov    %rax,0x13db6(%rip)        # 17a98 <call+0x258>
    3ce2:	48 8d 05 e6 22 00 00 	lea    0x22e6(%rip),%rax        # 5fcf <main+0x2c7f>
    3ce9:	48 89 05 b0 3d 01 00 	mov    %rax,0x13db0(%rip)        # 17aa0 <call+0x260>
    3cf0:	48 8d 05 b7 22 00 00 	lea    0x22b7(%rip),%rax        # 5fae <main+0x2c5e>
    3cf7:	48 89 05 aa 3d 01 00 	mov    %rax,0x13daa(%rip)        # 17aa8 <call+0x268>
    3cfe:	48 8d 05 8c 22 00 00 	lea    0x228c(%rip),%rax        # 5f91 <main+0x2c41>
    3d05:	48 89 05 3c 3e 01 00 	mov    %rax,0x13e3c(%rip)        # 17b48 <call+0x308>
    3d0c:	48 8d 05 44 22 00 00 	lea    0x2244(%rip),%rax        # 5f57 <main+0x2c07>
    3d13:	48 89 05 36 3e 01 00 	mov    %rax,0x13e36(%rip)        # 17b50 <call+0x310>
    3d1a:	48 8d 05 01 22 00 00 	lea    0x2201(%rip),%rax        # 5f22 <main+0x2bd2>
    3d21:	48 89 05 88 3d 01 00 	mov    %rax,0x13d88(%rip)        # 17ab0 <call+0x270>
    3d28:	48 8d 05 ca 21 00 00 	lea    0x21ca(%rip),%rax        # 5ef9 <main+0x2ba9>
    3d2f:	48 89 05 5a 3f 01 00 	mov    %rax,0x13f5a(%rip)        # 17c90 <call+0x450>
    3d36:	48 8d 05 85 21 00 00 	lea    0x2185(%rip),%rax        # 5ec2 <main+0x2b72>
    3d3d:	48 89 05 54 3f 01 00 	mov    %rax,0x13f54(%rip)        # 17c98 <call+0x458>
    3d44:	48 8d 05 31 21 00 00 	lea    0x2131(%rip),%rax        # 5e7c <main+0x2b2c>
    3d4b:	48 89 05 fe 3c 01 00 	mov    %rax,0x13cfe(%rip)        # 17a50 <call+0x210>
    3d52:	48 8d 05 f7 20 00 00 	lea    0x20f7(%rip),%rax        # 5e50 <main+0x2b00>
    3d59:	48 89 05 58 3d 01 00 	mov    %rax,0x13d58(%rip)        # 17ab8 <call+0x278>
    3d60:	48 8d 05 c8 20 00 00 	lea    0x20c8(%rip),%rax        # 5e2f <main+0x2adf>
    3d67:	48 89 05 52 3d 01 00 	mov    %rax,0x13d52(%rip)        # 17ac0 <call+0x280>
    3d6e:	48 8d 05 8c 20 00 00 	lea    0x208c(%rip),%rax        # 5e01 <main+0x2ab1>
    3d75:	48 89 05 bc 3f 01 00 	mov    %rax,0x13fbc(%rip)        # 17d38 <call+0x4f8>
    3d7c:	48 8d 05 53 20 00 00 	lea    0x2053(%rip),%rax        # 5dd6 <main+0x2a86>
    3d83:	48 89 05 b6 3f 01 00 	mov    %rax,0x13fb6(%rip)        # 17d40 <call+0x500>
    3d8a:	48 8d 05 fb 1f 00 00 	lea    0x1ffb(%rip),%rax        # 5d8c <main+0x2a3c>
    3d91:	48 89 05 30 3d 01 00 	mov    %rax,0x13d30(%rip)        # 17ac8 <call+0x288>
    3d98:	48 8d 05 a8 1f 00 00 	lea    0x1fa8(%rip),%rax        # 5d47 <main+0x29f7>
    3d9f:	48 89 05 2a 3d 01 00 	mov    %rax,0x13d2a(%rip)        # 17ad0 <call+0x290>
    3da6:	48 8d 05 59 1f 00 00 	lea    0x1f59(%rip),%rax        # 5d06 <main+0x29b6>
    3dad:	48 89 05 24 3d 01 00 	mov    %rax,0x13d24(%rip)        # 17ad8 <call+0x298>
    3db4:	48 8d 05 35 1f 00 00 	lea    0x1f35(%rip),%rax        # 5cf0 <main+0x29a0>
    3dbb:	48 89 05 1e 3d 01 00 	mov    %rax,0x13d1e(%rip)        # 17ae0 <call+0x2a0>
    3dc2:	48 8d 05 15 1f 00 00 	lea    0x1f15(%rip),%rax        # 5cde <main+0x298e>
    3dc9:	48 89 05 18 3d 01 00 	mov    %rax,0x13d18(%rip)        # 17ae8 <call+0x2a8>
    3dd0:	48 8d 05 cf 1e 00 00 	lea    0x1ecf(%rip),%rax        # 5ca6 <main+0x2956>
    3dd7:	48 89 05 1a 3d 01 00 	mov    %rax,0x13d1a(%rip)        # 17af8 <call+0x2b8>
    3dde:	48 8d 05 a5 1e 00 00 	lea    0x1ea5(%rip),%rax        # 5c8a <main+0x293a>
    3de5:	48 89 05 1c 3d 01 00 	mov    %rax,0x13d1c(%rip)        # 17b08 <call+0x2c8>
    3dec:	48 8d 05 60 1e 00 00 	lea    0x1e60(%rip),%rax        # 5c53 <main+0x2903>
    3df3:	48 89 05 16 3d 01 00 	mov    %rax,0x13d16(%rip)        # 17b10 <call+0x2d0>
    3dfa:	48 8d 05 a7 1d 00 00 	lea    0x1da7(%rip),%rax        # 5ba8 <main+0x2858>
    3e01:	48 89 05 60 3d 01 00 	mov    %rax,0x13d60(%rip)        # 17b68 <call+0x328>
    3e08:	48 8d 05 c5 1c 00 00 	lea    0x1cc5(%rip),%rax        # 5ad4 <main+0x2784>
    3e0f:	48 89 05 5a 3d 01 00 	mov    %rax,0x13d5a(%rip)        # 17b70 <call+0x330>
    3e16:	48 8d 05 4e 1c 00 00 	lea    0x1c4e(%rip),%rax        # 5a6b <main+0x271b>
    3e1d:	48 89 05 54 3d 01 00 	mov    %rax,0x13d54(%rip)        # 17b78 <call+0x338>
    3e24:	48 8d 05 e5 1b 00 00 	lea    0x1be5(%rip),%rax        # 5a10 <main+0x26c0>
    3e2b:	48 89 05 4e 3d 01 00 	mov    %rax,0x13d4e(%rip)        # 17b80 <call+0x340>
    3e32:	48 8d 05 69 1b 00 00 	lea    0x1b69(%rip),%rax        # 59a2 <main+0x2652>
    3e39:	48 89 05 48 3d 01 00 	mov    %rax,0x13d48(%rip)        # 17b88 <call+0x348>
    3e40:	48 8d 05 de 1a 00 00 	lea    0x1ade(%rip),%rax        # 5925 <main+0x25d5>
    3e47:	48 89 05 42 3d 01 00 	mov    %rax,0x13d42(%rip)        # 17b90 <call+0x350>
    3e4e:	48 8d 05 71 1a 00 00 	lea    0x1a71(%rip),%rax        # 58c6 <main+0x2576>
    3e55:	48 89 05 3c 3d 01 00 	mov    %rax,0x13d3c(%rip)        # 17b98 <call+0x358>
    3e5c:	48 8d 05 db 02 00 00 	lea    0x2db(%rip),%rax        # 413e <main+0xdee>
    3e63:	48 89 05 46 3d 01 00 	mov    %rax,0x13d46(%rip)        # 17bb0 <call+0x370>
    3e6a:	48 8d 05 c9 19 00 00 	lea    0x19c9(%rip),%rax        # 583a <main+0x24ea>
    3e71:	48 89 05 40 3d 01 00 	mov    %rax,0x13d40(%rip)        # 17bb8 <call+0x378>
    3e78:	48 8d 05 bf 02 00 00 	lea    0x2bf(%rip),%rax        # 413e <main+0xdee>
    3e7f:	48 89 05 82 3e 01 00 	mov    %rax,0x13e82(%rip)        # 17d08 <call+0x4c8>
    3e86:	48 8d 05 5d 19 00 00 	lea    0x195d(%rip),%rax        # 57ea <main+0x249a>
    3e8d:	48 89 05 0c 3d 01 00 	mov    %rax,0x13d0c(%rip)        # 17ba0 <call+0x360>
    3e94:	48 8d 05 fc 18 00 00 	lea    0x18fc(%rip),%rax        # 5797 <main+0x2447>
    3e9b:	48 89 05 06 3d 01 00 	mov    %rax,0x13d06(%rip)        # 17ba8 <call+0x368>
    3ea2:	48 8d 05 93 18 00 00 	lea    0x1893(%rip),%rax        # 573c <main+0x23ec>
    3ea9:	48 89 05 10 3d 01 00 	mov    %rax,0x13d10(%rip)        # 17bc0 <call+0x380>
    3eb0:	48 8d 05 66 18 00 00 	lea    0x1866(%rip),%rax        # 571d <main+0x23cd>
    3eb7:	48 89 05 42 3c 01 00 	mov    %rax,0x13c42(%rip)        # 17b00 <call+0x2c0>
    3ebe:	48 8d 05 36 18 00 00 	lea    0x1836(%rip),%rax        # 56fb <main+0x23ab>
    3ec5:	48 89 05 4c 3c 01 00 	mov    %rax,0x13c4c(%rip)        # 17b18 <call+0x2d8>
    3ecc:	48 8d 05 eb 17 00 00 	lea    0x17eb(%rip),%rax        # 56be <main+0x236e>
    3ed3:	48 89 05 1e 3e 01 00 	mov    %rax,0x13e1e(%rip)        # 17cf8 <call+0x4b8>
    3eda:	48 8d 05 bc 17 00 00 	lea    0x17bc(%rip),%rax        # 569d <main+0x234d>
    3ee1:	48 89 05 18 3e 01 00 	mov    %rax,0x13e18(%rip)        # 17d00 <call+0x4c0>
    3ee8:	48 8d 05 8d 17 00 00 	lea    0x178d(%rip),%rax        # 567c <main+0x232c>
    3eef:	48 89 05 1a 3e 01 00 	mov    %rax,0x13e1a(%rip)        # 17d10 <call+0x4d0>
    3ef6:	48 8d 05 59 17 00 00 	lea    0x1759(%rip),%rax        # 5656 <main+0x2306>
    3efd:	48 89 05 14 3e 01 00 	mov    %rax,0x13e14(%rip)        # 17d18 <call+0x4d8>
    3f04:	48 8d 05 26 17 00 00 	lea    0x1726(%rip),%rax        # 5631 <main+0x22e1>
    3f0b:	48 89 05 0e 3e 01 00 	mov    %rax,0x13e0e(%rip)        # 17d20 <call+0x4e0>
    3f12:	48 8d 05 a1 16 00 00 	lea    0x16a1(%rip),%rax        # 55ba <main+0x226a>
    3f19:	48 89 05 08 3e 01 00 	mov    %rax,0x13e08(%rip)        # 17d28 <call+0x4e8>
    3f20:	48 8d 05 55 16 00 00 	lea    0x1655(%rip),%rax        # 557c <main+0x222c>
    3f27:	48 0f bf 15 a1 a2 00 	movswq 0xa2a1(%rip),%rdx        # e1d0 <init>
    3f2e:	00 
    3f2f:	48 89 05 fa 3d 01 00 	mov    %rax,0x13dfa(%rip)        # 17d30 <call+0x4f0>
    3f36:	48 8d 05 16 16 00 00 	lea    0x1616(%rip),%rax        # 5553 <main+0x2203>
    3f3d:	48 89 05 44 3e 01 00 	mov    %rax,0x13e44(%rip)        # 17d88 <call+0x548>
    3f44:	48 8d 05 c6 15 00 00 	lea    0x15c6(%rip),%rax        # 5511 <main+0x21c1>
    3f4b:	48 89 05 3e 3e 01 00 	mov    %rax,0x13e3e(%rip)        # 17d90 <call+0x550>
    3f52:	48 8d 05 9b 15 00 00 	lea    0x159b(%rip),%rax        # 54f4 <main+0x21a4>
    3f59:	48 89 05 38 3e 01 00 	mov    %rax,0x13e38(%rip)        # 17d98 <call+0x558>
    3f60:	48 8d 05 70 15 00 00 	lea    0x1570(%rip),%rax        # 54d7 <main+0x2187>
    3f67:	48 89 05 3a 3e 01 00 	mov    %rax,0x13e3a(%rip)        # 17da8 <call+0x568>
    3f6e:	48 8d 05 38 14 00 00 	lea    0x1438(%rip),%rax        # 53ad <main+0x205d>
    3f75:	48 89 05 24 3e 01 00 	mov    %rax,0x13e24(%rip)        # 17da0 <call+0x560>
    3f7c:	48 8d 05 05 14 00 00 	lea    0x1405(%rip),%rax        # 5388 <main+0x2038>
    3f83:	48 89 05 26 3e 01 00 	mov    %rax,0x13e26(%rip)        # 17db0 <call+0x570>
    3f8a:	48 8d 05 ba 13 00 00 	lea    0x13ba(%rip),%rax        # 534b <main+0x1ffb>
    3f91:	48 89 05 20 3e 01 00 	mov    %rax,0x13e20(%rip)        # 17db8 <call+0x578>
    3f98:	48 8d 05 6f 13 00 00 	lea    0x136f(%rip),%rax        # 530e <main+0x1fbe>
    3f9f:	48 89 05 1a 3e 01 00 	mov    %rax,0x13e1a(%rip)        # 17dc0 <call+0x580>
    3fa6:	48 8d 05 2a 13 00 00 	lea    0x132a(%rip),%rax        # 52d7 <main+0x1f87>
    3fad:	48 89 05 14 3e 01 00 	mov    %rax,0x13e14(%rip)        # 17dc8 <call+0x588>
    3fb4:	48 8d 05 f8 12 00 00 	lea    0x12f8(%rip),%rax        # 52b3 <main+0x1f63>
    3fbb:	48 89 05 0e 3e 01 00 	mov    %rax,0x13e0e(%rip)        # 17dd0 <call+0x590>
    3fc2:	48 8d 05 ac 12 00 00 	lea    0x12ac(%rip),%rax        # 5275 <main+0x1f25>
    3fc9:	48 89 1d 10 3e 01 00 	mov    %rbx,0x13e10(%rip)        # 17de0 <call+0x5a0>
    3fd0:	48 8d 9c 24 58 61 00 	lea    0x6158(%rsp),%rbx
    3fd7:	00 
    3fd8:	48 89 05 f9 3d 01 00 	mov    %rax,0x13df9(%rip)        # 17dd8 <call+0x598>
    3fdf:	48 8d 05 05 12 00 00 	lea    0x1205(%rip),%rax        # 51eb <main+0x1e9b>
    3fe6:	48 89 5c 24 18       	mov    %rbx,0x18(%rsp)
    3feb:	48 8d 9c 24 58 41 00 	lea    0x4158(%rsp),%rbx
    3ff2:	00 
    3ff3:	48 89 05 26 3b 01 00 	mov    %rax,0x13b26(%rip)        # 17b20 <call+0x2e0>
    3ffa:	48 89 d0             	mov    %rdx,%rax
    3ffd:	49 8b 14 d6          	mov    (%r14,%rdx,8),%rdx
    4001:	48 89 5c 24 60       	mov    %rbx,0x60(%rsp)
    4006:	48 89 5c 24 10       	mov    %rbx,0x10(%rsp)
    400b:	48 8d 9c 24 58 21 00 	lea    0x2158(%rsp),%rbx
    4012:	00 
    4013:	48 89 5c 24 58       	mov    %rbx,0x58(%rsp)
    4018:	48 89 5c 24 08       	mov    %rbx,0x8(%rsp)
    401d:	48 8d 9c 24 58 01 00 	lea    0x158(%rsp),%rbx
    4024:	00 
    4025:	c7 44 24 68 00 00 00 	movl   $0x0,0x68(%rsp)
    402c:	00 
    402d:	c7 44 24 2c 00 00 00 	movl   $0x0,0x2c(%rsp)
    4034:	00 
    4035:	48 89 5c 24 48       	mov    %rbx,0x48(%rsp)
    403a:	48 89 74 24 40       	mov    %rsi,0x40(%rsp)
    403f:	ff e2                	jmp    *%rdx
    4041:	48 8d bc 24 b0 00 00 	lea    0xb0(%rsp),%rdi
    4048:	00 
    4049:	e8 c2 34 00 00       	call   7510 <label>
    404e:	48 8b 8c 24 88 00 00 	mov    0x88(%rsp),%rcx
    4055:	00 
    4056:	48 8d 35 f1 0e 00 00 	lea    0xef1(%rip),%rsi        # 4f4e <main+0x1bfe>
    405d:	48 8d 15 dc b7 00 00 	lea    0xb7dc(%rip),%rdx        # f840 <body>
    4064:	48 0f bf c0          	movswq %ax,%rax
    4068:	49 89 34 c6          	mov    %rsi,(%r14,%rax,8)
    406c:	48 89 0c c2          	mov    %rcx,(%rdx,%rax,8)
    4070:	4c 89 e7             	mov    %r12,%rdi
    4073:	48 8d b4 24 88 00 00 	lea    0x88(%rsp),%rsi
    407a:	00 
    407b:	48 83 eb 08          	sub    $0x8,%rbx
    407f:	48 83 c5 02          	add    $0x2,%rbp
    4083:	e8 48 31 00 00       	call   71d0 <ncompile>
    4088:	48 0f bf 55 fe       	movswq -0x2(%rbp),%rdx
    408d:	4c 8b 23             	mov    (%rbx),%r12
    4090:	48 89 d0             	mov    %rdx,%rax
    4093:	49 8b 14 d6          	mov    (%r14,%rdx,8),%rdx
    4097:	ff e2                	jmp    *%rdx
    4099:	49 6b d4 18          	imul   $0x18,%r12,%rdx
    409d:	48 8b 05 9c 37 23 00 	mov    0x23379c(%rip),%rax        # 237840 <current>
    40a4:	48 83 eb 08          	sub    $0x8,%rbx
    40a8:	4c 8d 3d 91 b7 00 00 	lea    0xb791(%rip),%r15        # f840 <body>
    40af:	48 8d b4 24 88 00 00 	lea    0x88(%rsp),%rsi
    40b6:	00 
    40b7:	48 8b 00             	mov    (%rax),%rax
    40ba:	48 89 74 24 18       	mov    %rsi,0x18(%rsp)
    40bf:	4c 01 ea             	add    %r13,%rdx
    40c2:	48 89 50 10          	mov    %rdx,0x10(%rax)
    40c6:	4c 29 e8             	sub    %r13,%rax
    40c9:	49 89 c4             	mov    %rax,%r12
    40cc:	48 8d 05 0e 0e 00 00 	lea    0xe0e(%rip),%rax        # 4ee1 <main+0x1b91>
    40d3:	49 c1 fc 03          	sar    $0x3,%r12
    40d7:	66 45 69 e4 ab aa    	imul   $0xaaab,%r12w,%r12w
    40dd:	4d 0f bf e4          	movswq %r12w,%r12
    40e1:	4b 89 04 e6          	mov    %rax,(%r14,%r12,8)
    40e5:	4b 8b 3c e7          	mov    (%r15,%r12,8),%rdi
    40e9:	48 8b 84 24 88 00 00 	mov    0x88(%rsp),%rax
    40f0:	00 
    40f1:	48 89 44 24 50       	mov    %rax,0x50(%rsp)
    40f6:	e8 d5 30 00 00       	call   71d0 <ncompile>
    40fb:	48 8b 74 24 18       	mov    0x18(%rsp),%rsi
    4100:	48 89 ef             	mov    %rbp,%rdi
    4103:	e8 c8 30 00 00       	call   71d0 <ncompile>
    4108:	48 8b 44 24 50       	mov    0x50(%rsp),%rax
    410d:	4b 89 04 e7          	mov    %rax,(%r15,%r12,8)
    4111:	4c 8b 23             	mov    (%rbx),%r12
    4114:	48 8b 7c 24 08       	mov    0x8(%rsp),%rdi
    4119:	48 8b 47 e0          	mov    -0x20(%rdi),%rax
    411d:	48 8b 4f e8          	mov    -0x18(%rdi),%rcx
    4121:	48 83 ef 20          	sub    $0x20,%rdi
    4125:	48 89 7c 24 08       	mov    %rdi,0x8(%rsp)
    412a:	48 0f bf 10          	movswq (%rax),%rdx
    412e:	48 8d 68 02          	lea    0x2(%rax),%rbp
    4132:	48 89 4c 24 18       	mov    %rcx,0x18(%rsp)
    4137:	48 89 d0             	mov    %rdx,%rax
    413a:	41 ff 24 d6          	jmp    *(%r14,%rdx,8)
    413e:	4c 89 23             	mov    %r12,(%rbx)
    4141:	bf 7a 00 00 00       	mov    $0x7a,%edi
    4146:	48 83 c3 28          	add    $0x28,%rbx
    414a:	48 83 c5 02          	add    $0x2,%rbp
    414e:	48 8b 05 23 37 23 00 	mov    0x233723(%rip),%rax        # 237878 <mode>
    4155:	48 8d b4 24 88 00 00 	lea    0x88(%rsp),%rsi
    415c:	00 
    415d:	48 c7 05 10 37 23 00 	movq   $0x0,0x233710(%rip)        # 237878 <mode>
    4164:	00 00 00 00 
    4168:	48 89 74 24 50       	mov    %rsi,0x50(%rsp)
    416d:	48 89 43 e0          	mov    %rax,-0x20(%rbx)
    4171:	e8 fa 2e 00 00       	call   7070 <compile>
    4176:	4c 8b a4 24 88 00 00 	mov    0x88(%rsp),%r12
    417d:	00 
    417e:	48 8b 74 24 50       	mov    0x50(%rsp),%rsi
    4183:	31 ff                	xor    %edi,%edi
    4185:	e8 e6 2e 00 00       	call   7070 <compile>
    418a:	4c 89 63 e8          	mov    %r12,-0x18(%rbx)
    418e:	48 8d bc 24 b0 00 00 	lea    0xb0(%rsp),%rdi
    4195:	00 
    4196:	e8 75 33 00 00       	call   7510 <label>
    419b:	48 8b 8c 24 88 00 00 	mov    0x88(%rsp),%rcx
    41a2:	00 
    41a3:	48 8d 15 96 b6 00 00 	lea    0xb696(%rip),%rdx        # f840 <body>
    41aa:	31 ff                	xor    %edi,%edi
    41ac:	4c 0f bf e0          	movswq %ax,%r12
    41b0:	48 8d 35 97 0d 00 00 	lea    0xd97(%rip),%rsi        # 4f4e <main+0x1bfe>
    41b7:	49 0f bf c4          	movswq %r12w,%rax
    41bb:	48 89 0c c2          	mov    %rcx,(%rdx,%rax,8)
    41bf:	49 89 34 c6          	mov    %rsi,(%r14,%rax,8)
    41c3:	48 8b 74 24 50       	mov    0x50(%rsp),%rsi
    41c8:	e8 03 30 00 00       	call   71d0 <ncompile>
    41cd:	48 0f bf 55 fe       	movswq -0x2(%rbp),%rdx
    41d2:	4c 89 63 f0          	mov    %r12,-0x10(%rbx)
    41d6:	41 bc 03 00 00 00    	mov    $0x3,%r12d
    41dc:	48 c7 43 f8 00 00 00 	movq   $0x0,-0x8(%rbx)
    41e3:	00 
    41e4:	48 89 d0             	mov    %rdx,%rax
    41e7:	49 8b 14 d6          	mov    (%r14,%rdx,8),%rdx
    41eb:	ff e2                	jmp    *%rdx
    41ed:	4d 85 e4             	test   %r12,%r12
    41f0:	0f 84 94 21 00 00    	je     638a <main+0x303a>
    41f6:	66 2e 0f 1f 84 00 00 	cs nopw 0x0(%rax,%rax,1)
    41fd:	00 00 00 
    4200:	48 8b 7c 24 18       	mov    0x18(%rsp),%rdi
    4205:	48 8b 47 e8          	mov    -0x18(%rdi),%rax
    4209:	48 83 ef 18          	sub    $0x18,%rdi
    420d:	48 89 7c 24 18       	mov    %rdi,0x18(%rsp)
    4212:	48 0f bf 10          	movswq (%rax),%rdx
    4216:	48 01 d0             	add    %rdx,%rax
    4219:	48 0f bf 10          	movswq (%rax),%rdx
    421d:	48 8d 68 02          	lea    0x2(%rax),%rbp
    4221:	48 89 d0             	mov    %rdx,%rax
    4224:	41 ff 24 d6          	jmp    *(%r14,%rdx,8)
    4228:	49 8b 17             	mov    (%r15),%rdx
    422b:	48 8b 84 24 88 00 00 	mov    0x88(%rsp),%rax
    4232:	00 
    4233:	48 83 eb 18          	sub    $0x18,%rbx
    4237:	48 89 94 24 98 00 00 	mov    %rdx,0x98(%rsp)
    423e:	00 
    423f:	49 8b 4f f0          	mov    -0x10(%r15),%rcx
    4243:	4d 8b 67 f8          	mov    -0x8(%r15),%r12
    4247:	48 29 c8             	sub    %rcx,%rax
    424a:	66 89 01             	mov    %ax,(%rcx)
    424d:	49 8b 47 e8          	mov    -0x18(%r15),%rax
    4251:	48 89 05 20 36 23 00 	mov    %rax,0x233620(%rip)        # 237878 <mode>
    4258:	49 89 57 e8          	mov    %rdx,-0x18(%r15)
    425c:	48 8d 15 dd b5 00 00 	lea    0xb5dd(%rip),%rdx        # f840 <body>
    4263:	48 8b 4b f8          	mov    -0x8(%rbx),%rcx
    4267:	48 8d 43 f8          	lea    -0x8(%rbx),%rax
    426b:	48 83 c5 02          	add    $0x2,%rbp
    426f:	4a 8b 14 e2          	mov    (%rdx,%r12,8),%rdx
    4273:	48 83 eb 10          	sub    $0x10,%rbx
    4277:	48 89 0a             	mov    %rcx,(%rdx)
    427a:	48 0f bf 55 fe       	movswq -0x2(%rbp),%rdx
    427f:	4c 8b 60 f8          	mov    -0x8(%rax),%r12
    4283:	48 89 d0             	mov    %rdx,%rax
    4286:	49 8b 14 d6          	mov    (%r14,%rdx,8),%rdx
    428a:	ff e2                	jmp    *%rdx
    428c:	48 8d bc 24 b0 00 00 	lea    0xb0(%rsp),%rdi
    4293:	00 
    4294:	e8 77 32 00 00       	call   7510 <label>
    4299:	48 8b 8c 24 88 00 00 	mov    0x88(%rsp),%rcx
    42a0:	00 
    42a1:	48 8d 3d 82 0c 00 00 	lea    0xc82(%rip),%rdi        # 4f2a <main+0x1bda>
    42a8:	48 8d 15 91 b5 00 00 	lea    0xb591(%rip),%rdx        # f840 <body>
    42af:	48 0f bf c0          	movswq %ax,%rax
    42b3:	49 89 3c c6          	mov    %rdi,(%r14,%rax,8)
    42b7:	48 89 0c c2          	mov    %rcx,(%rdx,%rax,8)
    42bb:	e9 b0 fd ff ff       	jmp    4070 <main+0xd20>
    42c0:	48 8d bc 24 b0 00 00 	lea    0xb0(%rsp),%rdi
    42c7:	00 
    42c8:	48 83 c5 02          	add    $0x2,%rbp
    42cc:	e8 3f 32 00 00       	call   7510 <label>
    42d1:	48 8b 8c 24 88 00 00 	mov    0x88(%rsp),%rcx
    42d8:	00 
    42d9:	48 8d 15 60 b5 00 00 	lea    0xb560(%rip),%rdx        # f840 <body>
    42e0:	48 8d 3d 92 0c 00 00 	lea    0xc92(%rip),%rdi        # 4f79 <main+0x1c29>
    42e7:	48 0f bf c0          	movswq %ax,%rax
    42eb:	48 89 0c c2          	mov    %rcx,(%rdx,%rax,8)
    42ef:	48 0f bf 55 fe       	movswq -0x2(%rbp),%rdx
    42f4:	49 89 3c c6          	mov    %rdi,(%r14,%rax,8)
    42f8:	48 89 d0             	mov    %rdx,%rax
    42fb:	49 8b 14 d6          	mov    (%r14,%rdx,8),%rdx
    42ff:	ff e2                	jmp    *%rdx
    4301:	48 8b 84 24 b0 00 00 	mov    0xb0(%rsp),%rax
    4308:	00 
    4309:	4c 89 23             	mov    %r12,(%rbx)
    430c:	4c 8d 7b 08          	lea    0x8(%rbx),%r15
    4310:	4c 29 e8             	sub    %r13,%rax
    4313:	48 3d e8 7f 01 00    	cmp    $0x17fe8,%rax
    4319:	0f 8f 45 28 00 00    	jg     6b64 <main+0x3814>
    431f:	48 8d bc 24 b0 00 00 	lea    0xb0(%rsp),%rdi
    4326:	00 
    4327:	48 8d 1d d5 0c 00 00 	lea    0xcd5(%rip),%rbx        # 5003 <main+0x1cb3>
    432e:	48 83 c5 02          	add    $0x2,%rbp
    4332:	e8 d9 31 00 00       	call   7510 <label>
    4337:	48 8b b4 24 88 00 00 	mov    0x88(%rsp),%rsi
    433e:	00 
    433f:	48 8d 0d fa b4 00 00 	lea    0xb4fa(%rip),%rcx        # f840 <body>
    4346:	48 0f bf d0          	movswq %ax,%rdx
    434a:	49 89 1c d6          	mov    %rbx,(%r14,%rdx,8)
    434e:	49 89 d4             	mov    %rdx,%r12
    4351:	4c 89 fb             	mov    %r15,%rbx
    4354:	48 89 34 d1          	mov    %rsi,(%rcx,%rdx,8)
    4358:	48 0f bf 55 fe       	movswq -0x2(%rbp),%rdx
    435d:	48 89 d0             	mov    %rdx,%rax
    4360:	49 8b 14 d6          	mov    (%r14,%rdx,8),%rdx
    4364:	ff e2                	jmp    *%rdx
    4366:	48 0f bf 55 00       	movswq 0x0(%rbp),%rdx
    436b:	48 8d 05 d6 34 23 00 	lea    0x2334d6(%rip),%rax        # 237848 <normal>
    4372:	48 83 c5 02          	add    $0x2,%rbp
    4376:	48 89 05 c3 34 23 00 	mov    %rax,0x2334c3(%rip)        # 237840 <current>
    437d:	48 89 d0             	mov    %rdx,%rax
    4380:	49 8b 14 d6          	mov    (%r14,%rdx,8),%rdx
    4384:	ff e2                	jmp    *%rdx
    4386:	48 0f bf 55 00       	movswq 0x0(%rbp),%rdx
    438b:	48 8d 05 be 34 23 00 	lea    0x2334be(%rip),%rax        # 237850 <macro>
    4392:	48 83 c5 02          	add    $0x2,%rbp
    4396:	48 89 05 a3 34 23 00 	mov    %rax,0x2334a3(%rip)        # 237840 <current>
    439d:	48 89 d0             	mov    %rdx,%rax
    43a0:	49 8b 14 d6          	mov    (%r14,%rdx,8),%rdx
    43a4:	ff e2                	jmp    *%rdx
    43a6:	48 0f bf 55 00       	movswq 0x0(%rbp),%rdx
    43ab:	4c 89 23             	mov    %r12,(%rbx)
    43ae:	48 83 c5 02          	add    $0x2,%rbp
    43b2:	48 83 c3 08          	add    $0x8,%rbx
    43b6:	4c 8b 25 83 34 23 00 	mov    0x233483(%rip),%r12        # 237840 <current>
    43bd:	48 89 d0             	mov    %rdx,%rax
    43c0:	49 8b 14 d6          	mov    (%r14,%rdx,8),%rdx
    43c4:	ff e2                	jmp    *%rdx
    43c6:	48 0f bf 55 00       	movswq 0x0(%rbp),%rdx
    43cb:	4c 89 23             	mov    %r12,(%rbx)
    43ce:	48 83 c5 02          	add    $0x2,%rbp
    43d2:	48 83 c3 08          	add    $0x8,%rbx
    43d6:	4c 8b 25 6b 34 23 00 	mov    0x23346b(%rip),%r12        # 237848 <normal>
    43dd:	48 89 d0             	mov    %rdx,%rax
    43e0:	49 8b 14 d6          	mov    (%r14,%rdx,8),%rdx
    43e4:	ff e2                	jmp    *%rdx
    43e6:	48 0f bf 55 00       	movswq 0x0(%rbp),%rdx
    43eb:	4c 89 23             	mov    %r12,(%rbx)
    43ee:	48 83 c5 02          	add    $0x2,%rbp
    43f2:	48 83 c3 08          	add    $0x8,%rbx
    43f6:	4c 8b 25 53 34 23 00 	mov    0x233453(%rip),%r12        # 237850 <macro>
    43fd:	48 89 d0             	mov    %rdx,%rax
    4400:	49 8b 14 d6          	mov    (%r14,%rdx,8),%rdx
    4404:	ff e2                	jmp    *%rdx
    4406:	48 0f bf 55 00       	movswq 0x0(%rbp),%rdx
    440b:	4c 89 23             	mov    %r12,(%rbx)
    440e:	48 83 c5 02          	add    $0x2,%rbp
    4412:	48 83 c3 08          	add    $0x8,%rbx
    4416:	4c 8d 25 5b 34 23 00 	lea    0x23345b(%rip),%r12        # 237878 <mode>
    441d:	48 89 d0             	mov    %rdx,%rax
    4420:	49 8b 14 d6          	mov    (%r14,%rdx,8),%rdx
    4424:	ff e2                	jmp    *%rdx
    4426:	48 0f bf 55 00       	movswq 0x0(%rbp),%rdx
    442b:	4c 89 23             	mov    %r12,(%rbx)
    442e:	48 83 c5 02          	add    $0x2,%rbp
    4432:	48 83 c3 08          	add    $0x8,%rbx
    4436:	4c 8d 25 43 34 23 00 	lea    0x233443(%rip),%r12        # 237880 <source>
    443d:	48 89 d0             	mov    %rdx,%rax
    4440:	49 8b 14 d6          	mov    (%r14,%rdx,8),%rdx
    4444:	ff e2                	jmp    *%rdx
    4446:	4c 89 e7             	mov    %r12,%rdi
    4449:	48 8d b4 24 88 00 00 	lea    0x88(%rsp),%rsi
    4450:	00 
    4451:	48 83 eb 08          	sub    $0x8,%rbx
    4455:	48 83 c5 02          	add    $0x2,%rbp
    4459:	e8 d2 2d 00 00       	call   7230 <scompile>
    445e:	48 0f bf 55 fe       	movswq -0x2(%rbp),%rdx
    4463:	4c 8b 23             	mov    (%rbx),%r12
    4466:	48 89 d0             	mov    %rdx,%rax
    4469:	49 8b 14 d6          	mov    (%r14,%rdx,8),%rdx
    446d:	ff e2                	jmp    *%rdx
    446f:	41 0f bf fc          	movswl %r12w,%edi
    4473:	48 8d b4 24 88 00 00 	lea    0x88(%rsp),%rsi
    447a:	00 
    447b:	48 83 eb 08          	sub    $0x8,%rbx
    447f:	48 83 c5 02          	add    $0x2,%rbp
    4483:	e8 e8 2b 00 00       	call   7070 <compile>
    4488:	48 0f bf 55 fe       	movswq -0x2(%rbp),%rdx
    448d:	4c 8b 23             	mov    (%rbx),%r12
    4490:	48 89 d0             	mov    %rdx,%rax
    4493:	49 8b 14 d6          	mov    (%r14,%rdx,8),%rdx
    4497:	ff e2                	jmp    *%rdx
    4499:	4c 89 23             	mov    %r12,(%rbx)
    449c:	31 c0                	xor    %eax,%eax
    449e:	4c 8d 7b 08          	lea    0x8(%rbx),%r15
    44a2:	48 83 c5 02          	add    $0x2,%rbp
    44a6:	4c 89 fb             	mov    %r15,%rbx
    44a9:	e8 12 2f 00 00       	call   73c0 <sparse>
    44ae:	48 0f bf 55 fe       	movswq -0x2(%rbp),%rdx
    44b3:	49 89 c4             	mov    %rax,%r12
    44b6:	48 89 d0             	mov    %rdx,%rax
    44b9:	49 8b 14 d6          	mov    (%r14,%rdx,8),%rdx
    44bd:	ff e2                	jmp    *%rdx
    44bf:	4c 89 23             	mov    %r12,(%rbx)
    44c2:	31 c0                	xor    %eax,%eax
    44c4:	4c 8d 43 08          	lea    0x8(%rbx),%r8
    44c8:	48 83 c5 02          	add    $0x2,%rbp
    44cc:	4c 89 c3             	mov    %r8,%rbx
    44cf:	e8 4c 2e 00 00       	call   7320 <parse>
    44d4:	48 0f bf 55 fe       	movswq -0x2(%rbp),%rdx
    44d9:	49 89 c4             	mov    %rax,%r12
    44dc:	48 89 d0             	mov    %rdx,%rax
    44df:	49 8b 14 d6          	mov    (%r14,%rdx,8),%rdx
    44e3:	ff e2                	jmp    *%rdx
    44e5:	4c 8d 7b f8          	lea    -0x8(%rbx),%r15
    44e9:	48 8b 7b f8          	mov    -0x8(%rbx),%rdi
    44ed:	49 8b 77 f8          	mov    -0x8(%r15),%rsi
    44f1:	4d 85 e4             	test   %r12,%r12
    44f4:	0f 8f 40 1f 00 00    	jg     643a <main+0x30ea>
    44fa:	48 0f bf 55 00       	movswq 0x0(%rbp),%rdx
    44ff:	4d 8b 67 f0          	mov    -0x10(%r15),%r12
    4503:	49 8d 5f f0          	lea    -0x10(%r15),%rbx
    4507:	48 83 c5 02          	add    $0x2,%rbp
    450b:	48 89 d0             	mov    %rdx,%rax
    450e:	49 8b 14 d6          	mov    (%r14,%rdx,8),%rdx
    4512:	ff e2                	jmp    *%rdx
    4514:	4c 8d 7b f8          	lea    -0x8(%rbx),%r15
    4518:	48 8b 7b f8          	mov    -0x8(%rbx),%rdi
    451c:	49 8b 77 f8          	mov    -0x8(%r15),%rsi
    4520:	4d 85 e4             	test   %r12,%r12
    4523:	0f 8f ff 1e 00 00    	jg     6428 <main+0x30d8>
    4529:	48 0f bf 55 00       	movswq 0x0(%rbp),%rdx
    452e:	4d 8b 67 f0          	mov    -0x10(%r15),%r12
    4532:	49 8d 5f f0          	lea    -0x10(%r15),%rbx
    4536:	48 83 c5 02          	add    $0x2,%rbp
    453a:	48 89 d0             	mov    %rdx,%rax
    453d:	49 8b 14 d6          	mov    (%r14,%rdx,8),%rdx
    4541:	ff e2                	jmp    *%rdx
    4543:	48 0f bf 55 00       	movswq 0x0(%rbp),%rdx
    4548:	49 d1 fc             	sar    %r12
    454b:	48 83 c5 02          	add    $0x2,%rbp
    454f:	48 89 d0             	mov    %rdx,%rax
    4552:	49 8b 14 d6          	mov    (%r14,%rdx,8),%rdx
    4556:	ff e2                	jmp    *%rdx
    4558:	48 0f bf 55 00       	movswq 0x0(%rbp),%rdx
    455d:	4d 01 e4             	add    %r12,%r12
    4560:	48 83 c5 02          	add    $0x2,%rbp
    4564:	48 89 d0             	mov    %rdx,%rax
    4567:	49 8b 14 d6          	mov    (%r14,%rdx,8),%rdx
    456b:	ff e2                	jmp    *%rdx
    456d:	48 0f bf 55 00       	movswq 0x0(%rbp),%rdx
    4572:	49 83 ec 01          	sub    $0x1,%r12
    4576:	48 83 c5 02          	add    $0x2,%rbp
    457a:	48 89 d0             	mov    %rdx,%rax
    457d:	49 8b 14 d6          	mov    (%r14,%rdx,8),%rdx
    4581:	ff e2                	jmp    *%rdx
    4583:	48 0f bf 55 00       	movswq 0x0(%rbp),%rdx
    4588:	49 83 c4 01          	add    $0x1,%r12
    458c:	48 83 c5 02          	add    $0x2,%rbp
    4590:	48 89 d0             	mov    %rdx,%rax
    4593:	49 8b 14 d6          	mov    (%r14,%rdx,8),%rdx
    4597:	ff e2                	jmp    *%rdx
    4599:	48 8b 43 f8          	mov    -0x8(%rbx),%rax
    459d:	48 0f bf 55 00       	movswq 0x0(%rbp),%rdx
    45a2:	48 83 eb 08          	sub    $0x8,%rbx
    45a6:	49 39 c4             	cmp    %rax,%r12
    45a9:	48 89 84 24 98 00 00 	mov    %rax,0x98(%rsp)
    45b0:	00 
    45b1:	4c 0f 4c e0          	cmovl  %rax,%r12
    45b5:	48 89 d0             	mov    %rdx,%rax
    45b8:	49 8b 14 d6          	mov    (%r14,%rdx,8),%rdx
    45bc:	48 83 c5 02          	add    $0x2,%rbp
    45c0:	ff e2                	jmp    *%rdx
    45c2:	48 8b 43 f8          	mov    -0x8(%rbx),%rax
    45c6:	48 0f bf 55 00       	movswq 0x0(%rbp),%rdx
    45cb:	48 83 eb 08          	sub    $0x8,%rbx
    45cf:	49 39 c4             	cmp    %rax,%r12
    45d2:	48 89 84 24 98 00 00 	mov    %rax,0x98(%rsp)
    45d9:	00 
    45da:	4c 0f 4f e0          	cmovg  %rax,%r12
    45de:	48 89 d0             	mov    %rdx,%rax
    45e1:	49 8b 14 d6          	mov    (%r14,%rdx,8),%rdx
    45e5:	48 83 c5 02          	add    $0x2,%rbp
    45e9:	ff e2                	jmp    *%rdx
    45eb:	48 0f bf 55 00       	movswq 0x0(%rbp),%rdx
    45f0:	49 f7 dc             	neg    %r12
    45f3:	4d 19 e4             	sbb    %r12,%r12
    45f6:	48 83 c5 02          	add    $0x2,%rbp
    45fa:	48 89 d0             	mov    %rdx,%rax
    45fd:	49 8b 14 d6          	mov    (%r14,%rdx,8),%rdx
    4601:	ff e2                	jmp    *%rdx
    4603:	48 0f bf 55 00       	movswq 0x0(%rbp),%rdx
    4608:	4d 85 e4             	test   %r12,%r12
    460b:	41 0f 9f c4          	setg   %r12b
    460f:	48 83 c5 02          	add    $0x2,%rbp
    4613:	48 89 d0             	mov    %rdx,%rax
    4616:	49 8b 14 d6          	mov    (%r14,%rdx,8),%rdx
    461a:	45 0f b6 e4          	movzbl %r12b,%r12d
    461e:	49 f7 dc             	neg    %r12
    4621:	ff e2                	jmp    *%rdx
    4623:	48 0f bf 55 00       	movswq 0x0(%rbp),%rdx
    4628:	49 c1 fc 3f          	sar    $0x3f,%r12
    462c:	48 83 c5 02          	add    $0x2,%rbp
    4630:	48 89 d0             	mov    %rdx,%rax
    4633:	49 8b 14 d6          	mov    (%r14,%rdx,8),%rdx
    4637:	ff e2                	jmp    *%rdx
    4639:	48 0f bf 55 00       	movswq 0x0(%rbp),%rdx
    463e:	49 83 fc 01          	cmp    $0x1,%r12
    4642:	4d 19 e4             	sbb    %r12,%r12
    4645:	48 83 c5 02          	add    $0x2,%rbp
    4649:	48 89 d0             	mov    %rdx,%rax
    464c:	49 8b 14 d6          	mov    (%r14,%rdx,8),%rdx
    4650:	ff e2                	jmp    *%rdx
    4652:	48 0f bf 55 00       	movswq 0x0(%rbp),%rdx
    4657:	48 83 eb 08          	sub    $0x8,%rbx
    465b:	4c 39 23             	cmp    %r12,(%rbx)
    465e:	41 0f 95 c4          	setne  %r12b
    4662:	48 89 d0             	mov    %rdx,%rax
    4665:	49 8b 14 d6          	mov    (%r14,%rdx,8),%rdx
    4669:	48 83 c5 02          	add    $0x2,%rbp
    466d:	45 0f b6 e4          	movzbl %r12b,%r12d
    4671:	49 f7 dc             	neg    %r12
    4674:	ff e2                	jmp    *%rdx
    4676:	48 0f bf 55 00       	movswq 0x0(%rbp),%rdx
    467b:	48 83 eb 08          	sub    $0x8,%rbx
    467f:	4c 39 23             	cmp    %r12,(%rbx)
    4682:	41 0f 94 c4          	sete   %r12b
    4686:	48 89 d0             	mov    %rdx,%rax
    4689:	49 8b 14 d6          	mov    (%r14,%rdx,8),%rdx
    468d:	48 83 c5 02          	add    $0x2,%rbp
    4691:	45 0f b6 e4          	movzbl %r12b,%r12d
    4695:	49 f7 dc             	neg    %r12
    4698:	ff e2                	jmp    *%rdx
    469a:	48 0f bf 55 00       	movswq 0x0(%rbp),%rdx
    469f:	48 83 eb 08          	sub    $0x8,%rbx
    46a3:	4c 39 23             	cmp    %r12,(%rbx)
    46a6:	41 0f 9f c4          	setg   %r12b
    46aa:	48 89 d0             	mov    %rdx,%rax
    46ad:	49 8b 14 d6          	mov    (%r14,%rdx,8),%rdx
    46b1:	48 83 c5 02          	add    $0x2,%rbp
    46b5:	45 0f b6 e4          	movzbl %r12b,%r12d
    46b9:	49 f7 dc             	neg    %r12
    46bc:	ff e2                	jmp    *%rdx
    46be:	48 0f bf 55 00       	movswq 0x0(%rbp),%rdx
    46c3:	48 83 eb 08          	sub    $0x8,%rbx
    46c7:	4c 39 23             	cmp    %r12,(%rbx)
    46ca:	41 0f 9c c4          	setl   %r12b
    46ce:	48 89 d0             	mov    %rdx,%rax
    46d1:	49 8b 14 d6          	mov    (%r14,%rdx,8),%rdx
    46d5:	48 83 c5 02          	add    $0x2,%rbp
    46d9:	45 0f b6 e4          	movzbl %r12b,%r12d
    46dd:	49 f7 dc             	neg    %r12
    46e0:	ff e2                	jmp    *%rdx
    46e2:	48 0f bf 55 00       	movswq 0x0(%rbp),%rdx
    46e7:	49 f7 d4             	not    %r12
    46ea:	48 83 c5 02          	add    $0x2,%rbp
    46ee:	48 89 d0             	mov    %rdx,%rax
    46f1:	49 8b 14 d6          	mov    (%r14,%rdx,8),%rdx
    46f5:	ff e2                	jmp    *%rdx
    46f7:	48 0f bf 55 00       	movswq 0x0(%rbp),%rdx
    46fc:	48 83 eb 08          	sub    $0x8,%rbx
    4700:	48 83 c5 02          	add    $0x2,%rbp
    4704:	4c 33 23             	xor    (%rbx),%r12
    4707:	48 89 d0             	mov    %rdx,%rax
    470a:	49 8b 14 d6          	mov    (%r14,%rdx,8),%rdx
    470e:	ff e2                	jmp    *%rdx
    4710:	48 0f bf 55 00       	movswq 0x0(%rbp),%rdx
    4715:	48 83 eb 08          	sub    $0x8,%rbx
    4719:	48 83 c5 02          	add    $0x2,%rbp
    471d:	4c 0b 23             	or     (%rbx),%r12
    4720:	48 89 d0             	mov    %rdx,%rax
    4723:	49 8b 14 d6          	mov    (%r14,%rdx,8),%rdx
    4727:	ff e2                	jmp    *%rdx
    4729:	48 0f bf 55 00       	movswq 0x0(%rbp),%rdx
    472e:	48 83 eb 08          	sub    $0x8,%rbx
    4732:	48 83 c5 02          	add    $0x2,%rbp
    4736:	4c 23 23             	and    (%rbx),%r12
    4739:	48 89 d0             	mov    %rdx,%rax
    473c:	49 8b 14 d6          	mov    (%r14,%rdx,8),%rdx
    4740:	ff e2                	jmp    *%rdx
    4742:	48 8b 43 f8          	mov    -0x8(%rbx),%rax
    4746:	48 83 eb 08          	sub    $0x8,%rbx
    474a:	48 83 c5 02          	add    $0x2,%rbp
    474e:	48 99                	cqto   
    4750:	49 f7 fc             	idiv   %r12
    4753:	49 89 d4             	mov    %rdx,%r12
    4756:	48 0f bf 55 fe       	movswq -0x2(%rbp),%rdx
    475b:	48 89 d0             	mov    %rdx,%rax
    475e:	49 8b 14 d6          	mov    (%r14,%rdx,8),%rdx
    4762:	ff e2                	jmp    *%rdx
    4764:	48 8b 43 f8          	mov    -0x8(%rbx),%rax
    4768:	48 83 eb 08          	sub    $0x8,%rbx
    476c:	48 83 c5 02          	add    $0x2,%rbp
    4770:	48 99                	cqto   
    4772:	49 f7 fc             	idiv   %r12
    4775:	48 0f bf 55 fe       	movswq -0x2(%rbp),%rdx
    477a:	49 89 c4             	mov    %rax,%r12
    477d:	48 89 d0             	mov    %rdx,%rax
    4780:	49 8b 14 d6          	mov    (%r14,%rdx,8),%rdx
    4784:	ff e2                	jmp    *%rdx
    4786:	48 0f bf 55 00       	movswq 0x0(%rbp),%rdx
    478b:	48 83 eb 08          	sub    $0x8,%rbx
    478f:	48 83 c5 02          	add    $0x2,%rbp
    4793:	4c 0f af 23          	imul   (%rbx),%r12
    4797:	48 89 d0             	mov    %rdx,%rax
    479a:	49 8b 14 d6          	mov    (%r14,%rdx,8),%rdx
    479e:	ff e2                	jmp    *%rdx
    47a0:	48 8b 43 f8          	mov    -0x8(%rbx),%rax
    47a4:	48 0f bf 55 00       	movswq 0x0(%rbp),%rdx
    47a9:	44 89 e1             	mov    %r12d,%ecx
    47ac:	48 83 eb 08          	sub    $0x8,%rbx
    47b0:	48 83 c5 02          	add    $0x2,%rbp
    47b4:	48 d3 f8             	sar    %cl,%rax
    47b7:	49 89 c4             	mov    %rax,%r12
    47ba:	48 89 d0             	mov    %rdx,%rax
    47bd:	49 8b 14 d6          	mov    (%r14,%rdx,8),%rdx
    47c1:	ff e2                	jmp    *%rdx
    47c3:	48 8b 43 f8          	mov    -0x8(%rbx),%rax
    47c7:	48 0f bf 55 00       	movswq 0x0(%rbp),%rdx
    47cc:	44 89 e1             	mov    %r12d,%ecx
    47cf:	48 83 eb 08          	sub    $0x8,%rbx
    47d3:	48 83 c5 02          	add    $0x2,%rbp
    47d7:	48 d3 e0             	shl    %cl,%rax
    47da:	49 89 c4             	mov    %rax,%r12
    47dd:	48 89 d0             	mov    %rdx,%rax
    47e0:	49 8b 14 d6          	mov    (%r14,%rdx,8),%rdx
    47e4:	ff e2                	jmp    *%rdx
    47e6:	48 8b 43 f8          	mov    -0x8(%rbx),%rax
    47ea:	48 0f bf 55 00       	movswq 0x0(%rbp),%rdx
    47ef:	48 83 eb 08          	sub    $0x8,%rbx
    47f3:	48 83 c5 02          	add    $0x2,%rbp
    47f7:	4c 29 e0             	sub    %r12,%rax
    47fa:	49 89 c4             	mov    %rax,%r12
    47fd:	48 89 d0             	mov    %rdx,%rax
    4800:	49 8b 14 d6          	mov    (%r14,%rdx,8),%rdx
    4804:	ff e2                	jmp    *%rdx
    4806:	48 0f bf 55 00       	movswq 0x0(%rbp),%rdx
    480b:	48 83 eb 08          	sub    $0x8,%rbx
    480f:	48 83 c5 02          	add    $0x2,%rbp
    4813:	4c 03 23             	add    (%rbx),%r12
    4816:	48 89 d0             	mov    %rdx,%rax
    4819:	49 8b 14 d6          	mov    (%r14,%rdx,8),%rdx
    481d:	ff e2                	jmp    *%rdx
    481f:	48 0f bf 55 00       	movswq 0x0(%rbp),%rdx
    4824:	49 f7 dc             	neg    %r12
    4827:	48 83 c5 02          	add    $0x2,%rbp
    482b:	48 89 d0             	mov    %rdx,%rax
    482e:	49 8b 14 d6          	mov    (%r14,%rdx,8),%rdx
    4832:	ff e2                	jmp    *%rdx
    4834:	48 0f bf 55 00       	movswq 0x0(%rbp),%rdx
    4839:	4c 89 23             	mov    %r12,(%rbx)
    483c:	48 83 c5 02          	add    $0x2,%rbp
    4840:	48 83 c3 08          	add    $0x8,%rbx
    4844:	41 bc 08 00 00 00    	mov    $0x8,%r12d
    484a:	48 89 d0             	mov    %rdx,%rax
    484d:	49 8b 14 d6          	mov    (%r14,%rdx,8),%rdx
    4851:	ff e2                	jmp    *%rdx
    4853:	48 8b 53 f8          	mov    -0x8(%rbx),%rdx
    4857:	48 8d 43 f8          	lea    -0x8(%rbx),%rax
    485b:	48 83 c5 02          	add    $0x2,%rbp
    485f:	48 83 eb 10          	sub    $0x10,%rbx
    4863:	41 88 14 24          	mov    %dl,(%r12)
    4867:	48 0f bf 55 fe       	movswq -0x2(%rbp),%rdx
    486c:	4c 8b 60 f8          	mov    -0x8(%rax),%r12
    4870:	48 89 d0             	mov    %rdx,%rax
    4873:	49 8b 14 d6          	mov    (%r14,%rdx,8),%rdx
    4877:	ff e2                	jmp    *%rdx
    4879:	48 0f bf 55 00       	movswq 0x0(%rbp),%rdx
    487e:	4d 0f be 24 24       	movsbq (%r12),%r12
    4883:	48 83 c5 02          	add    $0x2,%rbp
    4887:	48 89 d0             	mov    %rdx,%rax
    488a:	49 8b 14 d6          	mov    (%r14,%rdx,8),%rdx
    488e:	ff e2                	jmp    *%rdx
    4890:	48 8b 53 f8          	mov    -0x8(%rbx),%rdx
    4894:	49 01 14 24          	add    %rdx,(%r12)
    4898:	48 8d 43 f8          	lea    -0x8(%rbx),%rax
    489c:	48 83 c5 02          	add    $0x2,%rbp
    48a0:	48 0f bf 55 fe       	movswq -0x2(%rbp),%rdx
    48a5:	4c 8b 60 f8          	mov    -0x8(%rax),%r12
    48a9:	48 83 eb 10          	sub    $0x10,%rbx
    48ad:	48 89 d0             	mov    %rdx,%rax
    48b0:	49 8b 14 d6          	mov    (%r14,%rdx,8),%rdx
    48b4:	ff e2                	jmp    *%rdx
    48b6:	48 8b 53 f8          	mov    -0x8(%rbx),%rdx
    48ba:	48 8d 43 f8          	lea    -0x8(%rbx),%rax
    48be:	48 83 c5 02          	add    $0x2,%rbp
    48c2:	48 83 eb 10          	sub    $0x10,%rbx
    48c6:	49 89 14 24          	mov    %rdx,(%r12)
    48ca:	48 0f bf 55 fe       	movswq -0x2(%rbp),%rdx
    48cf:	4c 8b 60 f8          	mov    -0x8(%rax),%r12
    48d3:	48 89 d0             	mov    %rdx,%rax
    48d6:	49 8b 14 d6          	mov    (%r14,%rdx,8),%rdx
    48da:	ff e2                	jmp    *%rdx
    48dc:	48 0f bf 55 00       	movswq 0x0(%rbp),%rdx
    48e1:	4d 8b 24 24          	mov    (%r12),%r12
    48e5:	48 83 c5 02          	add    $0x2,%rbp
    48e9:	48 89 d0             	mov    %rdx,%rax
    48ec:	49 8b 14 d6          	mov    (%r14,%rdx,8),%rdx
    48f0:	ff e2                	jmp    *%rdx
    48f2:	4c 89 a4 24 98 00 00 	mov    %r12,0x98(%rsp)
    48f9:	00 
    48fa:	48 83 eb 08          	sub    $0x8,%rbx
    48fe:	4c 8b 23             	mov    (%rbx),%r12
    4901:	48 83 bc 24 98 00 00 	cmpq   $0x0,0x98(%rsp)
    4908:	00 00 
    490a:	0f 85 f0 f8 ff ff    	jne    4200 <main+0xeb0>
    4910:	48 0f bf 55 00       	movswq 0x0(%rbp),%rdx
    4915:	48 83 c5 02          	add    $0x2,%rbp
    4919:	48 89 d0             	mov    %rdx,%rax
    491c:	49 8b 14 d6          	mov    (%r14,%rdx,8),%rdx
    4920:	ff e2                	jmp    *%rdx
    4922:	4d 85 e4             	test   %r12,%r12
    4925:	0f 84 d5 f8 ff ff    	je     4200 <main+0xeb0>
    492b:	48 0f bf 55 00       	movswq 0x0(%rbp),%rdx
    4930:	48 83 c5 02          	add    $0x2,%rbp
    4934:	48 89 d0             	mov    %rdx,%rax
    4937:	49 8b 14 d6          	mov    (%r14,%rdx,8),%rdx
    493b:	ff e2                	jmp    *%rdx
    493d:	4c 89 a4 24 98 00 00 	mov    %r12,0x98(%rsp)
    4944:	00 
    4945:	48 83 eb 08          	sub    $0x8,%rbx
    4949:	4c 8b 23             	mov    (%rbx),%r12
    494c:	48 83 bc 24 98 00 00 	cmpq   $0x0,0x98(%rsp)
    4953:	00 00 
    4955:	0f 84 a5 f8 ff ff    	je     4200 <main+0xeb0>
    495b:	48 0f bf 55 00       	movswq 0x0(%rbp),%rdx
    4960:	48 83 c5 02          	add    $0x2,%rbp
    4964:	48 89 d0             	mov    %rdx,%rax
    4967:	49 8b 14 d6          	mov    (%r14,%rdx,8),%rdx
    496b:	ff e2                	jmp    *%rdx
    496d:	4c 89 a4 24 98 00 00 	mov    %r12,0x98(%rsp)
    4974:	00 
    4975:	48 83 eb 08          	sub    $0x8,%rbx
    4979:	4c 8b 23             	mov    (%rbx),%r12
    497c:	48 83 bc 24 98 00 00 	cmpq   $0x0,0x98(%rsp)
    4983:	00 00 
    4985:	74 12                	je     4999 <main+0x1649>
    4987:	48 8b 44 24 18       	mov    0x18(%rsp),%rax
    498c:	48 8b 40 e8          	mov    -0x18(%rax),%rax
    4990:	48 0f bf 10          	movswq (%rax),%rdx
    4994:	48 8d 6c 10 fe       	lea    -0x2(%rax,%rdx,1),%rbp
    4999:	48 0f bf 55 00       	movswq 0x0(%rbp),%rdx
    499e:	48 83 c5 02          	add    $0x2,%rbp
    49a2:	48 89 d0             	mov    %rdx,%rax
    49a5:	49 8b 14 d6          	mov    (%r14,%rdx,8),%rdx
    49a9:	ff e2                	jmp    *%rdx
    49ab:	48 8b 44 24 18       	mov    0x18(%rsp),%rax
    49b0:	48 8b 68 e8          	mov    -0x18(%rax),%rbp
    49b4:	48 0f bf 45 00       	movswq 0x0(%rbp),%rax
    49b9:	48 01 c5             	add    %rax,%rbp
    49bc:	48 0f bf 55 fe       	movswq -0x2(%rbp),%rdx
    49c1:	48 89 d0             	mov    %rdx,%rax
    49c4:	41 ff 24 d6          	jmp    *(%r14,%rdx,8)
    49c8:	4c 89 a4 24 98 00 00 	mov    %r12,0x98(%rsp)
    49cf:	00 
    49d0:	48 83 eb 08          	sub    $0x8,%rbx
    49d4:	4c 8b 23             	mov    (%rbx),%r12
    49d7:	48 83 bc 24 98 00 00 	cmpq   $0x0,0x98(%rsp)
    49de:	00 00 
    49e0:	74 1a                	je     49fc <main+0x16ac>
    49e2:	48 8b 44 24 18       	mov    0x18(%rsp),%rax
    49e7:	48 8b 68 e8          	mov    -0x18(%rax),%rbp
    49eb:	48 83 e8 18          	sub    $0x18,%rax
    49ef:	48 89 44 24 18       	mov    %rax,0x18(%rsp)
    49f4:	48 0f bf 45 00       	movswq 0x0(%rbp),%rax
    49f9:	48 01 c5             	add    %rax,%rbp
    49fc:	48 0f bf 55 00       	movswq 0x0(%rbp),%rdx
    4a01:	48 83 c5 02          	add    $0x2,%rbp
    4a05:	48 89 d0             	mov    %rdx,%rax
    4a08:	49 8b 14 d6          	mov    (%r14,%rdx,8),%rdx
    4a0c:	ff e2                	jmp    *%rdx
    4a0e:	48 0f bf 55 00       	movswq 0x0(%rbp),%rdx
    4a13:	48 8b 44 24 18       	mov    0x18(%rsp),%rax
    4a18:	48 83 c5 02          	add    $0x2,%rbp
    4a1c:	4c 03 60 f8          	add    -0x8(%rax),%r12
    4a20:	48 89 d0             	mov    %rdx,%rax
    4a23:	49 8b 14 d6          	mov    (%r14,%rdx,8),%rdx
    4a27:	ff e2                	jmp    *%rdx
    4a29:	48 0f bf 55 00       	movswq 0x0(%rbp),%rdx
    4a2e:	4c 89 23             	mov    %r12,(%rbx)
    4a31:	48 83 c5 02          	add    $0x2,%rbp
    4a35:	48 83 c3 08          	add    $0x8,%rbx
    4a39:	48 8b 44 24 18       	mov    0x18(%rsp),%rax
    4a3e:	4c 8b 60 f8          	mov    -0x8(%rax),%r12
    4a42:	48 89 d0             	mov    %rdx,%rax
    4a45:	49 8b 14 d6          	mov    (%r14,%rdx,8),%rdx
    4a49:	ff e2                	jmp    *%rdx
    4a4b:	48 8b 44 24 18       	mov    0x18(%rsp),%rax
    4a50:	48 8b 70 f8          	mov    -0x8(%rax),%rsi
    4a54:	48 8b 50 f0          	mov    -0x10(%rax),%rdx
    4a58:	48 89 f0             	mov    %rsi,%rax
    4a5b:	48 89 74 24 50       	mov    %rsi,0x50(%rsp)
    4a60:	48 83 c0 01          	add    $0x1,%rax
    4a64:	48 85 d2             	test   %rdx,%rdx
    4a67:	78 0d                	js     4a76 <main+0x1726>
    4a69:	48 39 c2             	cmp    %rax,%rdx
    4a6c:	7f 08                	jg     4a76 <main+0x1726>
    4a6e:	48 83 6c 24 18 18    	subq   $0x18,0x18(%rsp)
    4a74:	eb 16                	jmp    4a8c <main+0x173c>
    4a76:	48 8b 7c 24 18       	mov    0x18(%rsp),%rdi
    4a7b:	48 8b 77 e8          	mov    -0x18(%rdi),%rsi
    4a7f:	48 89 47 f8          	mov    %rax,-0x8(%rdi)
    4a83:	48 89 74 24 50       	mov    %rsi,0x50(%rsp)
    4a88:	48 8d 6e 02          	lea    0x2(%rsi),%rbp
    4a8c:	48 0f bf 55 00       	movswq 0x0(%rbp),%rdx
    4a91:	48 83 c5 02          	add    $0x2,%rbp
    4a95:	48 89 d0             	mov    %rdx,%rax
    4a98:	49 8b 14 d6          	mov    (%r14,%rdx,8),%rdx
    4a9c:	ff e2                	jmp    *%rdx
    4a9e:	4d 85 e4             	test   %r12,%r12
    4aa1:	0f 84 30 19 00 00    	je     63d7 <main+0x3087>
    4aa7:	48 8b 4c 24 18       	mov    0x18(%rsp),%rcx
    4aac:	48 8d 45 02          	lea    0x2(%rbp),%rax
    4ab0:	48 8d 71 18          	lea    0x18(%rcx),%rsi
    4ab4:	48 89 29             	mov    %rbp,(%rcx)
    4ab7:	4c 89 61 08          	mov    %r12,0x8(%rcx)
    4abb:	48 c7 41 10 00 00 00 	movq   $0x0,0x10(%rcx)
    4ac2:	00 
    4ac3:	48 89 74 24 18       	mov    %rsi,0x18(%rsp)
    4ac8:	48 0f bf 10          	movswq (%rax),%rdx
    4acc:	48 83 eb 08          	sub    $0x8,%rbx
    4ad0:	48 8d 68 02          	lea    0x2(%rax),%rbp
    4ad4:	4c 8b 23             	mov    (%rbx),%r12
    4ad7:	48 89 d0             	mov    %rdx,%rax
    4ada:	41 ff 24 d6          	jmp    *(%r14,%rdx,8)
    4ade:	48 0f bf 45 00       	movswq 0x0(%rbp),%rax
    4ae3:	48 01 e8             	add    %rbp,%rax
    4ae6:	48 0f bf 10          	movswq (%rax),%rdx
    4aea:	48 8d 68 02          	lea    0x2(%rax),%rbp
    4aee:	48 89 d0             	mov    %rdx,%rax
    4af1:	41 ff 24 d6          	jmp    *(%r14,%rdx,8)
    4af5:	48 8d 45 02          	lea    0x2(%rbp),%rax
    4af9:	4d 85 e4             	test   %r12,%r12
    4afc:	75 08                	jne    4b06 <main+0x17b6>
    4afe:	48 0f bf 45 00       	movswq 0x0(%rbp),%rax
    4b03:	48 01 e8             	add    %rbp,%rax
    4b06:	48 0f bf 10          	movswq (%rax),%rdx
    4b0a:	48 8d 68 02          	lea    0x2(%rax),%rbp
    4b0e:	48 89 d0             	mov    %rdx,%rax
    4b11:	41 ff 24 d6          	jmp    *(%r14,%rdx,8)
    4b15:	48 8d 45 02          	lea    0x2(%rbp),%rax
    4b19:	4d 85 e4             	test   %r12,%r12
    4b1c:	75 08                	jne    4b26 <main+0x17d6>
    4b1e:	48 0f bf 45 00       	movswq 0x0(%rbp),%rax
    4b23:	48 01 e8             	add    %rbp,%rax
    4b26:	48 0f bf 10          	movswq (%rax),%rdx
    4b2a:	48 83 eb 08          	sub    $0x8,%rbx
    4b2e:	48 8d 68 02          	lea    0x2(%rax),%rbp
    4b32:	4c 8b 23             	mov    (%rbx),%r12
    4b35:	48 89 d0             	mov    %rdx,%rax
    4b38:	41 ff 24 d6          	jmp    *(%r14,%rdx,8)
    4b3c:	48 0f bf 45 00       	movswq 0x0(%rbp),%rax
    4b41:	4c 89 23             	mov    %r12,(%rbx)
    4b44:	4c 8d 65 02          	lea    0x2(%rbp),%r12
    4b48:	48 83 c3 08          	add    $0x8,%rbx
    4b4c:	48 01 e8             	add    %rbp,%rax
    4b4f:	48 0f bf 10          	movswq (%rax),%rdx
    4b53:	48 8d 68 02          	lea    0x2(%rax),%rbp
    4b57:	48 89 d0             	mov    %rdx,%rax
    4b5a:	49 8b 14 d6          	mov    (%r14,%rdx,8),%rdx
    4b5e:	ff e2                	jmp    *%rdx
    4b60:	48 0f bf 55 08       	movswq 0x8(%rbp),%rdx
    4b65:	4c 03 65 00          	add    0x0(%rbp),%r12
    4b69:	48 83 c5 0a          	add    $0xa,%rbp
    4b6d:	48 89 d0             	mov    %rdx,%rax
    4b70:	49 8b 14 d6          	mov    (%r14,%rdx,8),%rdx
    4b74:	ff e2                	jmp    *%rdx
    4b76:	48 0f bf 55 08       	movswq 0x8(%rbp),%rdx
    4b7b:	4c 89 23             	mov    %r12,(%rbx)
    4b7e:	48 83 c5 0a          	add    $0xa,%rbp
    4b82:	48 83 c3 08          	add    $0x8,%rbx
    4b86:	4c 8b 65 f6          	mov    -0xa(%rbp),%r12
    4b8a:	48 89 d0             	mov    %rdx,%rax
    4b8d:	49 8b 14 d6          	mov    (%r14,%rdx,8),%rdx
    4b91:	ff e2                	jmp    *%rdx
    4b93:	48 0f bf 55 02       	movswq 0x2(%rbp),%rdx
    4b98:	4c 89 23             	mov    %r12,(%rbx)
    4b9b:	48 83 c5 04          	add    $0x4,%rbp
    4b9f:	48 83 c3 08          	add    $0x8,%rbx
    4ba3:	4c 0f bf 65 fc       	movswq -0x4(%rbp),%r12
    4ba8:	48 89 d0             	mov    %rdx,%rax
    4bab:	49 8b 14 d6          	mov    (%r14,%rdx,8),%rdx
    4baf:	ff e2                	jmp    *%rdx
    4bb1:	48 8b 74 24 08       	mov    0x8(%rsp),%rsi
    4bb6:	4c 89 23             	mov    %r12,(%rbx)
    4bb9:	48 83 c5 02          	add    $0x2,%rbp
    4bbd:	48 83 c3 08          	add    $0x8,%rbx
    4bc1:	48 8b 56 f0          	mov    -0x10(%rsi),%rdx
    4bc5:	48 8d 42 01          	lea    0x1(%rdx),%rax
    4bc9:	48 89 84 24 a8 00 00 	mov    %rax,0xa8(%rsp)
    4bd0:	00 
    4bd1:	4c 0f be 22          	movsbq (%rdx),%r12
    4bd5:	48 0f bf 55 fe       	movswq -0x2(%rbp),%rdx
    4bda:	48 89 46 f0          	mov    %rax,-0x10(%rsi)
    4bde:	48 89 d0             	mov    %rdx,%rax
    4be1:	49 8b 14 d6          	mov    (%r14,%rdx,8),%rdx
    4be5:	ff e2                	jmp    *%rdx
    4be7:	48 8b 4c 24 08       	mov    0x8(%rsp),%rcx
    4bec:	48 83 eb 08          	sub    $0x8,%rbx
    4bf0:	48 83 c5 02          	add    $0x2,%rbp
    4bf4:	48 8b 41 f0          	mov    -0x10(%rcx),%rax
    4bf8:	48 8d 50 01          	lea    0x1(%rax),%rdx
    4bfc:	48 89 94 24 a8 00 00 	mov    %rdx,0xa8(%rsp)
    4c03:	00 
    4c04:	44 88 20             	mov    %r12b,(%rax)
    4c07:	48 0f bf 55 fe       	movswq -0x2(%rbp),%rdx
    4c0c:	48 8b 84 24 a8 00 00 	mov    0xa8(%rsp),%rax
    4c13:	00 
    4c14:	48 89 41 f0          	mov    %rax,-0x10(%rcx)
    4c18:	48 89 d0             	mov    %rdx,%rax
    4c1b:	49 8b 14 d6          	mov    (%r14,%rdx,8),%rdx
    4c1f:	4c 8b 23             	mov    (%rbx),%r12
    4c22:	ff e2                	jmp    *%rdx
    4c24:	48 8b 7c 24 08       	mov    0x8(%rsp),%rdi
    4c29:	4c 89 23             	mov    %r12,(%rbx)
    4c2c:	48 83 c5 02          	add    $0x2,%rbp
    4c30:	48 83 c3 08          	add    $0x8,%rbx
    4c34:	48 8b 57 f0          	mov    -0x10(%rdi),%rdx
    4c38:	48 8d 42 08          	lea    0x8(%rdx),%rax
    4c3c:	4c 8b 22             	mov    (%rdx),%r12
    4c3f:	48 0f bf 55 fe       	movswq -0x2(%rbp),%rdx
    4c44:	48 89 84 24 90 00 00 	mov    %rax,0x90(%rsp)
    4c4b:	00 
    4c4c:	48 89 47 f0          	mov    %rax,-0x10(%rdi)
    4c50:	48 89 d0             	mov    %rdx,%rax
    4c53:	49 8b 14 d6          	mov    (%r14,%rdx,8),%rdx
    4c57:	ff e2                	jmp    *%rdx
    4c59:	48 8b 74 24 08       	mov    0x8(%rsp),%rsi
    4c5e:	48 83 eb 08          	sub    $0x8,%rbx
    4c62:	48 83 c5 02          	add    $0x2,%rbp
    4c66:	48 8b 56 f0          	mov    -0x10(%rsi),%rdx
    4c6a:	48 8d 42 08          	lea    0x8(%rdx),%rax
    4c6e:	48 89 84 24 90 00 00 	mov    %rax,0x90(%rsp)
    4c75:	00 
    4c76:	4c 89 22             	mov    %r12,(%rdx)
    4c79:	48 0f bf 55 fe       	movswq -0x2(%rbp),%rdx
    4c7e:	48 89 46 f0          	mov    %rax,-0x10(%rsi)
    4c82:	4c 8b 23             	mov    (%rbx),%r12
    4c85:	48 89 d0             	mov    %rdx,%rax
    4c88:	49 8b 14 d6          	mov    (%r14,%rdx,8),%rdx
    4c8c:	ff e2                	jmp    *%rdx
    4c8e:	48 0f bf 55 00       	movswq 0x0(%rbp),%rdx
    4c93:	4c 89 23             	mov    %r12,(%rbx)
    4c96:	48 83 c5 02          	add    $0x2,%rbp
    4c9a:	48 83 c3 08          	add    $0x8,%rbx
    4c9e:	48 8b 44 24 08       	mov    0x8(%rsp),%rax
    4ca3:	4c 8b 60 f0          	mov    -0x10(%rax),%r12
    4ca7:	48 89 d0             	mov    %rdx,%rax
    4caa:	49 8b 14 d6          	mov    (%r14,%rdx,8),%rdx
    4cae:	ff e2                	jmp    *%rdx
    4cb0:	48 0f bf 55 00       	movswq 0x0(%rbp),%rdx
    4cb5:	48 8b 44 24 08       	mov    0x8(%rsp),%rax
    4cba:	48 83 c5 02          	add    $0x2,%rbp
    4cbe:	4c 89 60 f0          	mov    %r12,-0x10(%rax)
    4cc2:	48 89 d0             	mov    %rdx,%rax
    4cc5:	49 8b 14 d6          	mov    (%r14,%rdx,8),%rdx
    4cc9:	ff e2                	jmp    *%rdx
    4ccb:	48 0f bf 55 00       	movswq 0x0(%rbp),%rdx
    4cd0:	48 8b 44 24 08       	mov    0x8(%rsp),%rax
    4cd5:	48 83 eb 08          	sub    $0x8,%rbx
    4cd9:	48 83 c5 02          	add    $0x2,%rbp
    4cdd:	4c 89 60 f0          	mov    %r12,-0x10(%rax)
    4ce1:	48 89 d0             	mov    %rdx,%rax
    4ce4:	49 8b 14 d6          	mov    (%r14,%rdx,8),%rdx
    4ce8:	4c 8b 23             	mov    (%rbx),%r12
    4ceb:	ff e2                	jmp    *%rdx
    4ced:	48 0f bf 55 00       	movswq 0x0(%rbp),%rdx
    4cf2:	4c 89 23             	mov    %r12,(%rbx)
    4cf5:	48 83 c5 02          	add    $0x2,%rbp
    4cf9:	48 83 c3 08          	add    $0x8,%rbx
    4cfd:	48 8b 44 24 08       	mov    0x8(%rsp),%rax
    4d02:	4c 8b 60 f8          	mov    -0x8(%rax),%r12
    4d06:	48 89 d0             	mov    %rdx,%rax
    4d09:	49 8b 14 d6          	mov    (%r14,%rdx,8),%rdx
    4d0d:	ff e2                	jmp    *%rdx
    4d0f:	48 0f bf 55 00       	movswq 0x0(%rbp),%rdx
    4d14:	48 8b 44 24 08       	mov    0x8(%rsp),%rax
    4d19:	48 83 c5 02          	add    $0x2,%rbp
    4d1d:	4c 89 60 f8          	mov    %r12,-0x8(%rax)
    4d21:	48 89 d0             	mov    %rdx,%rax
    4d24:	49 8b 14 d6          	mov    (%r14,%rdx,8),%rdx
    4d28:	ff e2                	jmp    *%rdx
    4d2a:	48 0f bf 55 00       	movswq 0x0(%rbp),%rdx
    4d2f:	48 8b 44 24 08       	mov    0x8(%rsp),%rax
    4d34:	48 83 eb 08          	sub    $0x8,%rbx
    4d38:	48 83 c5 02          	add    $0x2,%rbp
    4d3c:	4c 89 60 f8          	mov    %r12,-0x8(%rax)
    4d40:	48 89 d0             	mov    %rdx,%rax
    4d43:	49 8b 14 d6          	mov    (%r14,%rdx,8),%rdx
    4d47:	4c 8b 23             	mov    (%rbx),%r12
    4d4a:	ff e2                	jmp    *%rdx
    4d4c:	48 0f bf 55 00       	movswq 0x0(%rbp),%rdx
    4d51:	4c 89 23             	mov    %r12,(%rbx)
    4d54:	48 83 c5 02          	add    $0x2,%rbp
    4d58:	48 83 c3 08          	add    $0x8,%rbx
    4d5c:	48 8b 44 24 10       	mov    0x10(%rsp),%rax
    4d61:	4c 8b 60 f8          	mov    -0x8(%rax),%r12
    4d65:	48 89 d0             	mov    %rdx,%rax
    4d68:	49 8b 14 d6          	mov    (%r14,%rdx,8),%rdx
    4d6c:	ff e2                	jmp    *%rdx
    4d6e:	48 0f bf 55 00       	movswq 0x0(%rbp),%rdx
    4d73:	4c 89 23             	mov    %r12,(%rbx)
    4d76:	48 83 c5 02          	add    $0x2,%rbp
    4d7a:	48 83 c3 08          	add    $0x8,%rbx
    4d7e:	48 83 6c 24 10 08    	subq   $0x8,0x10(%rsp)
    4d84:	48 8b 44 24 10       	mov    0x10(%rsp),%rax
    4d89:	4c 8b 20             	mov    (%rax),%r12
    4d8c:	48 89 d0             	mov    %rdx,%rax
    4d8f:	49 8b 14 d6          	mov    (%r14,%rdx,8),%rdx
    4d93:	ff e2                	jmp    *%rdx
    4d95:	48 0f bf 55 00       	movswq 0x0(%rbp),%rdx
    4d9a:	48 8b 74 24 10       	mov    0x10(%rsp),%rsi
    4d9f:	48 83 eb 08          	sub    $0x8,%rbx
    4da3:	48 83 c5 02          	add    $0x2,%rbp
    4da7:	48 89 d0             	mov    %rdx,%rax
    4daa:	49 8b 14 d6          	mov    (%r14,%rdx,8),%rdx
    4dae:	48 8d 7e 08          	lea    0x8(%rsi),%rdi
    4db2:	4c 89 26             	mov    %r12,(%rsi)
    4db5:	48 89 7c 24 10       	mov    %rdi,0x10(%rsp)
    4dba:	4c 8b 23             	mov    (%rbx),%r12
    4dbd:	ff e2                	jmp    *%rdx
    4dbf:	48 8b 43 f8          	mov    -0x8(%rbx),%rax
    4dc3:	48 0f bf 55 00       	movswq 0x0(%rbp),%rdx
    4dc8:	48 83 c3 08          	add    $0x8,%rbx
    4dcc:	48 83 c5 02          	add    $0x2,%rbp
    4dd0:	48 89 84 24 98 00 00 	mov    %rax,0x98(%rsp)
    4dd7:	00 
    4dd8:	48 89 43 f8          	mov    %rax,-0x8(%rbx)
    4ddc:	48 89 d0             	mov    %rdx,%rax
    4ddf:	49 8b 14 d6          	mov    (%r14,%rdx,8),%rdx
    4de3:	4c 89 63 f0          	mov    %r12,-0x10(%rbx)
    4de7:	ff e2                	jmp    *%rdx
    4de9:	48 8b 43 f0          	mov    -0x10(%rbx),%rax
    4ded:	48 0f bf 55 00       	movswq 0x0(%rbp),%rdx
    4df2:	48 83 c5 02          	add    $0x2,%rbp
    4df6:	48 89 84 24 98 00 00 	mov    %rax,0x98(%rsp)
    4dfd:	00 
    4dfe:	48 8b 43 f8          	mov    -0x8(%rbx),%rax
    4e02:	4c 89 63 f8          	mov    %r12,-0x8(%rbx)
    4e06:	48 89 43 f0          	mov    %rax,-0x10(%rbx)
    4e0a:	48 89 d0             	mov    %rdx,%rax
    4e0d:	49 8b 14 d6          	mov    (%r14,%rdx,8),%rdx
    4e11:	4c 8b a4 24 98 00 00 	mov    0x98(%rsp),%r12
    4e18:	00 
    4e19:	ff e2                	jmp    *%rdx
    4e1b:	48 0f bf 55 00       	movswq 0x0(%rbp),%rdx
    4e20:	48 83 eb 08          	sub    $0x8,%rbx
    4e24:	48 83 c5 02          	add    $0x2,%rbp
    4e28:	48 89 d0             	mov    %rdx,%rax
    4e2b:	49 8b 14 d6          	mov    (%r14,%rdx,8),%rdx
    4e2f:	ff e2                	jmp    *%rdx
    4e31:	48 8b 43 f8          	mov    -0x8(%rbx),%rax
    4e35:	48 0f bf 55 00       	movswq 0x0(%rbp),%rdx
    4e3a:	48 83 c5 02          	add    $0x2,%rbp
    4e3e:	48 89 84 24 98 00 00 	mov    %rax,0x98(%rsp)
    4e45:	00 
    4e46:	48 89 d0             	mov    %rdx,%rax
    4e49:	49 8b 14 d6          	mov    (%r14,%rdx,8),%rdx
    4e4d:	4c 89 63 f8          	mov    %r12,-0x8(%rbx)
    4e51:	4c 8b a4 24 98 00 00 	mov    0x98(%rsp),%r12
    4e58:	00 
    4e59:	ff e2                	jmp    *%rdx
    4e5b:	48 0f bf 55 00       	movswq 0x0(%rbp),%rdx
    4e60:	4c 89 23             	mov    %r12,(%rbx)
    4e63:	48 83 c5 02          	add    $0x2,%rbp
    4e67:	48 83 c3 08          	add    $0x8,%rbx
    4e6b:	4c 8b 63 f0          	mov    -0x10(%rbx),%r12
    4e6f:	48 89 d0             	mov    %rdx,%rax
    4e72:	49 8b 14 d6          	mov    (%r14,%rdx,8),%rdx
    4e76:	ff e2                	jmp    *%rdx
    4e78:	48 0f bf 55 00       	movswq 0x0(%rbp),%rdx
    4e7d:	48 83 eb 08          	sub    $0x8,%rbx
    4e81:	48 83 c5 02          	add    $0x2,%rbp
    4e85:	4c 8b 23             	mov    (%rbx),%r12
    4e88:	48 89 d0             	mov    %rdx,%rax
    4e8b:	49 8b 14 d6          	mov    (%r14,%rdx,8),%rdx
    4e8f:	ff e2                	jmp    *%rdx
    4e91:	48 0f bf 55 00       	movswq 0x0(%rbp),%rdx
    4e96:	4c 89 23             	mov    %r12,(%rbx)
    4e99:	48 83 c5 02          	add    $0x2,%rbp
    4e9d:	48 83 c3 08          	add    $0x8,%rbx
    4ea1:	48 89 d0             	mov    %rdx,%rax
    4ea4:	49 8b 14 d6          	mov    (%r14,%rdx,8),%rdx
    4ea8:	ff e2                	jmp    *%rdx
    4eaa:	48 8b 7c 24 08       	mov    0x8(%rsp),%rdi
    4eaf:	48 8b 57 f0          	mov    -0x10(%rdi),%rdx
    4eb3:	48 8d 77 f0          	lea    -0x10(%rdi),%rsi
    4eb7:	48 8b 6f f8          	mov    -0x8(%rdi),%rbp
    4ebb:	48 89 74 24 08       	mov    %rsi,0x8(%rsp)
    4ec0:	ff e2                	jmp    *%rdx
    4ec2:	48 0f bf 55 00       	movswq 0x0(%rbp),%rdx
    4ec7:	48 8d 05 72 a9 00 00 	lea    0xa972(%rip),%rax        # f840 <body>
    4ece:	48 8b 04 d0          	mov    (%rax,%rdx,8),%rax
    4ed2:	48 0f bf 10          	movswq (%rax),%rdx
    4ed6:	48 8d 68 02          	lea    0x2(%rax),%rbp
    4eda:	48 89 d0             	mov    %rdx,%rax
    4edd:	41 ff 24 d6          	jmp    *(%r14,%rdx,8)
    4ee1:	48 8d 15 58 a9 00 00 	lea    0xa958(%rip),%rdx        # f840 <body>
    4ee8:	48 0f bf c0          	movswq %ax,%rax
    4eec:	48 8b 4c 24 08       	mov    0x8(%rsp),%rcx
    4ef1:	48 8b 7c 24 18       	mov    0x18(%rsp),%rdi
    4ef6:	48 8b 04 c2          	mov    (%rdx,%rax,8),%rax
    4efa:	48 83 c3 08          	add    $0x8,%rbx
    4efe:	48 89 29             	mov    %rbp,(%rcx)
    4f01:	48 83 c1 20          	add    $0x20,%rcx
    4f05:	48 89 79 e8          	mov    %rdi,-0x18(%rcx)
    4f09:	4c 89 63 f8          	mov    %r12,-0x8(%rbx)
    4f0d:	4c 8b 20             	mov    (%rax),%r12
    4f10:	48 8b 40 08          	mov    0x8(%rax),%rax
    4f14:	48 89 4c 24 08       	mov    %rcx,0x8(%rsp)
    4f19:	48 0f bf 10          	movswq (%rax),%rdx
    4f1d:	48 8d 68 02          	lea    0x2(%rax),%rbp
    4f21:	48 89 d0             	mov    %rdx,%rax
    4f24:	49 8b 14 d6          	mov    (%r14,%rdx,8),%rdx
    4f28:	ff e2                	jmp    *%rdx
    4f2a:	48 8d 15 0f a9 00 00 	lea    0xa90f(%rip),%rdx        # f840 <body>
    4f31:	48 0f bf c0          	movswq %ax,%rax
    4f35:	48 83 c5 02          	add    $0x2,%rbp
    4f39:	48 8b 04 c2          	mov    (%rdx,%rax,8),%rax
    4f3d:	48 0f bf 55 fe       	movswq -0x2(%rbp),%rdx
    4f42:	4c 03 20             	add    (%rax),%r12
    4f45:	48 89 d0             	mov    %rdx,%rax
    4f48:	49 8b 14 d6          	mov    (%r14,%rdx,8),%rdx
    4f4c:	ff e2                	jmp    *%rdx
    4f4e:	48 0f bf c0          	movswq %ax,%rax
    4f52:	4c 89 23             	mov    %r12,(%rbx)
    4f55:	48 83 c5 02          	add    $0x2,%rbp
    4f59:	48 83 c3 08          	add    $0x8,%rbx
    4f5d:	48 8d 15 dc a8 00 00 	lea    0xa8dc(%rip),%rdx        # f840 <body>
    4f64:	48 8b 04 c2          	mov    (%rdx,%rax,8),%rax
    4f68:	48 0f bf 55 fe       	movswq -0x2(%rbp),%rdx
    4f6d:	4c 8b 20             	mov    (%rax),%r12
    4f70:	48 89 d0             	mov    %rdx,%rax
    4f73:	49 8b 14 d6          	mov    (%r14,%rdx,8),%rdx
    4f77:	ff e2                	jmp    *%rdx
    4f79:	48 0f bf c0          	movswq %ax,%rax
    4f7d:	4c 89 23             	mov    %r12,(%rbx)
    4f80:	48 83 c5 02          	add    $0x2,%rbp
    4f84:	48 83 c3 08          	add    $0x8,%rbx
    4f88:	48 8d 15 b1 a8 00 00 	lea    0xa8b1(%rip),%rdx        # f840 <body>
    4f8f:	4c 8b 24 c2          	mov    (%rdx,%rax,8),%r12
    4f93:	48 0f bf 55 fe       	movswq -0x2(%rbp),%rdx
    4f98:	48 89 d0             	mov    %rdx,%rax
    4f9b:	49 8b 14 d6          	mov    (%r14,%rdx,8),%rdx
    4f9f:	ff e2                	jmp    *%rdx
    4fa1:	44 89 e0             	mov    %r12d,%eax
    4fa4:	48 83 eb 08          	sub    $0x8,%rbx
    4fa8:	4c 8b 23             	mov    (%rbx),%r12
    4fab:	66 85 c0             	test   %ax,%ax
    4fae:	0f 84 30 14 00 00    	je     63e4 <main+0x3094>
    4fb4:	48 0f bf d0          	movswq %ax,%rdx
    4fb8:	41 ff 24 d6          	jmp    *(%r14,%rdx,8)
    4fbc:	4c 89 a4 24 98 00 00 	mov    %r12,0x98(%rsp)
    4fc3:	00 
    4fc4:	48 83 eb 08          	sub    $0x8,%rbx
    4fc8:	4c 8b 23             	mov    (%rbx),%r12
    4fcb:	48 83 bc 24 98 00 00 	cmpq   $0x0,0x98(%rsp)
    4fd2:	00 00 
    4fd4:	74 1b                	je     4ff1 <main+0x1ca1>
    4fd6:	48 8b 44 24 08       	mov    0x8(%rsp),%rax
    4fdb:	48 8b 48 e8          	mov    -0x18(%rax),%rcx
    4fdf:	48 8b 68 e0          	mov    -0x20(%rax),%rbp
    4fe3:	48 83 e8 20          	sub    $0x20,%rax
    4fe7:	48 89 44 24 08       	mov    %rax,0x8(%rsp)
    4fec:	48 89 4c 24 18       	mov    %rcx,0x18(%rsp)
    4ff1:	48 0f bf 55 00       	movswq 0x0(%rbp),%rdx
    4ff6:	48 83 c5 02          	add    $0x2,%rbp
    4ffa:	48 89 d0             	mov    %rdx,%rax
    4ffd:	49 8b 14 d6          	mov    (%r14,%rdx,8),%rdx
    5001:	ff e2                	jmp    *%rdx
    5003:	48 8d 15 36 a8 00 00 	lea    0xa836(%rip),%rdx        # f840 <body>
    500a:	48 0f bf c0          	movswq %ax,%rax
    500e:	48 8b 74 24 08       	mov    0x8(%rsp),%rsi
    5013:	48 8b 7c 24 18       	mov    0x18(%rsp),%rdi
    5018:	48 8b 04 c2          	mov    (%rdx,%rax,8),%rax
    501c:	48 89 2e             	mov    %rbp,(%rsi)
    501f:	48 8d 4e 20          	lea    0x20(%rsi),%rcx
    5023:	48 0f bf 10          	movswq (%rax),%rdx
    5027:	48 8d 68 02          	lea    0x2(%rax),%rbp
    502b:	48 89 7e 08          	mov    %rdi,0x8(%rsi)
    502f:	48 89 4c 24 08       	mov    %rcx,0x8(%rsp)
    5034:	48 89 d0             	mov    %rdx,%rax
    5037:	49 8b 14 d6          	mov    (%r14,%rdx,8),%rdx
    503b:	ff e2                	jmp    *%rdx
    503d:	4c 39 64 24 40       	cmp    %r12,0x40(%rsp)
    5042:	7e 10                	jle    5054 <main+0x1d04>
    5044:	4d 85 e4             	test   %r12,%r12
    5047:	78 0b                	js     5054 <main+0x1d04>
    5049:	48 8b 44 24 30       	mov    0x30(%rsp),%rax
    504e:	4e 8b 24 e0          	mov    (%rax,%r12,8),%r12
    5052:	eb 03                	jmp    5057 <main+0x1d07>
    5054:	45 31 e4             	xor    %r12d,%r12d
    5057:	48 0f bf 55 00       	movswq 0x0(%rbp),%rdx
    505c:	48 83 c5 02          	add    $0x2,%rbp
    5060:	48 89 d0             	mov    %rdx,%rax
    5063:	49 8b 14 d6          	mov    (%r14,%rdx,8),%rdx
    5067:	ff e2                	jmp    *%rdx
    5069:	83 7c 24 2c 00       	cmpl   $0x0,0x2c(%rsp)
    506e:	0f 85 1a 17 00 00    	jne    678e <main+0x343e>
    5074:	83 7c 24 68 00       	cmpl   $0x0,0x68(%rsp)
    5079:	0f 85 eb 16 00 00    	jne    676a <main+0x341a>
    507f:	48 8b 7c 24 20       	mov    0x20(%rsp),%rdi
    5084:	e8 b7 df ff ff       	call   3040 <free@plt>
    5089:	44 89 e0             	mov    %r12d,%eax
    508c:	48 8b 94 24 48 81 00 	mov    0x8148(%rsp),%rdx
    5093:	00 
    5094:	64 48 2b 14 25 28 00 	sub    %fs:0x28,%rdx
    509b:	00 00 
    509d:	0f 85 84 1a 00 00    	jne    6b27 <main+0x37d7>
    50a3:	48 81 c4 58 81 00 00 	add    $0x8158,%rsp
    50aa:	5b                   	pop    %rbx
    50ab:	5d                   	pop    %rbp
    50ac:	41 5c                	pop    %r12
    50ae:	41 5d                	pop    %r13
    50b0:	41 5e                	pop    %r14
    50b2:	41 5f                	pop    %r15
    50b4:	c3                   	ret    
    50b5:	45 31 e4             	xor    %r12d,%r12d
    50b8:	eb af                	jmp    5069 <main+0x1d19>
    50ba:	48 0f bf 55 00       	movswq 0x0(%rbp),%rdx
    50bf:	48 83 c5 02          	add    $0x2,%rbp
    50c3:	48 89 d0             	mov    %rdx,%rax
    50c6:	49 8b 14 d6          	mov    (%r14,%rdx,8),%rdx
    50ca:	ff e2                	jmp    *%rdx
    50cc:	48 83 84 24 98 00 00 	addq   $0x1,0x98(%rsp)
    50d3:	00 01 
    50d5:	48 8b 44 24 10       	mov    0x10(%rsp),%rax
    50da:	4c 89 23             	mov    %r12,(%rbx)
    50dd:	48 83 c3 08          	add    $0x8,%rbx
    50e1:	49 83 cc ff          	or     $0xffffffffffffffff,%r12
    50e5:	48 0f bf 55 00       	movswq 0x0(%rbp),%rdx
    50ea:	48 8b 40 f8          	mov    -0x8(%rax),%rax
    50ee:	48 83 c5 02          	add    $0x2,%rbp
    50f2:	48 83 6c 24 10 08    	subq   $0x8,0x10(%rsp)
    50f8:	48 89 05 81 27 23 00 	mov    %rax,0x232781(%rip)        # 237880 <source>
    50ff:	48 89 d0             	mov    %rdx,%rax
    5102:	49 8b 14 d6          	mov    (%r14,%rdx,8),%rdx
    5106:	ff e2                	jmp    *%rdx
    5108:	48 8b 44 24 10       	mov    0x10(%rsp),%rax
    510d:	4d 85 e4             	test   %r12,%r12
    5110:	74 d3                	je     50e5 <main+0x1d95>
    5112:	4c 8b 63 f8          	mov    -0x8(%rbx),%r12
    5116:	48 83 eb 08          	sub    $0x8,%rbx
    511a:	66 0f 1f 44 00 00    	nopw   0x0(%rax,%rax,1)
    5120:	48 8d 84 24 50 01 00 	lea    0x150(%rsp),%rax
    5127:	00 
    5128:	48 39 c3             	cmp    %rax,%rbx
    512b:	0f 83 06 03 00 00    	jae    5437 <main+0x20e7>
    5131:	4c 8b 25 30 27 23 00 	mov    0x232730(%rip),%r12        # 237868 <on_error>
    5138:	4d 85 e4             	test   %r12,%r12
    513b:	0f 84 3a 12 00 00    	je     637b <main+0x302b>
    5141:	48 8b 5c 24 08       	mov    0x8(%rsp),%rbx
    5146:	49 0f bf d4          	movswq %r12w,%rdx
    514a:	48 8d 0d d6 02 00 00 	lea    0x2d6(%rip),%rcx        # 5427 <main+0x20d7>
    5151:	48 c7 84 24 58 01 00 	movq   $0x0,0x158(%rsp)
    5158:	00 00 00 00 00 
    515d:	66 44 89 a4 24 bc 00 	mov    %r12w,0xbc(%rsp)
    5164:	00 00 
    5166:	49 8b 14 d6          	mov    (%r14,%rdx,8),%rdx
    516a:	44 89 e0             	mov    %r12d,%eax
    516d:	41 bc 01 00 00 00    	mov    $0x1,%r12d
    5173:	48 89 6b 08          	mov    %rbp,0x8(%rbx)
    5177:	48 83 c3 10          	add    $0x10,%rbx
    517b:	48 8d ac 24 be 00 00 	lea    0xbe(%rsp),%rbp
    5182:	00 
    5183:	66 c7 84 24 be 00 00 	movw   $0x5,0xbe(%rsp)
    518a:	00 05 00 
    518d:	48 89 4b f0          	mov    %rcx,-0x10(%rbx)
    5191:	48 89 5c 24 08       	mov    %rbx,0x8(%rsp)
    5196:	48 8d 9c 24 60 01 00 	lea    0x160(%rsp),%rbx
    519d:	00 
    519e:	ff e2                	jmp    *%rdx
    51a0:	e9 7b ff ff ff       	jmp    5120 <main+0x1dd0>
    51a5:	48 0f bf 54 24 7e    	movswq 0x7e(%rsp),%rdx
    51ab:	48 8b 4c 24 08       	mov    0x8(%rsp),%rcx
    51b0:	48 8d 35 e9 ff ff ff 	lea    -0x17(%rip),%rsi        # 51a0 <main+0x1e50>
    51b7:	66 c7 84 24 be 00 00 	movw   $0x5,0xbe(%rsp)
    51be:	00 05 00 
    51c1:	66 89 94 24 bc 00 00 	mov    %dx,0xbc(%rsp)
    51c8:	00 
    51c9:	48 89 d0             	mov    %rdx,%rax
    51cc:	49 8b 14 d6          	mov    (%r14,%rdx,8),%rdx
    51d0:	48 83 c1 10          	add    $0x10,%rcx
    51d4:	48 89 69 f8          	mov    %rbp,-0x8(%rcx)
    51d8:	48 8d ac 24 be 00 00 	lea    0xbe(%rsp),%rbp
    51df:	00 
    51e0:	48 89 71 f0          	mov    %rsi,-0x10(%rcx)
    51e4:	48 89 4c 24 08       	mov    %rcx,0x8(%rsp)
    51e9:	ff e2                	jmp    *%rdx
    51eb:	48 8b 74 24 10       	mov    0x10(%rsp),%rsi
    51f0:	48 8b 15 89 26 23 00 	mov    0x232689(%rip),%rdx        # 237880 <source>
    51f7:	48 83 eb 08          	sub    $0x8,%rbx
    51fb:	48 89 f0             	mov    %rsi,%rax
    51fe:	48 83 c6 08          	add    $0x8,%rsi
    5202:	48 89 10             	mov    %rdx,(%rax)
    5205:	4c 89 25 74 26 23 00 	mov    %r12,0x232674(%rip)        # 237880 <source>
    520c:	48 83 3d 6c 26 23 00 	cmpq   $0x0,0x23266c(%rip)        # 237880 <source>
    5213:	00 
    5214:	48 89 74 24 10       	mov    %rsi,0x10(%rsp)
    5219:	4c 8b 23             	mov    (%rbx),%r12
    521c:	0f 85 fe fe ff ff    	jne    5120 <main+0x1dd0>
    5222:	48 8b 15 47 26 23 00 	mov    0x232647(%rip),%rdx        # 237870 <on_ok>
    5229:	48 85 d2             	test   %rdx,%rdx
    522c:	0f 84 a3 fe ff ff    	je     50d5 <main+0x1d85>
    5232:	48 8b 7c 24 08       	mov    0x8(%rsp),%rdi
    5237:	89 d0                	mov    %edx,%eax
    5239:	66 89 94 24 bc 00 00 	mov    %dx,0xbc(%rsp)
    5240:	00 
    5241:	48 0f bf d2          	movswq %dx,%rdx
    5245:	48 8d 0d 80 fe ff ff 	lea    -0x180(%rip),%rcx        # 50cc <main+0x1d7c>
    524c:	49 8b 14 d6          	mov    (%r14,%rdx,8),%rdx
    5250:	66 c7 84 24 be 00 00 	movw   $0x5,0xbe(%rsp)
    5257:	00 05 00 
    525a:	48 89 6f 08          	mov    %rbp,0x8(%rdi)
    525e:	48 83 c7 10          	add    $0x10,%rdi
    5262:	48 8d ac 24 be 00 00 	lea    0xbe(%rsp),%rbp
    5269:	00 
    526a:	48 89 4f f0          	mov    %rcx,-0x10(%rdi)
    526e:	48 89 7c 24 08       	mov    %rdi,0x8(%rsp)
    5273:	ff e2                	jmp    *%rdx
    5275:	48 8b 43 f8          	mov    -0x8(%rbx),%rax
    5279:	48 8d 15 f0 3f 00 00 	lea    0x3ff0(%rip),%rdx        # 9270 <_IO_stdin_used+0x270>
    5280:	48 83 eb 08          	sub    $0x8,%rbx
    5284:	4c 89 e7             	mov    %r12,%rdi
    5287:	48 89 d6             	mov    %rdx,%rsi
    528a:	48 85 c0             	test   %rax,%rax
    528d:	48 89 84 24 98 00 00 	mov    %rax,0x98(%rsp)
    5294:	00 
    5295:	48 0f 45 f0          	cmovne %rax,%rsi
    5299:	48 83 c5 02          	add    $0x2,%rbp
    529d:	e8 ee 2c 00 00       	call   7f90 <sys_exec>
    52a2:	48 0f bf 55 fe       	movswq -0x2(%rbp),%rdx
    52a7:	49 89 c4             	mov    %rax,%r12
    52aa:	48 89 d0             	mov    %rdx,%rax
    52ad:	49 8b 14 d6          	mov    (%r14,%rdx,8),%rdx
    52b1:	ff e2                	jmp    *%rdx
    52b3:	4c 89 23             	mov    %r12,(%rbx)
    52b6:	4c 8d 7b 08          	lea    0x8(%rbx),%r15
    52ba:	48 83 c5 02          	add    $0x2,%rbp
    52be:	4c 89 fb             	mov    %r15,%rbx
    52c1:	e8 ea dd ff ff       	call   30b0 <getpid@plt>
    52c6:	48 0f bf 55 fe       	movswq -0x2(%rbp),%rdx
    52cb:	4c 63 e0             	movslq %eax,%r12
    52ce:	48 89 d0             	mov    %rdx,%rax
    52d1:	49 8b 14 d6          	mov    (%r14,%rdx,8),%rdx
    52d5:	ff e2                	jmp    *%rdx
    52d7:	48 8d 35 02 1a 00 00 	lea    0x1a02(%rip),%rsi        # 6ce0 <catch_exit>
    52de:	bf 11 00 00 00       	mov    $0x11,%edi
    52e3:	e8 08 df ff ff       	call   31f0 <signal@plt>
    52e8:	e8 33 e0 ff ff       	call   3320 <fork@plt>
    52ed:	85 c0                	test   %eax,%eax
    52ef:	0f 84 b9 12 00 00    	je     65ae <main+0x325e>
    52f5:	48 0f bf 55 00       	movswq 0x0(%rbp),%rdx
    52fa:	48 83 eb 08          	sub    $0x8,%rbx
    52fe:	48 83 c5 02          	add    $0x2,%rbp
    5302:	4c 8b 23             	mov    (%rbx),%r12
    5305:	48 89 d0             	mov    %rdx,%rax
    5308:	49 8b 14 d6          	mov    (%r14,%rdx,8),%rdx
    530c:	ff e2                	jmp    *%rdx
    530e:	48 8b 43 f8          	mov    -0x8(%rbx),%rax
    5312:	4c 89 e7             	mov    %r12,%rdi
    5315:	48 8d b4 24 a8 00 00 	lea    0xa8(%rsp),%rsi
    531c:	00 
    531d:	48 83 c5 02          	add    $0x2,%rbp
    5321:	48 89 84 24 a8 00 00 	mov    %rax,0xa8(%rsp)
    5328:	00 
    5329:	e8 32 2a 00 00       	call   7d60 <split>
    532e:	48 0f bf 55 fe       	movswq -0x2(%rbp),%rdx
    5333:	4c 63 e0             	movslq %eax,%r12
    5336:	48 8b 84 24 a8 00 00 	mov    0xa8(%rsp),%rax
    533d:	00 
    533e:	48 89 43 f8          	mov    %rax,-0x8(%rbx)
    5342:	48 89 d0             	mov    %rdx,%rax
    5345:	49 8b 14 d6          	mov    (%r14,%rdx,8),%rdx
    5349:	ff e2                	jmp    *%rdx
    534b:	48 8b 43 f8          	mov    -0x8(%rbx),%rax
    534f:	4c 89 e7             	mov    %r12,%rdi
    5352:	48 8d b4 24 a8 00 00 	lea    0xa8(%rsp),%rsi
    5359:	00 
    535a:	48 83 c5 02          	add    $0x2,%rbp
    535e:	48 89 84 24 a8 00 00 	mov    %rax,0xa8(%rsp)
    5365:	00 
    5366:	e8 55 29 00 00       	call   7cc0 <match>
    536b:	48 0f bf 55 fe       	movswq -0x2(%rbp),%rdx
    5370:	4c 63 e0             	movslq %eax,%r12
    5373:	48 8b 84 24 a8 00 00 	mov    0xa8(%rsp),%rax
    537a:	00 
    537b:	48 89 43 f8          	mov    %rax,-0x8(%rbx)
    537f:	48 89 d0             	mov    %rdx,%rax
    5382:	49 8b 14 d6          	mov    (%r14,%rdx,8),%rdx
    5386:	ff e2                	jmp    *%rdx
    5388:	83 7c 24 68 00       	cmpl   $0x0,0x68(%rsp)
    538d:	0f 85 fc 10 00 00    	jne    648f <main+0x313f>
    5393:	48 0f bf 55 00       	movswq 0x0(%rbp),%rdx
    5398:	c7 44 24 68 00 00 00 	movl   $0x0,0x68(%rsp)
    539f:	00 
    53a0:	48 83 c5 02          	add    $0x2,%rbp
    53a4:	48 89 d0             	mov    %rdx,%rax
    53a7:	49 8b 14 d6          	mov    (%r14,%rdx,8),%rdx
    53ab:	ff e2                	jmp    *%rdx
    53ad:	83 7c 24 2c 00       	cmpl   $0x0,0x2c(%rsp)
    53b2:	0f 85 b5 10 00 00    	jne    646d <main+0x311d>
    53b8:	48 0f bf 55 00       	movswq 0x0(%rbp),%rdx
    53bd:	c7 44 24 2c 00 00 00 	movl   $0x0,0x2c(%rsp)
    53c4:	00 
    53c5:	48 83 c5 02          	add    $0x2,%rbp
    53c9:	48 89 d0             	mov    %rdx,%rax
    53cc:	49 8b 14 d6          	mov    (%r14,%rdx,8),%rdx
    53d0:	ff e2                	jmp    *%rdx
    53d2:	e9 49 fd ff ff       	jmp    5120 <main+0x1dd0>
    53d7:	48 8b 44 24 08       	mov    0x8(%rsp),%rax
    53dc:	48 8d 3d ef ff ff ff 	lea    -0x11(%rip),%rdi        # 53d2 <main+0x2082>
    53e3:	48 8b 15 2e 27 01 00 	mov    0x1272e(%rip),%rdx        # 17b18 <call+0x2d8>
    53ea:	c7 84 24 bc 00 00 00 	movl   $0x5005b,0xbc(%rsp)
    53f1:	5b 00 05 00 
    53f5:	48 89 68 08          	mov    %rbp,0x8(%rax)
    53f9:	48 83 c0 10          	add    $0x10,%rax
    53fd:	48 8d ac 24 be 00 00 	lea    0xbe(%rsp),%rbp
    5404:	00 
    5405:	48 89 78 f0          	mov    %rdi,-0x10(%rax)
    5409:	48 89 44 24 08       	mov    %rax,0x8(%rsp)
    540e:	b8 5b 00 00 00       	mov    $0x5b,%eax
    5413:	ff e2                	jmp    *%rdx
    5415:	4d 85 e4             	test   %r12,%r12
    5418:	0f 85 f4 fc ff ff    	jne    5112 <main+0x1dc2>
    541e:	48 83 eb 08          	sub    $0x8,%rbx
    5422:	4c 8b 23             	mov    (%rbx),%r12
    5425:	eb 20                	jmp    5447 <main+0x20f7>
    5427:	48 83 eb 08          	sub    $0x8,%rbx
    542b:	4d 85 e4             	test   %r12,%r12
    542e:	4c 8b 23             	mov    (%rbx),%r12
    5431:	0f 84 10 10 00 00    	je     6447 <main+0x30f7>
    5437:	48 8b 0d 1a 24 23 00 	mov    0x23241a(%rip),%rcx        # 237858 <on_eval>
    543e:	48 85 c9             	test   %rcx,%rcx
    5441:	0f 85 be 0e 00 00    	jne    6305 <main+0x2fb5>
    5447:	31 c0                	xor    %eax,%eax
    5449:	e8 d2 1e 00 00       	call   7320 <parse>
    544e:	49 89 c7             	mov    %rax,%r15
    5451:	48 85 c0             	test   %rax,%rax
    5454:	0f 84 c8 fd ff ff    	je     5222 <main+0x1ed2>
    545a:	0f b6 00             	movzbl (%rax),%eax
    545d:	84 c0                	test   %al,%al
    545f:	0f 84 bd fd ff ff    	je     5222 <main+0x1ed2>
    5465:	3c 2e                	cmp    $0x2e,%al
    5467:	0f 84 42 12 00 00    	je     66af <main+0x335f>
    546d:	3c 22                	cmp    $0x22,%al
    546f:	0f 84 47 14 00 00    	je     68bc <main+0x356c>
    5475:	48 8b 3d d4 23 23 00 	mov    0x2323d4(%rip),%rdi        # 237850 <macro>
    547c:	4c 89 fe             	mov    %r15,%rsi
    547f:	e8 8c 18 00 00       	call   6d10 <find.part.0>
    5484:	66 85 c0             	test   %ax,%ax
    5487:	0f 84 23 13 00 00    	je     67b0 <main+0x3460>
    548d:	48 8b 4c 24 08       	mov    0x8(%rsp),%rcx
    5492:	48 0f bf d0          	movswq %ax,%rdx
    5496:	48 8d 3d 35 00 00 00 	lea    0x35(%rip),%rdi        # 54d2 <main+0x2182>
    549d:	66 89 84 24 bc 00 00 	mov    %ax,0xbc(%rsp)
    54a4:	00 
    54a5:	66 c7 84 24 be 00 00 	movw   $0x5,0xbe(%rsp)
    54ac:	00 05 00 
    54af:	49 8b 14 d6          	mov    (%r14,%rdx,8),%rdx
    54b3:	48 89 39             	mov    %rdi,(%rcx)
    54b6:	48 8d 79 10          	lea    0x10(%rcx),%rdi
    54ba:	48 89 69 08          	mov    %rbp,0x8(%rcx)
    54be:	48 8d ac 24 be 00 00 	lea    0xbe(%rsp),%rbp
    54c5:	00 
    54c6:	48 89 7c 24 08       	mov    %rdi,0x8(%rsp)
    54cb:	ff e2                	jmp    *%rdx
    54cd:	e9 4e fc ff ff       	jmp    5120 <main+0x1dd0>
    54d2:	e9 49 fc ff ff       	jmp    5120 <main+0x1dd0>
    54d7:	83 7c 24 68 00       	cmpl   $0x0,0x68(%rsp)
    54dc:	0f 84 71 10 00 00    	je     6553 <main+0x3203>
    54e2:	48 0f bf 55 00       	movswq 0x0(%rbp),%rdx
    54e7:	48 83 c5 02          	add    $0x2,%rbp
    54eb:	48 89 d0             	mov    %rdx,%rax
    54ee:	49 8b 14 d6          	mov    (%r14,%rdx,8),%rdx
    54f2:	ff e2                	jmp    *%rdx
    54f4:	83 7c 24 2c 00       	cmpl   $0x0,0x2c(%rsp)
    54f9:	0f 84 e8 0f 00 00    	je     64e7 <main+0x3197>
    54ff:	48 0f bf 55 00       	movswq 0x0(%rbp),%rdx
    5504:	48 83 c5 02          	add    $0x2,%rbp
    5508:	48 89 d0             	mov    %rdx,%rax
    550b:	49 8b 14 d6          	mov    (%r14,%rdx,8),%rdx
    550f:	ff e2                	jmp    *%rdx
    5511:	4c 89 23             	mov    %r12,(%rbx)
    5514:	48 8d b4 24 84 00 00 	lea    0x84(%rsp),%rsi
    551b:	00 
    551c:	48 83 c3 10          	add    $0x10,%rbx
    5520:	48 83 c5 02          	add    $0x2,%rbp
    5524:	48 8d bc 24 80 00 00 	lea    0x80(%rsp),%rdi
    552b:	00 
    552c:	e8 3f 25 00 00       	call   7a70 <max_xy>
    5531:	48 0f bf 55 fe       	movswq -0x2(%rbp),%rdx
    5536:	48 63 84 24 80 00 00 	movslq 0x80(%rsp),%rax
    553d:	00 
    553e:	4c 63 a4 24 84 00 00 	movslq 0x84(%rsp),%r12
    5545:	00 
    5546:	48 89 43 f8          	mov    %rax,-0x8(%rbx)
    554a:	48 89 d0             	mov    %rdx,%rax
    554d:	49 8b 14 d6          	mov    (%r14,%rdx,8),%rdx
    5551:	ff e2                	jmp    *%rdx
    5553:	8b 7b f8             	mov    -0x8(%rbx),%edi
    5556:	44 89 e6             	mov    %r12d,%esi
    5559:	4c 8d 7b f8          	lea    -0x8(%rbx),%r15
    555d:	48 83 c5 02          	add    $0x2,%rbp
    5561:	48 83 eb 10          	sub    $0x10,%rbx
    5565:	e8 86 24 00 00       	call   79f0 <at_xy>
    556a:	48 0f bf 55 fe       	movswq -0x2(%rbp),%rdx
    556f:	4d 8b 67 f8          	mov    -0x8(%r15),%r12
    5573:	48 89 d0             	mov    %rdx,%rax
    5576:	49 8b 14 d6          	mov    (%r14,%rdx,8),%rdx
    557a:	ff e2                	jmp    *%rdx
    557c:	48 8b 53 f8          	mov    -0x8(%rbx),%rdx
    5580:	44 89 e6             	mov    %r12d,%esi
    5583:	4c 8d 7b f8          	lea    -0x8(%rbx),%r15
    5587:	48 83 c5 02          	add    $0x2,%rbp
    558b:	48 83 eb 18          	sub    $0x18,%rbx
    558f:	48 89 94 24 a0 00 00 	mov    %rdx,0xa0(%rsp)
    5596:	00 
    5597:	48 8b 7b 08          	mov    0x8(%rbx),%rdi
    559b:	48 89 bc 24 a8 00 00 	mov    %rdi,0xa8(%rsp)
    55a2:	00 
    55a3:	e8 88 db ff ff       	call   3130 <memset@plt>
    55a8:	48 0f bf 55 fe       	movswq -0x2(%rbp),%rdx
    55ad:	4d 8b 67 f0          	mov    -0x10(%r15),%r12
    55b1:	48 89 d0             	mov    %rdx,%rax
    55b4:	49 8b 14 d6          	mov    (%r14,%rdx,8),%rdx
    55b8:	ff e2                	jmp    *%rdx
    55ba:	48 8b 43 f8          	mov    -0x8(%rbx),%rax
    55be:	48 8d 73 f8          	lea    -0x8(%rbx),%rsi
    55c2:	48 89 84 24 a0 00 00 	mov    %rax,0xa0(%rsp)
    55c9:	00 
    55ca:	48 8b 56 f8          	mov    -0x8(%rsi),%rdx
    55ce:	c7 84 24 80 00 00 00 	movl   $0x0,0x80(%rsp)
    55d5:	00 00 00 00 
    55d9:	48 89 94 24 a8 00 00 	mov    %rdx,0xa8(%rsp)
    55e0:	00 
    55e1:	48 85 c0             	test   %rax,%rax
    55e4:	7e 31                	jle    5617 <main+0x22c7>
    55e6:	31 c0                	xor    %eax,%eax
    55e8:	0f 1f 84 00 00 00 00 	nopl   0x0(%rax,%rax,1)
    55ef:	00 
    55f0:	4c 89 22             	mov    %r12,(%rdx)
    55f3:	8d 48 01             	lea    0x1(%rax),%ecx
    55f6:	48 83 c2 08          	add    $0x8,%rdx
    55fa:	48 83 c0 01          	add    $0x1,%rax
    55fe:	48 39 84 24 a0 00 00 	cmp    %rax,0xa0(%rsp)
    5605:	00 
    5606:	7f e8                	jg     55f0 <main+0x22a0>
    5608:	48 89 94 24 a8 00 00 	mov    %rdx,0xa8(%rsp)
    560f:	00 
    5610:	89 8c 24 80 00 00 00 	mov    %ecx,0x80(%rsp)
    5617:	48 0f bf 55 00       	movswq 0x0(%rbp),%rdx
    561c:	4c 8b 66 f0          	mov    -0x10(%rsi),%r12
    5620:	48 8d 5e f0          	lea    -0x10(%rsi),%rbx
    5624:	48 83 c5 02          	add    $0x2,%rbp
    5628:	48 89 d0             	mov    %rdx,%rax
    562b:	49 8b 14 d6          	mov    (%r14,%rdx,8),%rdx
    562f:	ff e2                	jmp    *%rdx
    5631:	48 8b 73 f8          	mov    -0x8(%rbx),%rsi
    5635:	4c 89 e7             	mov    %r12,%rdi
    5638:	48 83 eb 08          	sub    $0x8,%rbx
    563c:	48 83 c5 02          	add    $0x2,%rbp
    5640:	e8 ab 21 00 00       	call   77f0 <date_format>
    5645:	48 0f bf 55 fe       	movswq -0x2(%rbp),%rdx
    564a:	49 89 c4             	mov    %rax,%r12
    564d:	48 89 d0             	mov    %rdx,%rax
    5650:	49 8b 14 d6          	mov    (%r14,%rdx,8),%rdx
    5654:	ff e2                	jmp    *%rdx
    5656:	4c 89 23             	mov    %r12,(%rbx)
    5659:	31 ff                	xor    %edi,%edi
    565b:	4c 8d 7b 08          	lea    0x8(%rbx),%r15
    565f:	48 83 c5 02          	add    $0x2,%rbp
    5663:	4c 89 fb             	mov    %r15,%rbx
    5666:	e8 a5 db ff ff       	call   3210 <time@plt>
    566b:	48 0f bf 55 fe       	movswq -0x2(%rbp),%rdx
    5670:	49 89 c4             	mov    %rax,%r12
    5673:	48 89 d0             	mov    %rdx,%rax
    5676:	49 8b 14 d6          	mov    (%r14,%rdx,8),%rdx
    567a:	ff e2                	jmp    *%rdx
    567c:	e8 af dc ff ff       	call   3330 <rand@plt>
    5681:	48 83 c5 02          	add    $0x2,%rbp
    5685:	48 98                	cltq   
    5687:	48 99                	cqto   
    5689:	49 f7 fc             	idiv   %r12
    568c:	49 89 d4             	mov    %rdx,%r12
    568f:	48 0f bf 55 fe       	movswq -0x2(%rbp),%rdx
    5694:	48 89 d0             	mov    %rdx,%rax
    5697:	49 8b 14 d6          	mov    (%r14,%rdx,8),%rdx
    569b:	ff e2                	jmp    *%rdx
    569d:	44 89 e7             	mov    %r12d,%edi
    56a0:	48 83 eb 08          	sub    $0x8,%rbx
    56a4:	48 83 c5 02          	add    $0x2,%rbp
    56a8:	e8 93 dc ff ff       	call   3340 <usleep@plt>
    56ad:	48 0f bf 55 fe       	movswq -0x2(%rbp),%rdx
    56b2:	4c 8b 23             	mov    (%rbx),%r12
    56b5:	48 89 d0             	mov    %rdx,%rax
    56b8:	49 8b 14 d6          	mov    (%r14,%rdx,8),%rdx
    56bc:	ff e2                	jmp    *%rdx
    56be:	4c 89 e7             	mov    %r12,%rdi
    56c1:	48 83 eb 08          	sub    $0x8,%rbx
    56c5:	48 83 c5 02          	add    $0x2,%rbp
    56c9:	e8 12 da ff ff       	call   30e0 <strlen@plt>
    56ce:	48 8b 3d ab 9b 00 00 	mov    0x9bab(%rip),%rdi        # f280 <stderr@@GLIBC_2.2.5>
    56d5:	49 89 c7             	mov    %rax,%r15
    56d8:	e8 43 db ff ff       	call   3220 <fileno@plt>
    56dd:	4c 89 fa             	mov    %r15,%rdx
    56e0:	4c 89 e6             	mov    %r12,%rsi
    56e3:	89 c7                	mov    %eax,%edi
    56e5:	e8 b6 d9 ff ff       	call   30a0 <write@plt>
    56ea:	48 0f bf 55 fe       	movswq -0x2(%rbp),%rdx
    56ef:	4c 8b 23             	mov    (%rbx),%r12
    56f2:	48 89 d0             	mov    %rdx,%rax
    56f5:	49 8b 14 d6          	mov    (%r14,%rdx,8),%rdx
    56f9:	ff e2                	jmp    *%rdx
    56fb:	4d 85 e4             	test   %r12,%r12
    56fe:	0f 85 82 0f 00 00    	jne    6686 <main+0x3336>
    5704:	48 0f bf 55 00       	movswq 0x0(%rbp),%rdx
    5709:	48 83 eb 08          	sub    $0x8,%rbx
    570d:	48 83 c5 02          	add    $0x2,%rbp
    5711:	4c 8b 23             	mov    (%rbx),%r12
    5714:	48 89 d0             	mov    %rdx,%rax
    5717:	49 8b 14 d6          	mov    (%r14,%rdx,8),%rdx
    571b:	ff e2                	jmp    *%rdx
    571d:	49 8d 44 24 01       	lea    0x1(%r12),%rax
    5722:	48 0f bf 55 00       	movswq 0x0(%rbp),%rdx
    5727:	48 83 c5 02          	add    $0x2,%rbp
    572b:	48 6b c0 f8          	imul   $0xfffffffffffffff8,%rax,%rax
    572f:	4c 8b 24 03          	mov    (%rbx,%rax,1),%r12
    5733:	48 89 d0             	mov    %rdx,%rax
    5736:	49 8b 14 d6          	mov    (%r14,%rdx,8),%rdx
    573a:	ff e2                	jmp    *%rdx
    573c:	48 8d b4 24 88 00 00 	lea    0x88(%rsp),%rsi
    5743:	00 
    5744:	bf 76 00 00 00       	mov    $0x76,%edi
    5749:	48 83 c5 02          	add    $0x2,%rbp
    574d:	48 89 74 24 50       	mov    %rsi,0x50(%rsp)
    5752:	e8 19 19 00 00       	call   7070 <compile>
    5757:	48 8b 05 e2 20 23 00 	mov    0x2320e2(%rip),%rax        # 237840 <current>
    575e:	48 8b 74 24 50       	mov    0x50(%rsp),%rsi
    5763:	48 8b 38             	mov    (%rax),%rdi
    5766:	4c 29 ef             	sub    %r13,%rdi
    5769:	48 c1 ff 03          	sar    $0x3,%rdi
    576d:	66 69 ff ab aa       	imul   $0xaaab,%di,%di
    5772:	0f bf ff             	movswl %di,%edi
    5775:	e8 f6 18 00 00       	call   7070 <compile>
    577a:	48 8b 74 24 50       	mov    0x50(%rsp),%rsi
    577f:	bf 91 00 00 00       	mov    $0x91,%edi
    5784:	e8 e7 18 00 00       	call   7070 <compile>
    5789:	48 0f bf 55 fe       	movswq -0x2(%rbp),%rdx
    578e:	48 89 d0             	mov    %rdx,%rax
    5791:	49 8b 14 d6          	mov    (%r14,%rdx,8),%rdx
    5795:	ff e2                	jmp    *%rdx
    5797:	48 8b 05 e2 20 23 00 	mov    0x2320e2(%rip),%rax        # 237880 <source>
    579e:	48 89 84 24 a8 00 00 	mov    %rax,0xa8(%rsp)
    57a5:	00 
    57a6:	eb 1c                	jmp    57c4 <main+0x2474>
    57a8:	0f 1f 84 00 00 00 00 	nopl   0x0(%rax,%rax,1)
    57af:	00 
    57b0:	48 8d 50 01          	lea    0x1(%rax),%rdx
    57b4:	48 89 94 24 a8 00 00 	mov    %rdx,0xa8(%rsp)
    57bb:	00 
    57bc:	80 38 29             	cmpb   $0x29,(%rax)
    57bf:	74 08                	je     57c9 <main+0x2479>
    57c1:	48 89 d0             	mov    %rdx,%rax
    57c4:	80 38 00             	cmpb   $0x0,(%rax)
    57c7:	75 e7                	jne    57b0 <main+0x2460>
    57c9:	48 0f bf 55 00       	movswq 0x0(%rbp),%rdx
    57ce:	48 8b 84 24 a8 00 00 	mov    0xa8(%rsp),%rax
    57d5:	00 
    57d6:	48 83 c5 02          	add    $0x2,%rbp
    57da:	48 89 05 9f 20 23 00 	mov    %rax,0x23209f(%rip)        # 237880 <source>
    57e1:	48 89 d0             	mov    %rdx,%rax
    57e4:	49 8b 14 d6          	mov    (%r14,%rdx,8),%rdx
    57e8:	ff e2                	jmp    *%rdx
    57ea:	48 8b 05 8f 20 23 00 	mov    0x23208f(%rip),%rax        # 237880 <source>
    57f1:	48 89 84 24 a8 00 00 	mov    %rax,0xa8(%rsp)
    57f8:	00 
    57f9:	eb 19                	jmp    5814 <main+0x24c4>
    57fb:	0f 1f 44 00 00       	nopl   0x0(%rax,%rax,1)
    5800:	48 8d 50 01          	lea    0x1(%rax),%rdx
    5804:	48 89 94 24 a8 00 00 	mov    %rdx,0xa8(%rsp)
    580b:	00 
    580c:	80 38 0a             	cmpb   $0xa,(%rax)
    580f:	74 08                	je     5819 <main+0x24c9>
    5811:	48 89 d0             	mov    %rdx,%rax
    5814:	80 38 00             	cmpb   $0x0,(%rax)
    5817:	75 e7                	jne    5800 <main+0x24b0>
    5819:	48 0f bf 55 00       	movswq 0x0(%rbp),%rdx
    581e:	48 8b 84 24 a8 00 00 	mov    0xa8(%rsp),%rax
    5825:	00 
    5826:	48 83 c5 02          	add    $0x2,%rbp
    582a:	48 89 05 4f 20 23 00 	mov    %rax,0x23204f(%rip)        # 237880 <source>
    5831:	48 89 d0             	mov    %rdx,%rax
    5834:	49 8b 14 d6          	mov    (%r14,%rdx,8),%rdx
    5838:	ff e2                	jmp    *%rdx
    583a:	48 8b 43 f8          	mov    -0x8(%rbx),%rax
    583e:	48 8d bc 24 b0 00 00 	lea    0xb0(%rsp),%rdi
    5845:	00 
    5846:	48 83 eb 08          	sub    $0x8,%rbx
    584a:	48 83 c5 02          	add    $0x2,%rbp
    584e:	48 89 84 24 98 00 00 	mov    %rax,0x98(%rsp)
    5855:	00 
    5856:	48 8b 43 f8          	mov    -0x8(%rbx),%rax
    585a:	48 89 84 24 98 00 00 	mov    %rax,0x98(%rsp)
    5861:	00 
    5862:	e8 a9 1c 00 00       	call   7510 <label>
    5867:	48 8b 8c 24 88 00 00 	mov    0x88(%rsp),%rcx
    586e:	00 
    586f:	48 8d 15 ca 9f 00 00 	lea    0x9fca(%rip),%rdx        # f840 <body>
    5876:	48 8d 35 ad f6 ff ff 	lea    -0x953(%rip),%rsi        # 4f2a <main+0x1bda>
    587d:	48 0f bf c0          	movswq %ax,%rax
    5881:	48 8b bc 24 98 00 00 	mov    0x98(%rsp),%rdi
    5888:	00 
    5889:	48 89 0c c2          	mov    %rcx,(%rdx,%rax,8)
    588d:	49 89 34 c6          	mov    %rsi,(%r14,%rax,8)
    5891:	48 8d b4 24 88 00 00 	lea    0x88(%rsp),%rsi
    5898:	00 
    5899:	e8 32 19 00 00       	call   71d0 <ncompile>
    589e:	48 0f bf 55 fe       	movswq -0x2(%rbp),%rdx
    58a3:	4c 03 a4 24 98 00 00 	add    0x98(%rsp),%r12
    58aa:	00 
    58ab:	4c 89 a4 24 98 00 00 	mov    %r12,0x98(%rsp)
    58b2:	00 
    58b3:	48 89 d0             	mov    %rdx,%rax
    58b6:	49 8b 14 d6          	mov    (%r14,%rdx,8),%rdx
    58ba:	4c 89 63 f8          	mov    %r12,-0x8(%rbx)
    58be:	41 bc 03 00 00 00    	mov    $0x3,%r12d
    58c4:	ff e2                	jmp    *%rdx
    58c6:	48 c7 05 57 9f 00 00 	movq   $0x0,0x9f57(%rip)        # f828 <compile_last>
    58cd:	00 00 00 00 
    58d1:	48 c7 05 44 9f 00 00 	movq   $0x0,0x9f44(%rip)        # f820 <ncompile_last>
    58d8:	00 00 00 00 
    58dc:	49 83 fc 01          	cmp    $0x1,%r12
    58e0:	0f 84 39 0d 00 00    	je     661f <main+0x32cf>
    58e6:	4c 8d 7b f8          	lea    -0x8(%rbx),%r15
    58ea:	49 83 fc 02          	cmp    $0x2,%r12
    58ee:	0f 84 45 10 00 00    	je     6939 <main+0x35e9>
    58f4:	49 83 fc 03          	cmp    $0x3,%r12
    58f8:	0f 84 2a e9 ff ff    	je     4228 <main+0xed8>
    58fe:	49 83 ec 01          	sub    $0x1,%r12
    5902:	49 83 fc 01          	cmp    $0x1,%r12
    5906:	0f 86 30 0d 00 00    	jbe    663c <main+0x32ec>
    590c:	48 0f bf 55 00       	movswq 0x0(%rbp),%rdx
    5911:	4c 8b 63 f8          	mov    -0x8(%rbx),%r12
    5915:	48 83 c5 02          	add    $0x2,%rbp
    5919:	4c 89 fb             	mov    %r15,%rbx
    591c:	48 89 d0             	mov    %rdx,%rax
    591f:	49 8b 14 d6          	mov    (%r14,%rdx,8),%rdx
    5923:	ff e2                	jmp    *%rdx
    5925:	4c 89 23             	mov    %r12,(%rbx)
    5928:	48 83 3d 48 1f 23 00 	cmpq   $0x0,0x231f48(%rip)        # 237878 <mode>
    592f:	00 
    5930:	0f 85 b7 0c 00 00    	jne    65ed <main+0x329d>
    5936:	48 8b 84 24 88 00 00 	mov    0x88(%rsp),%rax
    593d:	00 
    593e:	48 c7 43 08 ff ff ff 	movq   $0xffffffffffffffff,0x8(%rbx)
    5945:	ff 
    5946:	4c 8d 63 18          	lea    0x18(%rbx),%r12
    594a:	48 8d b4 24 88 00 00 	lea    0x88(%rsp),%rsi
    5951:	00 
    5952:	48 89 43 10          	mov    %rax,0x10(%rbx)
    5956:	bf 7b 00 00 00       	mov    $0x7b,%edi
    595b:	48 89 74 24 50       	mov    %rsi,0x50(%rsp)
    5960:	49 8d 5c 24 08       	lea    0x8(%r12),%rbx
    5965:	48 83 c5 02          	add    $0x2,%rbp
    5969:	48 83 05 07 1f 23 00 	addq   $0x1,0x231f07(%rip)        # 237878 <mode>
    5970:	01 
    5971:	e8 fa 16 00 00       	call   7070 <compile>
    5976:	48 8b 74 24 50       	mov    0x50(%rsp),%rsi
    597b:	31 ff                	xor    %edi,%edi
    597d:	4c 8b bc 24 88 00 00 	mov    0x88(%rsp),%r15
    5984:	00 
    5985:	e8 e6 16 00 00       	call   7070 <compile>
    598a:	48 0f bf 55 fe       	movswq -0x2(%rbp),%rdx
    598f:	4d 89 3c 24          	mov    %r15,(%r12)
    5993:	41 bc 02 00 00 00    	mov    $0x2,%r12d
    5999:	48 89 d0             	mov    %rdx,%rax
    599c:	49 8b 14 d6          	mov    (%r14,%rdx,8),%rdx
    59a0:	ff e2                	jmp    *%rdx
    59a2:	4c 89 23             	mov    %r12,(%rbx)
    59a5:	48 8b 05 cc 1e 23 00 	mov    0x231ecc(%rip),%rax        # 237878 <mode>
    59ac:	4c 8d 63 08          	lea    0x8(%rbx),%r12
    59b0:	48 85 c0             	test   %rax,%rax
    59b3:	0f 84 09 0a 00 00    	je     63c2 <main+0x3072>
    59b9:	48 83 c0 01          	add    $0x1,%rax
    59bd:	bf 7b 00 00 00       	mov    $0x7b,%edi
    59c2:	49 8d 5c 24 08       	lea    0x8(%r12),%rbx
    59c7:	48 83 c5 02          	add    $0x2,%rbp
    59cb:	48 8d b4 24 88 00 00 	lea    0x88(%rsp),%rsi
    59d2:	00 
    59d3:	48 89 05 9e 1e 23 00 	mov    %rax,0x231e9e(%rip)        # 237878 <mode>
    59da:	48 89 74 24 50       	mov    %rsi,0x50(%rsp)
    59df:	e8 8c 16 00 00       	call   7070 <compile>
    59e4:	48 8b 74 24 50       	mov    0x50(%rsp),%rsi
    59e9:	31 ff                	xor    %edi,%edi
    59eb:	4c 8b bc 24 88 00 00 	mov    0x88(%rsp),%r15
    59f2:	00 
    59f3:	e8 78 16 00 00       	call   7070 <compile>
    59f8:	48 0f bf 55 fe       	movswq -0x2(%rbp),%rdx
    59fd:	4d 89 3c 24          	mov    %r15,(%r12)
    5a01:	41 bc 02 00 00 00    	mov    $0x2,%r12d
    5a07:	48 89 d0             	mov    %rdx,%rax
    5a0a:	49 8b 14 d6          	mov    (%r14,%rdx,8),%rdx
    5a0e:	ff e2                	jmp    *%rdx
    5a10:	48 8d b4 24 88 00 00 	lea    0x88(%rsp),%rsi
    5a17:	00 
    5a18:	bf 7a 00 00 00       	mov    $0x7a,%edi
    5a1d:	4c 8b 63 f8          	mov    -0x8(%rbx),%r12
    5a21:	48 83 c5 02          	add    $0x2,%rbp
    5a25:	48 89 74 24 50       	mov    %rsi,0x50(%rsp)
    5a2a:	e8 41 16 00 00       	call   7070 <compile>
    5a2f:	48 8b 74 24 50       	mov    0x50(%rsp),%rsi
    5a34:	31 ff                	xor    %edi,%edi
    5a36:	4c 8b bc 24 88 00 00 	mov    0x88(%rsp),%r15
    5a3d:	00 
    5a3e:	e8 2d 16 00 00       	call   7070 <compile>
    5a43:	48 8b 84 24 88 00 00 	mov    0x88(%rsp),%rax
    5a4a:	00 
    5a4b:	4c 89 7b f8          	mov    %r15,-0x8(%rbx)
    5a4f:	4c 29 e0             	sub    %r12,%rax
    5a52:	66 41 89 04 24       	mov    %ax,(%r12)
    5a57:	48 0f bf 55 fe       	movswq -0x2(%rbp),%rdx
    5a5c:	41 bc 01 00 00 00    	mov    $0x1,%r12d
    5a62:	48 89 d0             	mov    %rdx,%rax
    5a65:	49 8b 14 d6          	mov    (%r14,%rdx,8),%rdx
    5a69:	ff e2                	jmp    *%rdx
    5a6b:	4c 89 23             	mov    %r12,(%rbx)
    5a6e:	48 8d b4 24 88 00 00 	lea    0x88(%rsp),%rsi
    5a75:	00 
    5a76:	bf 79 00 00 00       	mov    $0x79,%edi
    5a7b:	48 89 74 24 50       	mov    %rsi,0x50(%rsp)
    5a80:	e8 eb 15 00 00       	call   7070 <compile>
    5a85:	48 83 3d eb 1d 23 00 	cmpq   $0x0,0x231deb(%rip)        # 237878 <mode>
    5a8c:	00 
    5a8d:	48 8b 74 24 50       	mov    0x50(%rsp),%rsi
    5a92:	0f 84 11 09 00 00    	je     63a9 <main+0x3059>
    5a98:	4c 8b bc 24 88 00 00 	mov    0x88(%rsp),%r15
    5a9f:	00 
    5aa0:	4c 8d 63 08          	lea    0x8(%rbx),%r12
    5aa4:	31 ff                	xor    %edi,%edi
    5aa6:	49 8d 5c 24 08       	lea    0x8(%r12),%rbx
    5aab:	48 83 c5 02          	add    $0x2,%rbp
    5aaf:	e8 bc 15 00 00       	call   7070 <compile>
    5ab4:	48 0f bf 55 fe       	movswq -0x2(%rbp),%rdx
    5ab9:	4d 89 3c 24          	mov    %r15,(%r12)
    5abd:	41 bc 01 00 00 00    	mov    $0x1,%r12d
    5ac3:	48 83 05 ad 1d 23 00 	addq   $0x1,0x231dad(%rip)        # 237878 <mode>
    5aca:	01 
    5acb:	48 89 d0             	mov    %rdx,%rax
    5ace:	49 8b 14 d6          	mov    (%r14,%rdx,8),%rdx
    5ad2:	ff e2                	jmp    *%rdx
    5ad4:	48 8b 84 24 88 00 00 	mov    0x88(%rsp),%rax
    5adb:	00 
    5adc:	48 8b 15 45 9d 00 00 	mov    0x9d45(%rip),%rdx        # f828 <compile_last>
    5ae3:	48 8d 48 fe          	lea    -0x2(%rax),%rcx
    5ae7:	48 39 ca             	cmp    %rcx,%rdx
    5aea:	0f 84 06 09 00 00    	je     63f6 <main+0x30a6>
    5af0:	48 8d b4 24 88 00 00 	lea    0x88(%rsp),%rsi
    5af7:	00 
    5af8:	bf 02 00 00 00       	mov    $0x2,%edi
    5afd:	e8 6e 15 00 00       	call   7070 <compile>
    5b02:	48 83 2d 6e 1d 23 00 	subq   $0x1,0x231d6e(%rip)        # 237878 <mode>
    5b09:	01 
    5b0a:	48 8b 84 24 88 00 00 	mov    0x88(%rsp),%rax
    5b11:	00 
    5b12:	48 8d 4b f8          	lea    -0x8(%rbx),%rcx
    5b16:	48 8b 53 f8          	mov    -0x8(%rbx),%rdx
    5b1a:	48 29 d0             	sub    %rdx,%rax
    5b1d:	66 89 02             	mov    %ax,(%rdx)
    5b20:	49 6b c4 18          	imul   $0x18,%r12,%rax
    5b24:	48 8b 15 1d 1d 23 00 	mov    0x231d1d(%rip),%rdx        # 237848 <normal>
    5b2b:	49 89 54 05 10       	mov    %rdx,0x10(%r13,%rax,1)
    5b30:	48 8b 05 19 1d 23 00 	mov    0x231d19(%rip),%rax        # 237850 <macro>
    5b37:	48 39 c2             	cmp    %rax,%rdx
    5b3a:	73 14                	jae    5b50 <main+0x2800>
    5b3c:	0f 1f 40 00          	nopl   0x0(%rax)
    5b40:	48 8b 40 08          	mov    0x8(%rax),%rax
    5b44:	48 39 c2             	cmp    %rax,%rdx
    5b47:	72 f7                	jb     5b40 <main+0x27f0>
    5b49:	48 89 05 00 1d 23 00 	mov    %rax,0x231d00(%rip)        # 237850 <macro>
    5b50:	48 83 79 f8 00       	cmpq   $0x0,-0x8(%rcx)
    5b55:	48 8d 15 f4 1c 23 00 	lea    0x231cf4(%rip),%rdx        # 237850 <macro>
    5b5c:	48 8d 05 e5 1c 23 00 	lea    0x231ce5(%rip),%rax        # 237848 <normal>
    5b63:	48 0f 44 c2          	cmove  %rdx,%rax
    5b67:	49 6b d4 18          	imul   $0x18,%r12,%rdx
    5b6b:	48 8d 59 f0          	lea    -0x10(%rcx),%rbx
    5b6f:	4c 8b 61 f0          	mov    -0x10(%rcx),%r12
    5b73:	48 c7 05 aa 9c 00 00 	movq   $0x0,0x9caa(%rip)        # f828 <compile_last>
    5b7a:	00 00 00 00 
    5b7e:	48 83 c5 02          	add    $0x2,%rbp
    5b82:	48 89 05 b7 1c 23 00 	mov    %rax,0x231cb7(%rip)        # 237840 <current>
    5b89:	48 c7 05 8c 9c 00 00 	movq   $0x0,0x9c8c(%rip)        # f820 <ncompile_last>
    5b90:	00 00 00 00 
    5b94:	4c 01 ea             	add    %r13,%rdx
    5b97:	48 89 10             	mov    %rdx,(%rax)
    5b9a:	48 0f bf 55 fe       	movswq -0x2(%rbp),%rdx
    5b9f:	48 89 d0             	mov    %rdx,%rax
    5ba2:	49 8b 14 d6          	mov    (%r14,%rdx,8),%rdx
    5ba6:	ff e2                	jmp    *%rdx
    5ba8:	4c 89 23             	mov    %r12,(%rbx)
    5bab:	48 8d 05 96 1c 23 00 	lea    0x231c96(%rip),%rax        # 237848 <normal>
    5bb2:	bf 7a 00 00 00       	mov    $0x7a,%edi
    5bb7:	48 8d b4 24 88 00 00 	lea    0x88(%rsp),%rsi
    5bbe:	00 
    5bbf:	48 83 05 b1 1c 23 00 	addq   $0x1,0x231cb1(%rip)        # 237878 <mode>
    5bc6:	01 
    5bc7:	48 39 05 72 1c 23 00 	cmp    %rax,0x231c72(%rip)        # 237840 <current>
    5bce:	4c 8d 7b 18          	lea    0x18(%rbx),%r15
    5bd2:	0f 94 c0             	sete   %al
    5bd5:	48 89 74 24 50       	mov    %rsi,0x50(%rsp)
    5bda:	48 83 c5 02          	add    $0x2,%rbp
    5bde:	0f b6 c0             	movzbl %al,%eax
    5be1:	48 89 43 08          	mov    %rax,0x8(%rbx)
    5be5:	e8 86 14 00 00       	call   7070 <compile>
    5bea:	4c 8b a4 24 88 00 00 	mov    0x88(%rsp),%r12
    5bf1:	00 
    5bf2:	48 8b 74 24 50       	mov    0x50(%rsp),%rsi
    5bf7:	31 ff                	xor    %edi,%edi
    5bf9:	e8 72 14 00 00       	call   7070 <compile>
    5bfe:	4c 89 63 10          	mov    %r12,0x10(%rbx)
    5c02:	48 8d bc 24 b0 00 00 	lea    0xb0(%rsp),%rdi
    5c09:	00 
    5c0a:	48 8d 1d f2 f3 ff ff 	lea    -0xc0e(%rip),%rbx        # 5003 <main+0x1cb3>
    5c11:	e8 fa 18 00 00       	call   7510 <label>
    5c16:	48 8b b4 24 88 00 00 	mov    0x88(%rsp),%rsi
    5c1d:	00 
    5c1e:	48 8d 0d 1b 9c 00 00 	lea    0x9c1b(%rip),%rcx        # f840 <body>
    5c25:	48 0f bf d0          	movswq %ax,%rdx
    5c29:	48 8d 05 18 1c 23 00 	lea    0x231c18(%rip),%rax        # 237848 <normal>
    5c30:	49 89 1c d6          	mov    %rbx,(%r14,%rdx,8)
    5c34:	49 89 d4             	mov    %rdx,%r12
    5c37:	4c 89 fb             	mov    %r15,%rbx
    5c3a:	48 89 34 d1          	mov    %rsi,(%rcx,%rdx,8)
    5c3e:	48 0f bf 55 fe       	movswq -0x2(%rbp),%rdx
    5c43:	48 89 05 f6 1b 23 00 	mov    %rax,0x231bf6(%rip)        # 237840 <current>
    5c4a:	48 89 d0             	mov    %rdx,%rax
    5c4d:	49 8b 14 d6          	mov    (%r14,%rdx,8),%rdx
    5c51:	ff e2                	jmp    *%rdx
    5c53:	48 8b 43 f8          	mov    -0x8(%rbx),%rax
    5c57:	48 83 c5 02          	add    $0x2,%rbp
    5c5b:	48 99                	cqto   
    5c5d:	48 89 84 24 98 00 00 	mov    %rax,0x98(%rsp)
    5c64:	00 
    5c65:	49 f7 fc             	idiv   %r12
    5c68:	48 89 53 f8          	mov    %rdx,-0x8(%rbx)
    5c6c:	48 8b 84 24 98 00 00 	mov    0x98(%rsp),%rax
    5c73:	00 
    5c74:	48 99                	cqto   
    5c76:	49 f7 fc             	idiv   %r12
    5c79:	48 0f bf 55 fe       	movswq -0x2(%rbp),%rdx
    5c7e:	49 89 c4             	mov    %rax,%r12
    5c81:	48 89 d0             	mov    %rdx,%rax
    5c84:	49 8b 14 d6          	mov    (%r14,%rdx,8),%rdx
    5c88:	ff e2                	jmp    *%rdx
    5c8a:	48 0f bf 55 00       	movswq 0x0(%rbp),%rdx
    5c8f:	4c 89 e0             	mov    %r12,%rax
    5c92:	48 f7 d8             	neg    %rax
    5c95:	4c 0f 49 e0          	cmovns %rax,%r12
    5c99:	48 89 d0             	mov    %rdx,%rax
    5c9c:	49 8b 14 d6          	mov    (%r14,%rdx,8),%rdx
    5ca0:	48 83 c5 02          	add    $0x2,%rbp
    5ca4:	ff e2                	jmp    *%rdx
    5ca6:	4c 8d 7b f8          	lea    -0x8(%rbx),%r15
    5caa:	48 8b 5b f8          	mov    -0x8(%rbx),%rbx
    5cae:	48 89 9c 24 98 00 00 	mov    %rbx,0x98(%rsp)
    5cb5:	00 
    5cb6:	48 85 db             	test   %rbx,%rbx
    5cb9:	0f 85 92 07 00 00    	jne    6451 <main+0x3101>
    5cbf:	41 c6 04 24 00       	movb   $0x0,(%r12)
    5cc4:	48 0f bf 55 00       	movswq 0x0(%rbp),%rdx
    5cc9:	4d 8b 67 f8          	mov    -0x8(%r15),%r12
    5ccd:	49 8d 5f f8          	lea    -0x8(%r15),%rbx
    5cd1:	48 83 c5 02          	add    $0x2,%rbp
    5cd5:	48 89 d0             	mov    %rdx,%rax
    5cd8:	49 8b 14 d6          	mov    (%r14,%rdx,8),%rdx
    5cdc:	ff e2                	jmp    *%rdx
    5cde:	48 0f bf 55 00       	movswq 0x0(%rbp),%rdx
    5ce3:	48 83 c5 02          	add    $0x2,%rbp
    5ce7:	48 89 d0             	mov    %rdx,%rax
    5cea:	49 8b 14 d6          	mov    (%r14,%rdx,8),%rdx
    5cee:	ff e2                	jmp    *%rdx
    5cf0:	48 0f bf 55 00       	movswq 0x0(%rbp),%rdx
    5cf5:	49 c1 e4 03          	shl    $0x3,%r12
    5cf9:	48 83 c5 02          	add    $0x2,%rbp
    5cfd:	48 89 d0             	mov    %rdx,%rax
    5d00:	49 8b 14 d6          	mov    (%r14,%rdx,8),%rdx
    5d04:	ff e2                	jmp    *%rdx
    5d06:	48 8b 84 24 88 00 00 	mov    0x88(%rsp),%rax
    5d0d:	00 
    5d0e:	48 8d 15 2b 1b 23 00 	lea    0x231b2b(%rip),%rdx        # 237840 <current>
    5d15:	48 8d 48 02          	lea    0x2(%rax),%rcx
    5d19:	48 39 d1             	cmp    %rdx,%rcx
    5d1c:	0f 83 0a 0e 00 00    	jae    6b2c <main+0x37dc>
    5d22:	44 88 20             	mov    %r12b,(%rax)
    5d25:	48 0f bf 55 00       	movswq 0x0(%rbp),%rdx
    5d2a:	48 83 eb 08          	sub    $0x8,%rbx
    5d2e:	48 83 c5 02          	add    $0x2,%rbp
    5d32:	48 83 84 24 88 00 00 	addq   $0x1,0x88(%rsp)
    5d39:	00 01 
    5d3b:	4c 8b 23             	mov    (%rbx),%r12
    5d3e:	48 89 d0             	mov    %rdx,%rax
    5d41:	49 8b 14 d6          	mov    (%r14,%rdx,8),%rdx
    5d45:	ff e2                	jmp    *%rdx
    5d47:	48 8b 84 24 88 00 00 	mov    0x88(%rsp),%rax
    5d4e:	00 
    5d4f:	48 8d 15 ea 1a 23 00 	lea    0x231aea(%rip),%rdx        # 237840 <current>
    5d56:	48 83 c0 10          	add    $0x10,%rax
    5d5a:	48 39 d0             	cmp    %rdx,%rax
    5d5d:	0f 83 c9 0d 00 00    	jae    6b2c <main+0x37dc>
    5d63:	4c 89 e7             	mov    %r12,%rdi
    5d66:	48 8d b4 24 88 00 00 	lea    0x88(%rsp),%rsi
    5d6d:	00 
    5d6e:	48 83 eb 08          	sub    $0x8,%rbx
    5d72:	48 83 c5 02          	add    $0x2,%rbp
    5d76:	e8 55 14 00 00       	call   71d0 <ncompile>
    5d7b:	48 0f bf 55 fe       	movswq -0x2(%rbp),%rdx
    5d80:	4c 8b 23             	mov    (%rbx),%r12
    5d83:	48 89 d0             	mov    %rdx,%rax
    5d86:	49 8b 14 d6          	mov    (%r14,%rdx,8),%rdx
    5d8a:	ff e2                	jmp    *%rdx
    5d8c:	48 8b bc 24 88 00 00 	mov    0x88(%rsp),%rdi
    5d93:	00 
    5d94:	4b 8d 04 24          	lea    (%r12,%r12,1),%rax
    5d98:	48 8d 15 a1 1a 23 00 	lea    0x231aa1(%rip),%rdx        # 237840 <current>
    5d9f:	48 01 f8             	add    %rdi,%rax
    5da2:	48 39 d0             	cmp    %rdx,%rax
    5da5:	0f 83 81 0d 00 00    	jae    6b2c <main+0x37dc>
    5dab:	4c 89 e2             	mov    %r12,%rdx
    5dae:	31 f6                	xor    %esi,%esi
    5db0:	48 83 eb 08          	sub    $0x8,%rbx
    5db4:	48 83 c5 02          	add    $0x2,%rbp
    5db8:	e8 73 d3 ff ff       	call   3130 <memset@plt>
    5dbd:	48 0f bf 55 fe       	movswq -0x2(%rbp),%rdx
    5dc2:	4c 01 a4 24 88 00 00 	add    %r12,0x88(%rsp)
    5dc9:	00 
    5dca:	4c 8b 23             	mov    (%rbx),%r12
    5dcd:	48 89 d0             	mov    %rdx,%rax
    5dd0:	49 8b 14 d6          	mov    (%r14,%rdx,8),%rdx
    5dd4:	ff e2                	jmp    *%rdx
    5dd6:	48 0f bf 55 00       	movswq 0x0(%rbp),%rdx
    5ddb:	4c 89 23             	mov    %r12,(%rbx)
    5dde:	48 83 c5 02          	add    $0x2,%rbp
    5de2:	48 83 c3 08          	add    $0x8,%rbx
    5de6:	4c 8d 25 53 1a 23 00 	lea    0x231a53(%rip),%r12        # 237840 <current>
    5ded:	4c 2b a4 24 88 00 00 	sub    0x88(%rsp),%r12
    5df4:	00 
    5df5:	48 89 d0             	mov    %rdx,%rax
    5df8:	49 8b 14 d6          	mov    (%r14,%rdx,8),%rdx
    5dfc:	49 d1 fc             	sar    %r12
    5dff:	ff e2                	jmp    *%rdx
    5e01:	48 0f bf 55 00       	movswq 0x0(%rbp),%rdx
    5e06:	4c 89 23             	mov    %r12,(%rbx)
    5e09:	48 83 c5 02          	add    $0x2,%rbp
    5e0d:	48 83 c3 08          	add    $0x8,%rbx
    5e11:	4c 8b a4 24 88 00 00 	mov    0x88(%rsp),%r12
    5e18:	00 
    5e19:	48 8d 05 20 1a 03 00 	lea    0x31a20(%rip),%rax        # 37840 <code>
    5e20:	49 29 c4             	sub    %rax,%r12
    5e23:	48 89 d0             	mov    %rdx,%rax
    5e26:	49 8b 14 d6          	mov    (%r14,%rdx,8),%rdx
    5e2a:	49 d1 fc             	sar    %r12
    5e2d:	ff e2                	jmp    *%rdx
    5e2f:	48 0f bf 55 00       	movswq 0x0(%rbp),%rdx
    5e34:	4c 89 23             	mov    %r12,(%rbx)
    5e37:	48 83 c5 02          	add    $0x2,%rbp
    5e3b:	48 83 c3 08          	add    $0x8,%rbx
    5e3f:	4c 8b a4 24 88 00 00 	mov    0x88(%rsp),%r12
    5e46:	00 
    5e47:	48 89 d0             	mov    %rdx,%rax
    5e4a:	49 8b 14 d6          	mov    (%r14,%rdx,8),%rdx
    5e4e:	ff e2                	jmp    *%rdx
    5e50:	48 0f bf 55 00       	movswq 0x0(%rbp),%rdx
    5e55:	48 89 d8             	mov    %rbx,%rax
    5e58:	48 83 c3 08          	add    $0x8,%rbx
    5e5c:	48 83 c5 02          	add    $0x2,%rbp
    5e60:	4c 89 20             	mov    %r12,(%rax)
    5e63:	49 89 dc             	mov    %rbx,%r12
    5e66:	4c 2b 64 24 38       	sub    0x38(%rsp),%r12
    5e6b:	48 89 d0             	mov    %rdx,%rax
    5e6e:	49 8b 14 d6          	mov    (%r14,%rdx,8),%rdx
    5e72:	49 c1 fc 03          	sar    $0x3,%r12
    5e76:	49 83 ec 03          	sub    $0x3,%r12
    5e7a:	ff e2                	jmp    *%rdx
    5e7c:	48 c7 84 24 a0 00 00 	movq   $0x0,0xa0(%rsp)
    5e83:	00 00 00 00 00 
    5e88:	4d 85 e4             	test   %r12,%r12
    5e8b:	74 13                	je     5ea0 <main+0x2b50>
    5e8d:	4c 89 e7             	mov    %r12,%rdi
    5e90:	48 8d b4 24 a0 00 00 	lea    0xa0(%rsp),%rsi
    5e97:	00 
    5e98:	e8 c3 0f 00 00       	call   6e60 <number.part.0>
    5e9d:	49 89 c4             	mov    %rax,%r12
    5ea0:	48 0f bf 55 00       	movswq 0x0(%rbp),%rdx
    5ea5:	48 8b 84 24 a0 00 00 	mov    0xa0(%rsp),%rax
    5eac:	00 
    5ead:	48 83 c3 08          	add    $0x8,%rbx
    5eb1:	48 83 c5 02          	add    $0x2,%rbp
    5eb5:	48 89 43 f8          	mov    %rax,-0x8(%rbx)
    5eb9:	48 89 d0             	mov    %rdx,%rax
    5ebc:	49 8b 14 d6          	mov    (%r14,%rdx,8),%rdx
    5ec0:	ff e2                	jmp    *%rdx
    5ec2:	48 8b 73 f8          	mov    -0x8(%rbx),%rsi
    5ec6:	48 8d 94 24 b8 00 00 	lea    0xb8(%rsp),%rdx
    5ecd:	00 
    5ece:	4c 89 e7             	mov    %r12,%rdi
    5ed1:	48 83 c5 02          	add    $0x2,%rbp
    5ed5:	e8 d6 19 00 00       	call   78b0 <findpair>
    5eda:	48 0f bf 55 fe       	movswq -0x2(%rbp),%rdx
    5edf:	4c 0f bf e0          	movswq %ax,%r12
    5ee3:	48 0f bf 84 24 b8 00 	movswq 0xb8(%rsp),%rax
    5eea:	00 00 
    5eec:	48 89 43 f8          	mov    %rax,-0x8(%rbx)
    5ef0:	48 89 d0             	mov    %rdx,%rax
    5ef3:	49 8b 14 d6          	mov    (%r14,%rdx,8),%rdx
    5ef7:	ff e2                	jmp    *%rdx
    5ef9:	48 8b 73 f8          	mov    -0x8(%rbx),%rsi
    5efd:	48 83 eb 08          	sub    $0x8,%rbx
    5f01:	31 c0                	xor    %eax,%eax
    5f03:	80 3e 00             	cmpb   $0x0,(%rsi)
    5f06:	0f 85 90 04 00 00    	jne    639c <main+0x304c>
    5f0c:	48 0f bf 55 00       	movswq 0x0(%rbp),%rdx
    5f11:	4c 0f bf e0          	movswq %ax,%r12
    5f15:	48 83 c5 02          	add    $0x2,%rbp
    5f19:	48 89 d0             	mov    %rdx,%rax
    5f1c:	49 8b 14 d6          	mov    (%r14,%rdx,8),%rdx
    5f20:	ff e2                	jmp    *%rdx
    5f22:	4c 89 e7             	mov    %r12,%rdi
    5f25:	48 8d b4 24 90 00 00 	lea    0x90(%rsp),%rsi
    5f2c:	00 
    5f2d:	48 89 9c 24 90 00 00 	mov    %rbx,0x90(%rsp)
    5f34:	00 
    5f35:	48 83 c5 02          	add    $0x2,%rbp
    5f39:	e8 42 16 00 00       	call   7580 <format>
    5f3e:	48 0f bf 55 fe       	movswq -0x2(%rbp),%rdx
    5f43:	48 8b 9c 24 90 00 00 	mov    0x90(%rsp),%rbx
    5f4a:	00 
    5f4b:	49 89 c4             	mov    %rax,%r12
    5f4e:	48 89 d0             	mov    %rdx,%rax
    5f51:	49 8b 14 d6          	mov    (%r14,%rdx,8),%rdx
    5f55:	ff e2                	jmp    *%rdx
    5f57:	4c 8b 7b f8          	mov    -0x8(%rbx),%r15
    5f5b:	48 83 eb 08          	sub    $0x8,%rbx
    5f5f:	48 83 c5 02          	add    $0x2,%rbp
    5f63:	4c 89 ff             	mov    %r15,%rdi
    5f66:	4c 89 bc 24 a8 00 00 	mov    %r15,0xa8(%rsp)
    5f6d:	00 
    5f6e:	e8 6d d1 ff ff       	call   30e0 <strlen@plt>
    5f73:	4c 89 e7             	mov    %r12,%rdi
    5f76:	4c 89 fe             	mov    %r15,%rsi
    5f79:	89 c2                	mov    %eax,%edx
    5f7b:	e8 90 10 00 00       	call   7010 <blurt>
    5f80:	48 0f bf 55 fe       	movswq -0x2(%rbp),%rdx
    5f85:	4c 63 e0             	movslq %eax,%r12
    5f88:	48 89 d0             	mov    %rdx,%rax
    5f8b:	49 8b 14 d6          	mov    (%r14,%rdx,8),%rdx
    5f8f:	ff e2                	jmp    *%rdx
    5f91:	4c 89 e7             	mov    %r12,%rdi
    5f94:	48 83 c5 02          	add    $0x2,%rbp
    5f98:	e8 d3 0f 00 00       	call   6f70 <slurp>
    5f9d:	48 0f bf 55 fe       	movswq -0x2(%rbp),%rdx
    5fa2:	49 89 c4             	mov    %rax,%r12
    5fa5:	48 89 d0             	mov    %rdx,%rax
    5fa8:	49 8b 14 d6          	mov    (%r14,%rdx,8),%rdx
    5fac:	ff e2                	jmp    *%rdx
    5fae:	4c 89 e7             	mov    %r12,%rdi
    5fb1:	48 83 eb 08          	sub    $0x8,%rbx
    5fb5:	48 83 c5 02          	add    $0x2,%rbp
    5fb9:	e8 82 d0 ff ff       	call   3040 <free@plt>
    5fbe:	48 0f bf 55 fe       	movswq -0x2(%rbp),%rdx
    5fc3:	4c 8b 23             	mov    (%rbx),%r12
    5fc6:	48 89 d0             	mov    %rdx,%rax
    5fc9:	49 8b 14 d6          	mov    (%r14,%rdx,8),%rdx
    5fcd:	ff e2                	jmp    *%rdx
    5fcf:	48 8b 7b f8          	mov    -0x8(%rbx),%rdi
    5fd3:	4c 89 e6             	mov    %r12,%rsi
    5fd6:	48 83 eb 08          	sub    $0x8,%rbx
    5fda:	48 83 c5 02          	add    $0x2,%rbp
    5fde:	e8 6d d2 ff ff       	call   3250 <realloc@plt>
    5fe3:	48 0f bf 55 fe       	movswq -0x2(%rbp),%rdx
    5fe8:	49 89 c4             	mov    %rax,%r12
    5feb:	48 89 d0             	mov    %rdx,%rax
    5fee:	49 8b 14 d6          	mov    (%r14,%rdx,8),%rdx
    5ff2:	ff e2                	jmp    *%rdx
    5ff4:	49 83 fc 07          	cmp    $0x7,%r12
    5ff8:	77 06                	ja     6000 <main+0x2cb0>
    5ffa:	41 bc 08 00 00 00    	mov    $0x8,%r12d
    6000:	4c 89 e6             	mov    %r12,%rsi
    6003:	bf 01 00 00 00       	mov    $0x1,%edi
    6008:	48 83 c5 02          	add    $0x2,%rbp
    600c:	e8 af d1 ff ff       	call   31c0 <calloc@plt>
    6011:	48 0f bf 55 fe       	movswq -0x2(%rbp),%rdx
    6016:	49 89 c4             	mov    %rax,%r12
    6019:	48 89 d0             	mov    %rdx,%rax
    601c:	49 8b 14 d6          	mov    (%r14,%rdx,8),%rdx
    6020:	ff e2                	jmp    *%rdx
    6022:	48 0f bf 55 00       	movswq 0x0(%rbp),%rdx
    6027:	4c 89 23             	mov    %r12,(%rbx)
    602a:	48 83 c5 02          	add    $0x2,%rbp
    602e:	48 83 c3 08          	add    $0x8,%rbx
    6032:	4c 8d 25 2f 18 23 00 	lea    0x23182f(%rip),%r12        # 237868 <on_error>
    6039:	48 89 d0             	mov    %rdx,%rax
    603c:	49 8b 14 d6          	mov    (%r14,%rdx,8),%rdx
    6040:	ff e2                	jmp    *%rdx
    6042:	48 0f bf 55 00       	movswq 0x0(%rbp),%rdx
    6047:	4c 89 23             	mov    %r12,(%rbx)
    604a:	48 83 c5 02          	add    $0x2,%rbp
    604e:	48 83 c3 08          	add    $0x8,%rbx
    6052:	4c 8d 25 ff 17 23 00 	lea    0x2317ff(%rip),%r12        # 237858 <on_eval>
    6059:	48 89 d0             	mov    %rdx,%rax
    605c:	49 8b 14 d6          	mov    (%r14,%rdx,8),%rdx
    6060:	ff e2                	jmp    *%rdx
    6062:	48 0f bf 55 00       	movswq 0x0(%rbp),%rdx
    6067:	4c 89 23             	mov    %r12,(%rbx)
    606a:	48 83 c5 02          	add    $0x2,%rbp
    606e:	48 83 c3 08          	add    $0x8,%rbx
    6072:	4c 8d 25 e7 17 23 00 	lea    0x2317e7(%rip),%r12        # 237860 <on_what>
    6079:	48 89 d0             	mov    %rdx,%rax
    607c:	49 8b 14 d6          	mov    (%r14,%rdx,8),%rdx
    6080:	ff e2                	jmp    *%rdx
    6082:	48 0f bf 55 00       	movswq 0x0(%rbp),%rdx
    6087:	4c 89 23             	mov    %r12,(%rbx)
    608a:	48 83 c5 02          	add    $0x2,%rbp
    608e:	48 83 c3 08          	add    $0x8,%rbx
    6092:	4c 8d 25 d7 17 23 00 	lea    0x2317d7(%rip),%r12        # 237870 <on_ok>
    6099:	48 89 d0             	mov    %rdx,%rax
    609c:	49 8b 14 d6          	mov    (%r14,%rdx,8),%rdx
    60a0:	ff e2                	jmp    *%rdx
    60a2:	4c 89 e7             	mov    %r12,%rdi
    60a5:	48 83 eb 08          	sub    $0x8,%rbx
    60a9:	48 83 c5 02          	add    $0x2,%rbp
    60ad:	e8 1e d1 ff ff       	call   31d0 <putenv@plt>
    60b2:	48 0f bf 55 fe       	movswq -0x2(%rbp),%rdx
    60b7:	4c 8b 23             	mov    (%rbx),%r12
    60ba:	48 89 d0             	mov    %rdx,%rax
    60bd:	49 8b 14 d6          	mov    (%r14,%rdx,8),%rdx
    60c1:	ff e2                	jmp    *%rdx
    60c3:	4c 89 e7             	mov    %r12,%rdi
    60c6:	48 83 c5 02          	add    $0x2,%rbp
    60ca:	e8 61 cf ff ff       	call   3030 <getenv@plt>
    60cf:	48 0f bf 55 fe       	movswq -0x2(%rbp),%rdx
    60d4:	49 89 c4             	mov    %rax,%r12
    60d7:	48 89 d0             	mov    %rdx,%rax
    60da:	49 8b 14 d6          	mov    (%r14,%rdx,8),%rdx
    60de:	ff e2                	jmp    *%rdx
    60e0:	4c 89 23             	mov    %r12,(%rbx)
    60e3:	31 c0                	xor    %eax,%eax
    60e5:	4c 8d 7b 08          	lea    0x8(%rbx),%r15
    60e9:	48 83 c5 02          	add    $0x2,%rbp
    60ed:	4c 89 fb             	mov    %r15,%rbx
    60f0:	e8 4b 1a 00 00       	call   7b40 <keyq>
    60f5:	48 0f bf 55 fe       	movswq -0x2(%rbp),%rdx
    60fa:	4c 63 e0             	movslq %eax,%r12
    60fd:	48 89 d0             	mov    %rdx,%rax
    6100:	49 8b 14 d6          	mov    (%r14,%rdx,8),%rdx
    6104:	ff e2                	jmp    *%rdx
    6106:	4c 89 23             	mov    %r12,(%rbx)
    6109:	31 c0                	xor    %eax,%eax
    610b:	4c 8d 7b 08          	lea    0x8(%rbx),%r15
    610f:	48 83 c5 02          	add    $0x2,%rbp
    6113:	4c 89 fb             	mov    %r15,%rbx
    6116:	e8 c5 19 00 00       	call   7ae0 <key>
    611b:	48 0f bf 55 fe       	movswq -0x2(%rbp),%rdx
    6120:	4c 63 e0             	movslq %eax,%r12
    6123:	48 89 d0             	mov    %rdx,%rax
    6126:	49 8b 14 d6          	mov    (%r14,%rdx,8),%rdx
    612a:	ff e2                	jmp    *%rdx
    612c:	48 8b 3d 8d 92 00 00 	mov    0x928d(%rip),%rdi        # f3c0 <stdout_current>
    6133:	48 83 eb 08          	sub    $0x8,%rbx
    6137:	44 88 64 24 7d       	mov    %r12b,0x7d(%rsp)
    613c:	48 83 c5 02          	add    $0x2,%rbp
    6140:	4c 8b 23             	mov    (%rbx),%r12
    6143:	e8 d8 d0 ff ff       	call   3220 <fileno@plt>
    6148:	ba 01 00 00 00       	mov    $0x1,%edx
    614d:	48 8d 74 24 7d       	lea    0x7d(%rsp),%rsi
    6152:	89 c7                	mov    %eax,%edi
    6154:	e8 47 cf ff ff       	call   30a0 <write@plt>
    6159:	48 0f bf 55 fe       	movswq -0x2(%rbp),%rdx
    615e:	48 89 d0             	mov    %rdx,%rax
    6161:	49 8b 14 d6          	mov    (%r14,%rdx,8),%rdx
    6165:	ff e2                	jmp    *%rdx
    6167:	48 8b 73 f8          	mov    -0x8(%rbx),%rsi
    616b:	48 8b 7b f0          	mov    -0x10(%rbx),%rdi
    616f:	4c 89 a4 24 98 00 00 	mov    %r12,0x98(%rsp)
    6176:	00 
    6177:	48 8d 43 f8          	lea    -0x8(%rbx),%rax
    617b:	48 83 eb 10          	sub    $0x10,%rbx
    617f:	49 89 f4             	mov    %rsi,%r12
    6182:	49 09 fc             	or     %rdi,%r12
    6185:	74 18                	je     619f <main+0x2e4f>
    6187:	48 85 f6             	test   %rsi,%rsi
    618a:	0f 85 aa 05 00 00    	jne    673a <main+0x33ea>
    6190:	41 bc 01 00 00 00    	mov    $0x1,%r12d
    6196:	48 85 ff             	test   %rdi,%rdi
    6199:	0f 84 a0 05 00 00    	je     673f <main+0x33ef>
    619f:	48 0f bf 55 00       	movswq 0x0(%rbp),%rdx
    61a4:	48 83 c5 02          	add    $0x2,%rbp
    61a8:	48 89 d0             	mov    %rdx,%rax
    61ab:	49 8b 14 d6          	mov    (%r14,%rdx,8),%rdx
    61af:	ff e2                	jmp    *%rdx
    61b1:	4d 85 e4             	test   %r12,%r12
    61b4:	74 0b                	je     61c1 <main+0x2e71>
    61b6:	4c 89 e7             	mov    %r12,%rdi
    61b9:	e8 22 cf ff ff       	call   30e0 <strlen@plt>
    61be:	49 89 c4             	mov    %rax,%r12
    61c1:	48 0f bf 55 00       	movswq 0x0(%rbp),%rdx
    61c6:	48 83 c5 02          	add    $0x2,%rbp
    61ca:	48 89 d0             	mov    %rdx,%rax
    61cd:	49 8b 14 d6          	mov    (%r14,%rdx,8),%rdx
    61d1:	ff e2                	jmp    *%rdx
    61d3:	48 0f bf 55 00       	movswq 0x0(%rbp),%rdx
    61d8:	4d 6b e4 18          	imul   $0x18,%r12,%r12
    61dc:	48 83 c5 02          	add    $0x2,%rbp
    61e0:	48 89 d0             	mov    %rdx,%rax
    61e3:	49 8b 14 d6          	mov    (%r14,%rdx,8),%rdx
    61e7:	4f 8d 64 25 08       	lea    0x8(%r13,%r12,1),%r12
    61ec:	ff e2                	jmp    *%rdx
    61ee:	48 0f bf 55 00       	movswq 0x0(%rbp),%rdx
    61f3:	4d 6b e4 18          	imul   $0x18,%r12,%r12
    61f7:	48 83 c5 02          	add    $0x2,%rbp
    61fb:	48 89 d0             	mov    %rdx,%rax
    61fe:	49 8b 14 d6          	mov    (%r14,%rdx,8),%rdx
    6202:	4f 8d 64 25 10       	lea    0x10(%r13,%r12,1),%r12
    6207:	ff e2                	jmp    *%rdx
    6209:	48 0f bf 55 00       	movswq 0x0(%rbp),%rdx
    620e:	48 8d 05 2b 96 00 00 	lea    0x962b(%rip),%rax        # f840 <body>
    6215:	48 83 c5 02          	add    $0x2,%rbp
    6219:	4e 8d 24 e0          	lea    (%rax,%r12,8),%r12
    621d:	48 89 d0             	mov    %rdx,%rax
    6220:	49 8b 14 d6          	mov    (%r14,%rdx,8),%rdx
    6224:	ff e2                	jmp    *%rdx
    6226:	48 0f bf 55 00       	movswq 0x0(%rbp),%rdx
    622b:	4f 8d 24 e6          	lea    (%r14,%r12,8),%r12
    622f:	48 83 c5 02          	add    $0x2,%rbp
    6233:	48 89 d0             	mov    %rdx,%rax
    6236:	49 8b 14 d6          	mov    (%r14,%rdx,8),%rdx
    623a:	ff e2                	jmp    *%rdx
    623c:	48 0f bf 55 00       	movswq 0x0(%rbp),%rdx
    6241:	4d 6b e4 18          	imul   $0x18,%r12,%r12
    6245:	48 83 c5 02          	add    $0x2,%rbp
    6249:	48 89 d0             	mov    %rdx,%rax
    624c:	49 8b 14 d6          	mov    (%r14,%rdx,8),%rdx
    6250:	4d 01 ec             	add    %r13,%r12
    6253:	ff e2                	jmp    *%rdx
    6255:	48 0f bf 55 00       	movswq 0x0(%rbp),%rdx
    625a:	4d 6b e4 18          	imul   $0x18,%r12,%r12
    625e:	48 83 c5 02          	add    $0x2,%rbp
    6262:	48 89 d0             	mov    %rdx,%rax
    6265:	49 8b 14 d6          	mov    (%r14,%rdx,8),%rdx
    6269:	4d 01 ec             	add    %r13,%r12
    626c:	ff e2                	jmp    *%rdx
    626e:	48 0f bf 55 00       	movswq 0x0(%rbp),%rdx
    6273:	4d 29 ec             	sub    %r13,%r12
    6276:	48 83 c5 02          	add    $0x2,%rbp
    627a:	48 b8 ab aa aa aa aa 	movabs $0xaaaaaaaaaaaaaaab,%rax
    6281:	aa aa aa 
    6284:	49 c1 fc 03          	sar    $0x3,%r12
    6288:	4c 0f af e0          	imul   %rax,%r12
    628c:	48 89 d0             	mov    %rdx,%rax
    628f:	49 8b 14 d6          	mov    (%r14,%rdx,8),%rdx
    6293:	ff e2                	jmp    *%rdx
    6295:	48 8b 7c 24 30       	mov    0x30(%rsp),%rdi
    629a:	49 63 c7             	movslq %r15d,%rax
    629d:	48 8b 7c c7 f8       	mov    -0x8(%rdi,%rax,8),%rdi
    62a2:	e8 c9 0c 00 00       	call   6f70 <slurp>
    62a7:	48 89 c5             	mov    %rax,%rbp
    62aa:	48 85 c0             	test   %rax,%rax
    62ad:	74 49                	je     62f8 <main+0x2fa8>
    62af:	4c 89 e7             	mov    %r12,%rdi
    62b2:	4c 89 64 24 20       	mov    %r12,0x20(%rsp)
    62b7:	e8 24 ce ff ff       	call   30e0 <strlen@plt>
    62bc:	48 89 ef             	mov    %rbp,%rdi
    62bf:	49 89 c4             	mov    %rax,%r12
    62c2:	e8 19 ce ff ff       	call   30e0 <strlen@plt>
    62c7:	48 8b 7c 24 20       	mov    0x20(%rsp),%rdi
    62cc:	49 8d 74 04 02       	lea    0x2(%r12,%rax,1),%rsi
    62d1:	e8 7a cf ff ff       	call   3250 <realloc@plt>
    62d6:	48 89 c7             	mov    %rax,%rdi
    62d9:	49 89 c4             	mov    %rax,%r12
    62dc:	48 89 44 24 20       	mov    %rax,0x20(%rsp)
    62e1:	e8 fa cd ff ff       	call   30e0 <strlen@plt>
    62e6:	48 89 ee             	mov    %rbp,%rsi
    62e9:	41 c6 04 04 0a       	movb   $0xa,(%r12,%rax,1)
    62ee:	49 8d 7c 04 01       	lea    0x1(%r12,%rax,1),%rdi
    62f3:	e8 88 cd ff ff       	call   3080 <strcpy@plt>
    62f8:	48 89 ef             	mov    %rbp,%rdi
    62fb:	e8 40 cd ff ff       	call   3040 <free@plt>
    6300:	e9 14 d3 ff ff       	jmp    3619 <main+0x2c9>
    6305:	48 8b 05 74 15 23 00 	mov    0x231574(%rip),%rax        # 237880 <source>
    630c:	0f b6 10             	movzbl (%rax),%edx
    630f:	80 fa 20             	cmp    $0x20,%dl
    6312:	7f 04                	jg     6318 <main+0x2fc8>
    6314:	84 d2                	test   %dl,%dl
    6316:	75 55                	jne    636d <main+0x301d>
    6318:	48 8b 7c 24 08       	mov    0x8(%rsp),%rdi
    631d:	48 0f bf d1          	movswq %cx,%rdx
    6321:	48 89 05 58 15 23 00 	mov    %rax,0x231558(%rip)        # 237880 <source>
    6328:	48 8d 35 e6 f0 ff ff 	lea    -0xf1a(%rip),%rsi        # 5415 <main+0x20c5>
    632f:	49 8b 14 d6          	mov    (%r14,%rdx,8),%rdx
    6333:	89 c8                	mov    %ecx,%eax
    6335:	66 89 8c 24 bc 00 00 	mov    %cx,0xbc(%rsp)
    633c:	00 
    633d:	48 8d 4f 10          	lea    0x10(%rdi),%rcx
    6341:	48 89 6f 08          	mov    %rbp,0x8(%rdi)
    6345:	48 8d ac 24 be 00 00 	lea    0xbe(%rsp),%rbp
    634c:	00 
    634d:	66 c7 84 24 be 00 00 	movw   $0x5,0xbe(%rsp)
    6354:	00 05 00 
    6357:	48 89 4c 24 08       	mov    %rcx,0x8(%rsp)
    635c:	48 89 37             	mov    %rsi,(%rdi)
    635f:	ff e2                	jmp    *%rdx
    6361:	0f 1f 80 00 00 00 00 	nopl   0x0(%rax)
    6368:	80 fa 20             	cmp    $0x20,%dl
    636b:	7f ab                	jg     6318 <main+0x2fc8>
    636d:	0f b6 50 01          	movzbl 0x1(%rax),%edx
    6371:	48 83 c0 01          	add    $0x1,%rax
    6375:	84 d2                	test   %dl,%dl
    6377:	75 ef                	jne    6368 <main+0x3018>
    6379:	eb 9d                	jmp    6318 <main+0x2fc8>
    637b:	48 8b 44 24 10       	mov    0x10(%rsp),%rax
    6380:	48 8b 5c 24 48       	mov    0x48(%rsp),%rbx
    6385:	e9 5b ed ff ff       	jmp    50e5 <main+0x1d95>
    638a:	48 0f bf 55 00       	movswq 0x0(%rbp),%rdx
    638f:	48 83 c5 02          	add    $0x2,%rbp
    6393:	48 89 d0             	mov    %rdx,%rax
    6396:	49 8b 14 d6          	mov    (%r14,%rdx,8),%rdx
    639a:	ff e2                	jmp    *%rdx
    639c:	4c 89 e7             	mov    %r12,%rdi
    639f:	e8 6c 09 00 00       	call   6d10 <find.part.0>
    63a4:	e9 63 fb ff ff       	jmp    5f0c <main+0x2bbc>
    63a9:	4c 8b bc 24 88 00 00 	mov    0x88(%rsp),%r15
    63b0:	00 
    63b1:	4c 8d 63 10          	lea    0x10(%rbx),%r12
    63b5:	49 8d 47 fe          	lea    -0x2(%r15),%rax
    63b9:	48 89 43 08          	mov    %rax,0x8(%rbx)
    63bd:	e9 e2 f6 ff ff       	jmp    5aa4 <main+0x2754>
    63c2:	48 8b 94 24 88 00 00 	mov    0x88(%rsp),%rdx
    63c9:	00 
    63ca:	4c 8d 63 10          	lea    0x10(%rbx),%r12
    63ce:	48 89 53 08          	mov    %rdx,0x8(%rbx)
    63d2:	e9 e2 f5 ff ff       	jmp    59b9 <main+0x2669>
    63d7:	48 0f bf 45 00       	movswq 0x0(%rbp),%rax
    63dc:	48 01 e8             	add    %rbp,%rax
    63df:	e9 e4 e6 ff ff       	jmp    4ac8 <main+0x1778>
    63e4:	48 0f bf 55 00       	movswq 0x0(%rbp),%rdx
    63e9:	48 83 c5 02          	add    $0x2,%rbp
    63ed:	48 89 d0             	mov    %rdx,%rax
    63f0:	49 8b 14 d6          	mov    (%r14,%rdx,8),%rdx
    63f4:	ff e2                	jmp    *%rdx
    63f6:	48 0f bf 0a          	movswq (%rdx),%rcx
    63fa:	48 8d 3d 02 ec ff ff 	lea    -0x13fe(%rip),%rdi        # 5003 <main+0x1cb3>
    6401:	48 89 ca             	mov    %rcx,%rdx
    6404:	49 39 3c ce          	cmp    %rdi,(%r14,%rcx,8)
    6408:	0f 85 e2 f6 ff ff    	jne    5af0 <main+0x27a0>
    640e:	48 8d 48 02          	lea    0x2(%rax),%rcx
    6412:	48 89 8c 24 88 00 00 	mov    %rcx,0x88(%rsp)
    6419:	00 
    641a:	66 89 10             	mov    %dx,(%rax)
    641d:	66 c7 40 fe 04 00    	movw   $0x4,-0x2(%rax)
    6423:	e9 da f6 ff ff       	jmp    5b02 <main+0x27b2>
    6428:	4a 8d 14 e5 00 00 00 	lea    0x0(,%r12,8),%rdx
    642f:	00 
    6430:	e8 4b ce ff ff       	call   3280 <memmove@plt>
    6435:	e9 ef e0 ff ff       	jmp    4529 <main+0x11d9>
    643a:	4c 89 e2             	mov    %r12,%rdx
    643d:	e8 3e ce ff ff       	call   3280 <memmove@plt>
    6442:	e9 b3 e0 ff ff       	jmp    44fa <main+0x11aa>
    6447:	48 8b 44 24 10       	mov    0x10(%rsp),%rax
    644c:	e9 94 ec ff ff       	jmp    50e5 <main+0x1d95>
    6451:	48 89 df             	mov    %rbx,%rdi
    6454:	e8 87 cc ff ff       	call   30e0 <strlen@plt>
    6459:	48 89 de             	mov    %rbx,%rsi
    645c:	4c 89 e7             	mov    %r12,%rdi
    645f:	48 8d 50 01          	lea    0x1(%rax),%rdx
    6463:	e8 18 ce ff ff       	call   3280 <memmove@plt>
    6468:	e9 57 f8 ff ff       	jmp    5cc4 <main+0x2974>
    646d:	48 8b 3d 54 8f 00 00 	mov    0x8f54(%rip),%rdi        # f3c8 <stdin_current>
    6474:	e8 a7 cd ff ff       	call   3220 <fileno@plt>
    6479:	48 8d 94 24 c0 00 00 	lea    0xc0(%rsp),%rdx
    6480:	00 
    6481:	31 f6                	xor    %esi,%esi
    6483:	89 c7                	mov    %eax,%edi
    6485:	e8 26 ce ff ff       	call   32b0 <tcsetattr@plt>
    648a:	e9 29 ef ff ff       	jmp    53b8 <main+0x2068>
    648f:	48 8b 3d 2a 8f 00 00 	mov    0x8f2a(%rip),%rdi        # f3c0 <stdout_current>
    6496:	e8 85 cd ff ff       	call   3220 <fileno@plt>
    649b:	ba 08 00 00 00       	mov    $0x8,%edx
    64a0:	48 8d 35 d0 2b 00 00 	lea    0x2bd0(%rip),%rsi        # 9077 <_IO_stdin_used+0x77>
    64a7:	89 c7                	mov    %eax,%edi
    64a9:	e8 f2 cb ff ff       	call   30a0 <write@plt>
    64ae:	48 8b 3d 13 8f 00 00 	mov    0x8f13(%rip),%rdi        # f3c8 <stdin_current>
    64b5:	e8 06 cc ff ff       	call   30c0 <fclose@plt>
    64ba:	48 8b 3d ff 8e 00 00 	mov    0x8eff(%rip),%rdi        # f3c0 <stdout_current>
    64c1:	e8 fa cb ff ff       	call   30c0 <fclose@plt>
    64c6:	48 8b 05 a3 8d 00 00 	mov    0x8da3(%rip),%rax        # f270 <stdin@@GLIBC_2.2.5>
    64cd:	48 89 05 f4 8e 00 00 	mov    %rax,0x8ef4(%rip)        # f3c8 <stdin_current>
    64d4:	48 8b 05 85 8d 00 00 	mov    0x8d85(%rip),%rax        # f260 <stdout@@GLIBC_2.2.5>
    64db:	48 89 05 de 8e 00 00 	mov    %rax,0x8ede(%rip)        # f3c0 <stdout_current>
    64e2:	e9 ac ee ff ff       	jmp    5393 <main+0x2043>
    64e7:	48 8b 3d da 8e 00 00 	mov    0x8eda(%rip),%rdi        # f3c8 <stdin_current>
    64ee:	4c 8d bc 24 c0 00 00 	lea    0xc0(%rsp),%r15
    64f5:	00 
    64f6:	e8 25 cd ff ff       	call   3220 <fileno@plt>
    64fb:	4c 89 fe             	mov    %r15,%rsi
    64fe:	89 c7                	mov    %eax,%edi
    6500:	e8 9b cd ff ff       	call   32a0 <tcgetattr@plt>
    6505:	48 8d bc 24 00 01 00 	lea    0x100(%rsp),%rdi
    650c:	00 
    650d:	b9 0f 00 00 00       	mov    $0xf,%ecx
    6512:	4c 89 fe             	mov    %r15,%rsi
    6515:	f3 a5                	rep movsl %ds:(%rsi),%es:(%rdi)
    6517:	48 8b 3d aa 8e 00 00 	mov    0x8eaa(%rip),%rdi        # f3c8 <stdin_current>
    651e:	66 c7 84 24 16 01 00 	movw   $0x100,0x116(%rsp)
    6525:	00 00 01 
    6528:	83 a4 24 0c 01 00 00 	andl   $0xfffffff5,0x10c(%rsp)
    652f:	f5 
    6530:	e8 eb cc ff ff       	call   3220 <fileno@plt>
    6535:	48 8d 94 24 00 01 00 	lea    0x100(%rsp),%rdx
    653c:	00 
    653d:	31 f6                	xor    %esi,%esi
    653f:	89 c7                	mov    %eax,%edi
    6541:	e8 6a cd ff ff       	call   32b0 <tcsetattr@plt>
    6546:	c7 44 24 2c 01 00 00 	movl   $0x1,0x2c(%rsp)
    654d:	00 
    654e:	e9 ac ef ff ff       	jmp    54ff <main+0x21af>
    6553:	4c 8d 3d 0b 2b 00 00 	lea    0x2b0b(%rip),%r15        # 9065 <_IO_stdin_used+0x65>
    655a:	48 8d 35 2f 2b 00 00 	lea    0x2b2f(%rip),%rsi        # 9090 <_IO_stdin_used+0x90>
    6561:	4c 89 ff             	mov    %r15,%rdi
    6564:	e8 57 cd ff ff       	call   32c0 <fopen@plt>
    6569:	48 8d 35 ac 2a 00 00 	lea    0x2aac(%rip),%rsi        # 901c <_IO_stdin_used+0x1c>
    6570:	4c 89 ff             	mov    %r15,%rdi
    6573:	48 89 05 4e 8e 00 00 	mov    %rax,0x8e4e(%rip)        # f3c8 <stdin_current>
    657a:	e8 41 cd ff ff       	call   32c0 <fopen@plt>
    657f:	48 89 c7             	mov    %rax,%rdi
    6582:	48 89 05 37 8e 00 00 	mov    %rax,0x8e37(%rip)        # f3c0 <stdout_current>
    6589:	e8 92 cc ff ff       	call   3220 <fileno@plt>
    658e:	ba 08 00 00 00       	mov    $0x8,%edx
    6593:	48 8d 35 d4 2a 00 00 	lea    0x2ad4(%rip),%rsi        # 906e <_IO_stdin_used+0x6e>
    659a:	89 c7                	mov    %eax,%edi
    659c:	e8 ff ca ff ff       	call   30a0 <write@plt>
    65a1:	c7 44 24 68 01 00 00 	movl   $0x1,0x68(%rsp)
    65a8:	00 
    65a9:	e9 34 ef ff ff       	jmp    54e2 <main+0x2192>
    65ae:	e8 bd cb ff ff       	call   3170 <setsid@plt>
    65b3:	49 0f bf d4          	movswq %r12w,%rdx
    65b7:	4c 8b 63 f8          	mov    -0x8(%rbx),%r12
    65bb:	48 8b 5c 24 60       	mov    0x60(%rsp),%rbx
    65c0:	48 89 d0             	mov    %rdx,%rax
    65c3:	49 8b 14 d6          	mov    (%r14,%rdx,8),%rdx
    65c7:	66 c7 05 00 7c 00 00 	movw   $0x1,0x7c00(%rip)        # e1d0 <init>
    65ce:	01 00 
    65d0:	48 8d 2d f9 7b 00 00 	lea    0x7bf9(%rip),%rbp        # e1d0 <init>
    65d7:	48 89 5c 24 10       	mov    %rbx,0x10(%rsp)
    65dc:	48 8b 5c 24 58       	mov    0x58(%rsp),%rbx
    65e1:	48 89 5c 24 08       	mov    %rbx,0x8(%rsp)
    65e6:	48 8b 5c 24 48       	mov    0x48(%rsp),%rbx
    65eb:	ff e2                	jmp    *%rdx
    65ed:	48 8d b4 24 88 00 00 	lea    0x88(%rsp),%rsi
    65f4:	00 
    65f5:	bf 76 00 00 00       	mov    $0x76,%edi
    65fa:	4c 8d 63 08          	lea    0x8(%rbx),%r12
    65fe:	48 89 74 24 50       	mov    %rsi,0x50(%rsp)
    6603:	e8 68 0a 00 00       	call   7070 <compile>
    6608:	48 8b 74 24 50       	mov    0x50(%rsp),%rsi
    660d:	83 cf ff             	or     $0xffffffff,%edi
    6610:	e8 5b 0a 00 00       	call   7070 <compile>
    6615:	48 8b 74 24 50       	mov    0x50(%rsp),%rsi
    661a:	e9 37 f3 ff ff       	jmp    5956 <main+0x2606>
    661f:	48 8b 4b f8          	mov    -0x8(%rbx),%rcx
    6623:	48 8b 94 24 88 00 00 	mov    0x88(%rsp),%rdx
    662a:	00 
    662b:	48 8d 43 f8          	lea    -0x8(%rbx),%rax
    662f:	48 29 ca             	sub    %rcx,%rdx
    6632:	66 89 11             	mov    %dx,(%rcx)
    6635:	48 89 c3             	mov    %rax,%rbx
    6638:	4c 8d 78 f8          	lea    -0x8(%rax),%r15
    663c:	48 83 2d 34 12 23 00 	subq   $0x1,0x231234(%rip)        # 237878 <mode>
    6643:	01 
    6644:	0f 85 c2 f2 ff ff    	jne    590c <main+0x25bc>
    664a:	bf 02 00 00 00       	mov    $0x2,%edi
    664f:	48 8d b4 24 88 00 00 	lea    0x88(%rsp),%rsi
    6656:	00 
    6657:	e8 14 0a 00 00       	call   7070 <compile>
    665c:	48 8b 44 24 08       	mov    0x8(%rsp),%rax
    6661:	48 8b 7c 24 18       	mov    0x18(%rsp),%rdi
    6666:	48 89 28             	mov    %rbp,(%rax)
    6669:	48 83 c0 20          	add    $0x20,%rax
    666d:	48 89 78 e8          	mov    %rdi,-0x18(%rax)
    6671:	48 8b 6b f8          	mov    -0x8(%rbx),%rbp
    6675:	4c 89 fb             	mov    %r15,%rbx
    6678:	49 83 ef 08          	sub    $0x8,%r15
    667c:	48 89 44 24 08       	mov    %rax,0x8(%rsp)
    6681:	e9 86 f2 ff ff       	jmp    590c <main+0x25bc>
    6686:	4c 89 e7             	mov    %r12,%rdi
    6689:	e8 52 ca ff ff       	call   30e0 <strlen@plt>
    668e:	48 8b 3d 2b 8d 00 00 	mov    0x8d2b(%rip),%rdi        # f3c0 <stdout_current>
    6695:	49 89 c7             	mov    %rax,%r15
    6698:	e8 83 cb ff ff       	call   3220 <fileno@plt>
    669d:	4c 89 fa             	mov    %r15,%rdx
    66a0:	4c 89 e6             	mov    %r12,%rsi
    66a3:	89 c7                	mov    %eax,%edi
    66a5:	e8 f6 c9 ff ff       	call   30a0 <write@plt>
    66aa:	e9 55 f0 ff ff       	jmp    5704 <main+0x23b4>
    66af:	41 80 7f 01 22       	cmpb   $0x22,0x1(%r15)
    66b4:	0f 85 bb ed ff ff    	jne    5475 <main+0x2125>
    66ba:	4c 89 ff             	mov    %r15,%rdi
    66bd:	e8 1e ca ff ff       	call   30e0 <strlen@plt>
    66c2:	49 89 c0             	mov    %rax,%r8
    66c5:	48 8b 05 b4 11 23 00 	mov    0x2311b4(%rip),%rax        # 237880 <source>
    66cc:	48 83 c0 01          	add    $0x1,%rax
    66d0:	4c 29 c0             	sub    %r8,%rax
    66d3:	48 89 05 a6 11 23 00 	mov    %rax,0x2311a6(%rip)        # 237880 <source>
    66da:	31 c0                	xor    %eax,%eax
    66dc:	e8 df 0c 00 00       	call   73c0 <sparse>
    66e1:	48 83 3d 8f 11 23 00 	cmpq   $0x0,0x23118f(%rip)        # 237878 <mode>
    66e8:	00 
    66e9:	49 89 c7             	mov    %rax,%r15
    66ec:	0f 85 b1 03 00 00    	jne    6aa3 <main+0x3753>
    66f2:	4c 89 23             	mov    %r12,(%rbx)
    66f5:	49 89 c4             	mov    %rax,%r12
    66f8:	48 8b 44 24 08       	mov    0x8(%rsp),%rax
    66fd:	48 83 c3 08          	add    $0x8,%rbx
    6701:	48 8d 3d cf ec ff ff 	lea    -0x1331(%rip),%rdi        # 53d7 <main+0x2087>
    6708:	48 8b 15 a1 13 01 00 	mov    0x113a1(%rip),%rdx        # 17ab0 <call+0x270>
    670f:	c7 84 24 bc 00 00 00 	movl   $0x5004e,0xbc(%rsp)
    6716:	4e 00 05 00 
    671a:	48 89 68 08          	mov    %rbp,0x8(%rax)
    671e:	48 83 c0 10          	add    $0x10,%rax
    6722:	48 8d ac 24 be 00 00 	lea    0xbe(%rsp),%rbp
    6729:	00 
    672a:	48 89 78 f0          	mov    %rdi,-0x10(%rax)
    672e:	48 89 44 24 08       	mov    %rax,0x8(%rsp)
    6733:	b8 4e 00 00 00       	mov    $0x4e,%eax
    6738:	ff e2                	jmp    *%rdx
    673a:	48 85 ff             	test   %rdi,%rdi
    673d:	75 0d                	jne    674c <main+0x33fc>
    673f:	49 83 cc ff          	or     $0xffffffffffffffff,%r12
    6743:	48 85 f6             	test   %rsi,%rsi
    6746:	0f 85 53 fa ff ff    	jne    619f <main+0x2e4f>
    674c:	48 8b 94 24 98 00 00 	mov    0x98(%rsp),%rdx
    6753:	00 
    6754:	48 85 d2             	test   %rdx,%rdx
    6757:	0f 84 0f 02 00 00    	je     696c <main+0x361c>
    675d:	e8 0e c9 ff ff       	call   3070 <strncmp@plt>
    6762:	4c 63 e0             	movslq %eax,%r12
    6765:	e9 35 fa ff ff       	jmp    619f <main+0x2e4f>
    676a:	48 8b 3d 4f 8c 00 00 	mov    0x8c4f(%rip),%rdi        # f3c0 <stdout_current>
    6771:	e8 aa ca ff ff       	call   3220 <fileno@plt>
    6776:	ba 08 00 00 00       	mov    $0x8,%edx
    677b:	48 8d 35 f5 28 00 00 	lea    0x28f5(%rip),%rsi        # 9077 <_IO_stdin_used+0x77>
    6782:	89 c7                	mov    %eax,%edi
    6784:	e8 17 c9 ff ff       	call   30a0 <write@plt>
    6789:	e9 f1 e8 ff ff       	jmp    507f <main+0x1d2f>
    678e:	48 8b 3d 33 8c 00 00 	mov    0x8c33(%rip),%rdi        # f3c8 <stdin_current>
    6795:	e8 86 ca ff ff       	call   3220 <fileno@plt>
    679a:	48 8d 94 24 c0 00 00 	lea    0xc0(%rsp),%rdx
    67a1:	00 
    67a2:	31 f6                	xor    %esi,%esi
    67a4:	89 c7                	mov    %eax,%edi
    67a6:	e8 05 cb ff ff       	call   32b0 <tcsetattr@plt>
    67ab:	e9 c4 e8 ff ff       	jmp    5074 <main+0x1d24>
    67b0:	41 80 3f 00          	cmpb   $0x0,(%r15)
    67b4:	48 8b 3d 8d 10 23 00 	mov    0x23108d(%rip),%rdi        # 237848 <normal>
    67bb:	74 5b                	je     6818 <main+0x34c8>
    67bd:	4c 89 fe             	mov    %r15,%rsi
    67c0:	e8 4b 05 00 00       	call   6d10 <find.part.0>
    67c5:	66 85 c0             	test   %ax,%ax
    67c8:	74 4e                	je     6818 <main+0x34c8>
    67ca:	48 83 3d a6 10 23 00 	cmpq   $0x0,0x2310a6(%rip)        # 237878 <mode>
    67d1:	00 
    67d2:	48 0f bf f8          	movswq %ax,%rdi
    67d6:	0f 85 39 03 00 00    	jne    6b15 <main+0x37c5>
    67dc:	48 8b 74 24 08       	mov    0x8(%rsp),%rsi
    67e1:	49 8b 14 fe          	mov    (%r14,%rdi,8),%rdx
    67e5:	48 8d 0d e1 ec ff ff 	lea    -0x131f(%rip),%rcx        # 54cd <main+0x217d>
    67ec:	66 89 84 24 bc 00 00 	mov    %ax,0xbc(%rsp)
    67f3:	00 
    67f4:	66 c7 84 24 be 00 00 	movw   $0x5,0xbe(%rsp)
    67fb:	00 05 00 
    67fe:	48 8d 7e 10          	lea    0x10(%rsi),%rdi
    6802:	48 89 6e 08          	mov    %rbp,0x8(%rsi)
    6806:	48 8d ac 24 be 00 00 	lea    0xbe(%rsp),%rbp
    680d:	00 
    680e:	48 89 0e             	mov    %rcx,(%rsi)
    6811:	48 89 7c 24 08       	mov    %rdi,0x8(%rsp)
    6816:	ff e2                	jmp    *%rdx
    6818:	48 8d b4 24 98 00 00 	lea    0x98(%rsp),%rsi
    681f:	00 
    6820:	4c 89 ff             	mov    %r15,%rdi
    6823:	48 c7 84 24 98 00 00 	movq   $0x0,0x98(%rsp)
    682a:	00 00 00 00 00 
    682f:	e8 2c 06 00 00       	call   6e60 <number.part.0>
    6834:	48 85 c0             	test   %rax,%rax
    6837:	0f 85 b1 00 00 00    	jne    68ee <main+0x359e>
    683d:	41 0f b6 07          	movzbl (%r15),%eax
    6841:	3c 27                	cmp    $0x27,%al
    6843:	0f 84 e2 01 00 00    	je     6a2b <main+0x36db>
    6849:	3c 60                	cmp    $0x60,%al
    684b:	0f 84 8d 01 00 00    	je     69de <main+0x368e>
    6851:	48 8b 3d f0 0f 23 00 	mov    0x230ff0(%rip),%rdi        # 237848 <normal>
    6858:	48 8d 54 24 7e       	lea    0x7e(%rsp),%rdx
    685d:	4c 89 fe             	mov    %r15,%rsi
    6860:	e8 4b 10 00 00       	call   78b0 <findpair>
    6865:	66 85 c0             	test   %ax,%ax
    6868:	0f 84 0b 01 00 00    	je     6979 <main+0x3629>
    686e:	48 83 3d 02 10 23 00 	cmpq   $0x0,0x231002(%rip)        # 237878 <mode>
    6875:	00 
    6876:	48 0f bf f8          	movswq %ax,%rdi
    687a:	0f 85 fe 02 00 00    	jne    6b7e <main+0x382e>
    6880:	48 8b 4c 24 08       	mov    0x8(%rsp),%rcx
    6885:	49 8b 14 fe          	mov    (%r14,%rdi,8),%rdx
    6889:	48 8d 35 15 e9 ff ff 	lea    -0x16eb(%rip),%rsi        # 51a5 <main+0x1e55>
    6890:	66 89 84 24 bc 00 00 	mov    %ax,0xbc(%rsp)
    6897:	00 
    6898:	66 c7 84 24 be 00 00 	movw   $0x5,0xbe(%rsp)
    689f:	00 05 00 
    68a2:	48 8d 79 10          	lea    0x10(%rcx),%rdi
    68a6:	48 89 69 08          	mov    %rbp,0x8(%rcx)
    68aa:	48 8d ac 24 be 00 00 	lea    0xbe(%rsp),%rbp
    68b1:	00 
    68b2:	48 89 31             	mov    %rsi,(%rcx)
    68b5:	48 89 7c 24 08       	mov    %rdi,0x8(%rsp)
    68ba:	ff e2                	jmp    *%rdx
    68bc:	4c 89 ff             	mov    %r15,%rdi
    68bf:	e8 1c c8 ff ff       	call   30e0 <strlen@plt>
    68c4:	48 29 05 b5 0f 23 00 	sub    %rax,0x230fb5(%rip)        # 237880 <source>
    68cb:	31 c0                	xor    %eax,%eax
    68cd:	e8 ee 0a 00 00       	call   73c0 <sparse>
    68d2:	48 83 3d 9e 0f 23 00 	cmpq   $0x0,0x230f9e(%rip)        # 237878 <mode>
    68d9:	00 
    68da:	49 89 c7             	mov    %rax,%r15
    68dd:	75 31                	jne    6910 <main+0x35c0>
    68df:	4c 89 23             	mov    %r12,(%rbx)
    68e2:	49 89 c4             	mov    %rax,%r12
    68e5:	48 83 c3 08          	add    $0x8,%rbx
    68e9:	e9 32 e8 ff ff       	jmp    5120 <main+0x1dd0>
    68ee:	48 83 3d 82 0f 23 00 	cmpq   $0x0,0x230f82(%rip)        # 237878 <mode>
    68f5:	00 
    68f6:	0f 85 01 01 00 00    	jne    69fd <main+0x36ad>
    68fc:	4c 89 23             	mov    %r12,(%rbx)
    68ff:	48 83 c3 08          	add    $0x8,%rbx
    6903:	4c 8b a4 24 98 00 00 	mov    0x98(%rsp),%r12
    690a:	00 
    690b:	e9 10 e8 ff ff       	jmp    5120 <main+0x1dd0>
    6910:	48 8d b4 24 88 00 00 	lea    0x88(%rsp),%rsi
    6917:	00 
    6918:	bf 78 00 00 00       	mov    $0x78,%edi
    691d:	48 89 74 24 50       	mov    %rsi,0x50(%rsp)
    6922:	e8 49 07 00 00       	call   7070 <compile>
    6927:	48 8b 74 24 50       	mov    0x50(%rsp),%rsi
    692c:	4c 89 ff             	mov    %r15,%rdi
    692f:	e8 fc 08 00 00       	call   7230 <scompile>
    6934:	e9 e7 e7 ff ff       	jmp    5120 <main+0x1dd0>
    6939:	48 8d b4 24 88 00 00 	lea    0x88(%rsp),%rsi
    6940:	00 
    6941:	bf 7c 00 00 00       	mov    $0x7c,%edi
    6946:	4c 89 7c 24 50       	mov    %r15,0x50(%rsp)
    694b:	e8 20 07 00 00       	call   7070 <compile>
    6950:	48 8b 4b f8          	mov    -0x8(%rbx),%rcx
    6954:	48 8b 44 24 50       	mov    0x50(%rsp),%rax
    6959:	48 8b 94 24 88 00 00 	mov    0x88(%rsp),%rdx
    6960:	00 
    6961:	48 29 ca             	sub    %rcx,%rdx
    6964:	66 89 11             	mov    %dx,(%rcx)
    6967:	e9 c9 fc ff ff       	jmp    6635 <main+0x32e5>
    696c:	e8 6f c8 ff ff       	call   31e0 <strcmp@plt>
    6971:	4c 63 e0             	movslq %eax,%r12
    6974:	e9 26 f8 ff ff       	jmp    619f <main+0x2e4f>
    6979:	48 83 3d df 0e 23 00 	cmpq   $0x0,0x230edf(%rip)        # 237860 <on_what>
    6980:	00 
    6981:	48 8d 4b 08          	lea    0x8(%rbx),%rcx
    6985:	4c 89 23             	mov    %r12,(%rbx)
    6988:	0f 84 05 01 00 00    	je     6a93 <main+0x3743>
    698e:	48 8b 15 cb 0e 23 00 	mov    0x230ecb(%rip),%rdx        # 237860 <on_what>
    6995:	48 8b 5c 24 08       	mov    0x8(%rsp),%rbx
    699a:	4d 89 fc             	mov    %r15,%r12
    699d:	48 8d 3d 64 e7 ff ff 	lea    -0x189c(%rip),%rdi        # 5108 <main+0x1db8>
    69a4:	66 c7 84 24 be 00 00 	movw   $0x5,0xbe(%rsp)
    69ab:	00 05 00 
    69ae:	66 89 94 24 bc 00 00 	mov    %dx,0xbc(%rsp)
    69b5:	00 
    69b6:	89 d0                	mov    %edx,%eax
    69b8:	48 0f bf d2          	movswq %dx,%rdx
    69bc:	48 83 c3 10          	add    $0x10,%rbx
    69c0:	49 8b 14 d6          	mov    (%r14,%rdx,8),%rdx
    69c4:	48 89 6b f8          	mov    %rbp,-0x8(%rbx)
    69c8:	48 8d ac 24 be 00 00 	lea    0xbe(%rsp),%rbp
    69cf:	00 
    69d0:	48 89 7b f0          	mov    %rdi,-0x10(%rbx)
    69d4:	48 89 5c 24 08       	mov    %rbx,0x8(%rsp)
    69d9:	48 89 cb             	mov    %rcx,%rbx
    69dc:	ff e2                	jmp    *%rdx
    69de:	48 83 3d 92 0e 23 00 	cmpq   $0x0,0x230e92(%rip)        # 237878 <mode>
    69e5:	00 
    69e6:	0f 85 fe 00 00 00    	jne    6aea <main+0x379a>
    69ec:	4c 89 23             	mov    %r12,(%rbx)
    69ef:	48 83 c3 08          	add    $0x8,%rbx
    69f3:	4d 0f be 67 01       	movsbq 0x1(%r15),%r12
    69f8:	e9 23 e7 ff ff       	jmp    5120 <main+0x1dd0>
    69fd:	48 8d b4 24 88 00 00 	lea    0x88(%rsp),%rsi
    6a04:	00 
    6a05:	bf 77 00 00 00       	mov    $0x77,%edi
    6a0a:	48 89 74 24 50       	mov    %rsi,0x50(%rsp)
    6a0f:	e8 5c 06 00 00       	call   7070 <compile>
    6a14:	48 8b 74 24 50       	mov    0x50(%rsp),%rsi
    6a19:	48 8b bc 24 98 00 00 	mov    0x98(%rsp),%rdi
    6a20:	00 
    6a21:	e8 aa 07 00 00       	call   71d0 <ncompile>
    6a26:	e9 f5 e6 ff ff       	jmp    5120 <main+0x1dd0>
    6a2b:	41 80 7f 01 00       	cmpb   $0x0,0x1(%r15)
    6a30:	48 8b 3d 19 0e 23 00 	mov    0x230e19(%rip),%rdi        # 237850 <macro>
    6a37:	0f 84 3c ff ff ff    	je     6979 <main+0x3629>
    6a3d:	49 8d 77 01          	lea    0x1(%r15),%rsi
    6a41:	48 89 74 24 50       	mov    %rsi,0x50(%rsp)
    6a46:	e8 c5 02 00 00       	call   6d10 <find.part.0>
    6a4b:	48 8b 74 24 50       	mov    0x50(%rsp),%rsi
    6a50:	66 85 c0             	test   %ax,%ax
    6a53:	75 20                	jne    6a75 <main+0x3725>
    6a55:	41 80 7f 01 00       	cmpb   $0x0,0x1(%r15)
    6a5a:	48 8b 3d e7 0d 23 00 	mov    0x230de7(%rip),%rdi        # 237848 <normal>
    6a61:	0f 84 12 ff ff ff    	je     6979 <main+0x3629>
    6a67:	e8 a4 02 00 00       	call   6d10 <find.part.0>
    6a6c:	66 85 c0             	test   %ax,%ax
    6a6f:	0f 84 04 ff ff ff    	je     6979 <main+0x3629>
    6a75:	48 83 3d fb 0d 23 00 	cmpq   $0x0,0x230dfb(%rip)        # 237878 <mode>
    6a7c:	00 
    6a7d:	0f 85 21 01 00 00    	jne    6ba4 <main+0x3854>
    6a83:	4c 89 23             	mov    %r12,(%rbx)
    6a86:	4c 0f bf e0          	movswq %ax,%r12
    6a8a:	48 83 c3 08          	add    $0x8,%rbx
    6a8e:	e9 8d e6 ff ff       	jmp    5120 <main+0x1dd0>
    6a93:	48 8b 44 24 10       	mov    0x10(%rsp),%rax
    6a98:	45 31 e4             	xor    %r12d,%r12d
    6a9b:	48 89 cb             	mov    %rcx,%rbx
    6a9e:	e9 42 e6 ff ff       	jmp    50e5 <main+0x1d95>
    6aa3:	48 8d b4 24 88 00 00 	lea    0x88(%rsp),%rsi
    6aaa:	00 
    6aab:	bf 78 00 00 00       	mov    $0x78,%edi
    6ab0:	48 89 74 24 50       	mov    %rsi,0x50(%rsp)
    6ab5:	e8 b6 05 00 00       	call   7070 <compile>
    6aba:	48 8b 74 24 50       	mov    0x50(%rsp),%rsi
    6abf:	4c 89 ff             	mov    %r15,%rdi
    6ac2:	e8 69 07 00 00       	call   7230 <scompile>
    6ac7:	48 8b 74 24 50       	mov    0x50(%rsp),%rsi
    6acc:	bf 4e 00 00 00       	mov    $0x4e,%edi
    6ad1:	e8 9a 05 00 00       	call   7070 <compile>
    6ad6:	48 8b 74 24 50       	mov    0x50(%rsp),%rsi
    6adb:	bf 5b 00 00 00       	mov    $0x5b,%edi
    6ae0:	e8 8b 05 00 00       	call   7070 <compile>
    6ae5:	e9 36 e6 ff ff       	jmp    5120 <main+0x1dd0>
    6aea:	48 8d b4 24 88 00 00 	lea    0x88(%rsp),%rsi
    6af1:	00 
    6af2:	bf 77 00 00 00       	mov    $0x77,%edi
    6af7:	48 89 74 24 50       	mov    %rsi,0x50(%rsp)
    6afc:	e8 6f 05 00 00       	call   7070 <compile>
    6b01:	49 0f be 7f 01       	movsbq 0x1(%r15),%rdi
    6b06:	48 8b 74 24 50       	mov    0x50(%rsp),%rsi
    6b0b:	e8 c0 06 00 00       	call   71d0 <ncompile>
    6b10:	e9 0b e6 ff ff       	jmp    5120 <main+0x1dd0>
    6b15:	48 8d b4 24 88 00 00 	lea    0x88(%rsp),%rsi
    6b1c:	00 
    6b1d:	e8 4e 05 00 00       	call   7070 <compile>
    6b22:	e9 f9 e5 ff ff       	jmp    5120 <main+0x1dd0>
    6b27:	e8 c4 c5 ff ff       	call   30f0 <__stack_chk_fail@plt>
    6b2c:	48 8b 0d 4d 87 00 00 	mov    0x874d(%rip),%rcx        # f280 <stderr@@GLIBC_2.2.5>
    6b33:	ba 13 00 00 00       	mov    $0x13,%edx
    6b38:	be 01 00 00 00       	mov    $0x1,%esi
    6b3d:	48 8d 3d c6 24 00 00 	lea    0x24c6(%rip),%rdi        # 900a <_IO_stdin_used+0xa>
    6b44:	e8 a7 c7 ff ff       	call   32f0 <fwrite@plt>
    6b49:	48 8b 35 30 87 00 00 	mov    0x8730(%rip),%rsi        # f280 <stderr@@GLIBC_2.2.5>
    6b50:	bf 0a 00 00 00       	mov    $0xa,%edi
    6b55:	e8 36 c6 ff ff       	call   3190 <fputc@plt>
    6b5a:	bf 01 00 00 00       	mov    $0x1,%edi
    6b5f:	e8 7c c7 ff ff       	call   32e0 <exit@plt>
    6b64:	48 8b 0d 15 87 00 00 	mov    0x8715(%rip),%rcx        # f280 <stderr@@GLIBC_2.2.5>
    6b6b:	ba 0d 00 00 00       	mov    $0xd,%edx
    6b70:	be 01 00 00 00       	mov    $0x1,%esi
    6b75:	48 8d 3d db 24 00 00 	lea    0x24db(%rip),%rdi        # 9057 <_IO_stdin_used+0x57>
    6b7c:	eb c6                	jmp    6b44 <main+0x37f4>
    6b7e:	48 8d b4 24 88 00 00 	lea    0x88(%rsp),%rsi
    6b85:	00 
    6b86:	48 89 74 24 50       	mov    %rsi,0x50(%rsp)
    6b8b:	e8 e0 04 00 00       	call   7070 <compile>
    6b90:	0f bf 7c 24 7e       	movswl 0x7e(%rsp),%edi
    6b95:	48 8b 74 24 50       	mov    0x50(%rsp),%rsi
    6b9a:	e8 d1 04 00 00       	call   7070 <compile>
    6b9f:	e9 7c e5 ff ff       	jmp    5120 <main+0x1dd0>
    6ba4:	48 8d b4 24 88 00 00 	lea    0x88(%rsp),%rsi
    6bab:	00 
    6bac:	bf 76 00 00 00       	mov    $0x76,%edi
    6bb1:	89 44 24 6c          	mov    %eax,0x6c(%rsp)
    6bb5:	48 89 74 24 50       	mov    %rsi,0x50(%rsp)
    6bba:	e8 b1 04 00 00       	call   7070 <compile>
    6bbf:	8b 44 24 6c          	mov    0x6c(%rsp),%eax
    6bc3:	48 8b 74 24 50       	mov    0x50(%rsp),%rsi
    6bc8:	0f bf f8             	movswl %ax,%edi
    6bcb:	e8 a0 04 00 00       	call   7070 <compile>
    6bd0:	e9 4b e5 ff ff       	jmp    5120 <main+0x1dd0>
    6bd5:	66 2e 0f 1f 84 00 00 	cs nopw 0x0(%rax,%rax,1)
    6bdc:	00 00 00 
    6bdf:	90                   	nop

0000000000006be0 <_start>:
    6be0:	f3 0f 1e fa          	endbr64 
    6be4:	31 ed                	xor    %ebp,%ebp
    6be6:	49 89 d1             	mov    %rdx,%r9
    6be9:	5e                   	pop    %rsi
    6bea:	48 89 e2             	mov    %rsp,%rdx
    6bed:	48 83 e4 f0          	and    $0xfffffffffffffff0,%rsp
    6bf1:	50                   	push   %rax
    6bf2:	54                   	push   %rsp
    6bf3:	4c 8d 05 f6 14 00 00 	lea    0x14f6(%rip),%r8        # 80f0 <__libc_csu_fini>
    6bfa:	48 8d 0d 7f 14 00 00 	lea    0x147f(%rip),%rcx        # 8080 <__libc_csu_init>
    6c01:	48 8d 3d 48 c7 ff ff 	lea    -0x38b8(%rip),%rdi        # 3350 <main>
    6c08:	ff 15 d2 73 00 00    	call   *0x73d2(%rip)        # dfe0 <__libc_start_main@GLIBC_2.2.5>
    6c0e:	f4                   	hlt    
    6c0f:	90                   	nop

0000000000006c10 <deregister_tm_clones>:
    6c10:	48 8d 3d 41 86 00 00 	lea    0x8641(%rip),%rdi        # f258 <__TMC_END__>
    6c17:	48 8d 05 3a 86 00 00 	lea    0x863a(%rip),%rax        # f258 <__TMC_END__>
    6c1e:	48 39 f8             	cmp    %rdi,%rax
    6c21:	74 15                	je     6c38 <deregister_tm_clones+0x28>
    6c23:	48 8b 05 ae 73 00 00 	mov    0x73ae(%rip),%rax        # dfd8 <_ITM_deregisterTMCloneTable>
    6c2a:	48 85 c0             	test   %rax,%rax
    6c2d:	74 09                	je     6c38 <deregister_tm_clones+0x28>
    6c2f:	ff e0                	jmp    *%rax
    6c31:	0f 1f 80 00 00 00 00 	nopl   0x0(%rax)
    6c38:	c3                   	ret    
    6c39:	0f 1f 80 00 00 00 00 	nopl   0x0(%rax)

0000000000006c40 <register_tm_clones>:
    6c40:	48 8d 3d 11 86 00 00 	lea    0x8611(%rip),%rdi        # f258 <__TMC_END__>
    6c47:	48 8d 35 0a 86 00 00 	lea    0x860a(%rip),%rsi        # f258 <__TMC_END__>
    6c4e:	48 29 fe             	sub    %rdi,%rsi
    6c51:	48 89 f0             	mov    %rsi,%rax
    6c54:	48 c1 ee 3f          	shr    $0x3f,%rsi
    6c58:	48 c1 f8 03          	sar    $0x3,%rax
    6c5c:	48 01 c6             	add    %rax,%rsi
    6c5f:	48 d1 fe             	sar    %rsi
    6c62:	74 14                	je     6c78 <register_tm_clones+0x38>
    6c64:	48 8b 05 85 73 00 00 	mov    0x7385(%rip),%rax        # dff0 <_ITM_registerTMCloneTable>
    6c6b:	48 85 c0             	test   %rax,%rax
    6c6e:	74 08                	je     6c78 <register_tm_clones+0x38>
    6c70:	ff e0                	jmp    *%rax
    6c72:	66 0f 1f 44 00 00    	nopw   0x0(%rax,%rax,1)
    6c78:	c3                   	ret    
    6c79:	0f 1f 80 00 00 00 00 	nopl   0x0(%rax)

0000000000006c80 <__do_global_dtors_aux>:
    6c80:	f3 0f 1e fa          	endbr64 
    6c84:	80 3d fd 85 00 00 00 	cmpb   $0x0,0x85fd(%rip)        # f288 <completed.0>
    6c8b:	75 33                	jne    6cc0 <__do_global_dtors_aux+0x40>
    6c8d:	55                   	push   %rbp
    6c8e:	48 83 3d 62 73 00 00 	cmpq   $0x0,0x7362(%rip)        # dff8 <__cxa_finalize@GLIBC_2.2.5>
    6c95:	00 
    6c96:	48 89 e5             	mov    %rsp,%rbp
    6c99:	74 0d                	je     6ca8 <__do_global_dtors_aux+0x28>
    6c9b:	48 8b 3d 26 75 00 00 	mov    0x7526(%rip),%rdi        # e1c8 <__dso_handle>
    6ca2:	ff 15 50 73 00 00    	call   *0x7350(%rip)        # dff8 <__cxa_finalize@GLIBC_2.2.5>
    6ca8:	e8 63 ff ff ff       	call   6c10 <deregister_tm_clones>
    6cad:	c6 05 d4 85 00 00 01 	movb   $0x1,0x85d4(%rip)        # f288 <completed.0>
    6cb4:	5d                   	pop    %rbp
    6cb5:	c3                   	ret    
    6cb6:	66 2e 0f 1f 84 00 00 	cs nopw 0x0(%rax,%rax,1)
    6cbd:	00 00 00 
    6cc0:	c3                   	ret    
    6cc1:	66 66 2e 0f 1f 84 00 	data16 cs nopw 0x0(%rax,%rax,1)
    6cc8:	00 00 00 00 
    6ccc:	0f 1f 40 00          	nopl   0x0(%rax)

0000000000006cd0 <frame_dummy>:
    6cd0:	f3 0f 1e fa          	endbr64 
    6cd4:	e9 67 ff ff ff       	jmp    6c40 <register_tm_clones>
    6cd9:	0f 1f 80 00 00 00 00 	nopl   0x0(%rax)

0000000000006ce0 <catch_exit>:
    6ce0:	48 83 ec 08          	sub    $0x8,%rsp
    6ce4:	0f 1f 40 00          	nopl   0x0(%rax)
    6ce8:	31 f6                	xor    %esi,%esi
    6cea:	ba 01 00 00 00       	mov    $0x1,%edx
    6cef:	bf ff ff ff ff       	mov    $0xffffffff,%edi
    6cf4:	e8 97 c5 ff ff       	call   3290 <waitpid@plt>
    6cf9:	85 c0                	test   %eax,%eax
    6cfb:	7f eb                	jg     6ce8 <catch_exit+0x8>
    6cfd:	48 83 c4 08          	add    $0x8,%rsp
    6d01:	c3                   	ret    
    6d02:	66 66 2e 0f 1f 84 00 	data16 cs nopw 0x0(%rax,%rax,1)
    6d09:	00 00 00 00 
    6d0d:	0f 1f 00             	nopl   (%rax)

0000000000006d10 <find.part.0>:
    6d10:	41 56                	push   %r14
    6d12:	41 55                	push   %r13
    6d14:	41 54                	push   %r12
    6d16:	49 89 f4             	mov    %rsi,%r12
    6d19:	be 3a 00 00 00       	mov    $0x3a,%esi
    6d1e:	55                   	push   %rbp
    6d1f:	53                   	push   %rbx
    6d20:	48 89 fb             	mov    %rdi,%rbx
    6d23:	4c 89 e7             	mov    %r12,%rdi
    6d26:	e8 e5 c3 ff ff       	call   3110 <strchr@plt>
    6d2b:	48 85 c0             	test   %rax,%rax
    6d2e:	74 0e                	je     6d3e <find.part.0+0x2e>
    6d30:	80 78 01 00          	cmpb   $0x0,0x1(%rax)
    6d34:	49 89 c5             	mov    %rax,%r13
    6d37:	74 05                	je     6d3e <find.part.0+0x2e>
    6d39:	49 39 c4             	cmp    %rax,%r12
    6d3c:	72 6a                	jb     6da8 <find.part.0+0x98>
    6d3e:	48 85 db             	test   %rbx,%rbx
    6d41:	74 55                	je     6d98 <find.part.0+0x88>
    6d43:	41 0f b7 2c 24       	movzwl (%r12),%ebp
    6d48:	eb 0f                	jmp    6d59 <find.part.0+0x49>
    6d4a:	66 0f 1f 44 00 00    	nopw   0x0(%rax,%rax,1)
    6d50:	48 8b 5b 08          	mov    0x8(%rbx),%rbx
    6d54:	48 85 db             	test   %rbx,%rbx
    6d57:	74 3f                	je     6d98 <find.part.0+0x88>
    6d59:	48 8b 3b             	mov    (%rbx),%rdi
    6d5c:	66 39 2f             	cmp    %bp,(%rdi)
    6d5f:	75 ef                	jne    6d50 <find.part.0+0x40>
    6d61:	4c 89 e6             	mov    %r12,%rsi
    6d64:	e8 77 c4 ff ff       	call   31e0 <strcmp@plt>
    6d69:	85 c0                	test   %eax,%eax
    6d6b:	75 e3                	jne    6d50 <find.part.0+0x40>
    6d6d:	48 8d 05 cc 8a 01 00 	lea    0x18acc(%rip),%rax        # 1f840 <head>
    6d74:	48 29 c3             	sub    %rax,%rbx
    6d77:	48 c1 fb 03          	sar    $0x3,%rbx
    6d7b:	66 69 c3 ab aa       	imul   $0xaaab,%bx,%ax
    6d80:	5b                   	pop    %rbx
    6d81:	5d                   	pop    %rbp
    6d82:	41 5c                	pop    %r12
    6d84:	41 5d                	pop    %r13
    6d86:	41 5e                	pop    %r14
    6d88:	c3                   	ret    
    6d89:	0f 1f 80 00 00 00 00 	nopl   0x0(%rax)
    6d90:	41 c6 45 00 3a       	movb   $0x3a,0x0(%r13)
    6d95:	0f 1f 00             	nopl   (%rax)
    6d98:	31 c0                	xor    %eax,%eax
    6d9a:	5b                   	pop    %rbx
    6d9b:	5d                   	pop    %rbp
    6d9c:	41 5c                	pop    %r12
    6d9e:	41 5d                	pop    %r13
    6da0:	41 5e                	pop    %r14
    6da2:	c3                   	ret    
    6da3:	0f 1f 44 00 00       	nopl   0x0(%rax,%rax,1)
    6da8:	c6 00 00             	movb   $0x0,(%rax)
    6dab:	48 85 db             	test   %rbx,%rbx
    6dae:	74 e0                	je     6d90 <find.part.0+0x80>
    6db0:	45 0f b7 34 24       	movzwl (%r12),%r14d
    6db5:	48 89 dd             	mov    %rbx,%rbp
    6db8:	eb 0f                	jmp    6dc9 <find.part.0+0xb9>
    6dba:	66 0f 1f 44 00 00    	nopw   0x0(%rax,%rax,1)
    6dc0:	48 8b 6d 08          	mov    0x8(%rbp),%rbp
    6dc4:	48 85 ed             	test   %rbp,%rbp
    6dc7:	74 c7                	je     6d90 <find.part.0+0x80>
    6dc9:	48 8b 7d 00          	mov    0x0(%rbp),%rdi
    6dcd:	66 44 39 37          	cmp    %r14w,(%rdi)
    6dd1:	75 ed                	jne    6dc0 <find.part.0+0xb0>
    6dd3:	4c 89 e6             	mov    %r12,%rsi
    6dd6:	e8 05 c4 ff ff       	call   31e0 <strcmp@plt>
    6ddb:	85 c0                	test   %eax,%eax
    6ddd:	75 e1                	jne    6dc0 <find.part.0+0xb0>
    6ddf:	48 8b 5d 10          	mov    0x10(%rbp),%rbx
    6de3:	48 39 eb             	cmp    %rbp,%rbx
    6de6:	74 4e                	je     6e36 <find.part.0+0x126>
    6de8:	48 85 db             	test   %rbx,%rbx
    6deb:	74 49                	je     6e36 <find.part.0+0x126>
    6ded:	45 0f b7 65 01       	movzwl 0x1(%r13),%r12d
    6df2:	4d 8d 75 01          	lea    0x1(%r13),%r14
    6df6:	eb 16                	jmp    6e0e <find.part.0+0xfe>
    6df8:	0f 1f 84 00 00 00 00 	nopl   0x0(%rax,%rax,1)
    6dff:	00 
    6e00:	48 8b 5b 08          	mov    0x8(%rbx),%rbx
    6e04:	48 85 db             	test   %rbx,%rbx
    6e07:	74 2d                	je     6e36 <find.part.0+0x126>
    6e09:	48 39 eb             	cmp    %rbp,%rbx
    6e0c:	74 28                	je     6e36 <find.part.0+0x126>
    6e0e:	48 8b 3b             	mov    (%rbx),%rdi
    6e11:	66 44 39 27          	cmp    %r12w,(%rdi)
    6e15:	75 e9                	jne    6e00 <find.part.0+0xf0>
    6e17:	4c 89 f6             	mov    %r14,%rsi
    6e1a:	e8 c1 c3 ff ff       	call   31e0 <strcmp@plt>
    6e1f:	85 c0                	test   %eax,%eax
    6e21:	75 dd                	jne    6e00 <find.part.0+0xf0>
    6e23:	48 39 eb             	cmp    %rbp,%rbx
    6e26:	0f 84 64 ff ff ff    	je     6d90 <find.part.0+0x80>
    6e2c:	41 c6 45 00 3a       	movb   $0x3a,0x0(%r13)
    6e31:	e9 37 ff ff ff       	jmp    6d6d <find.part.0+0x5d>
    6e36:	48 39 dd             	cmp    %rbx,%rbp
    6e39:	0f 84 51 ff ff ff    	je     6d90 <find.part.0+0x80>
    6e3f:	41 c6 45 00 3a       	movb   $0x3a,0x0(%r13)
    6e44:	48 85 db             	test   %rbx,%rbx
    6e47:	0f 85 20 ff ff ff    	jne    6d6d <find.part.0+0x5d>
    6e4d:	31 c0                	xor    %eax,%eax
    6e4f:	e9 46 ff ff ff       	jmp    6d9a <find.part.0+0x8a>
    6e54:	66 66 2e 0f 1f 84 00 	data16 cs nopw 0x0(%rax,%rax,1)
    6e5b:	00 00 00 00 
    6e5f:	90                   	nop

0000000000006e60 <number.part.0>:
    6e60:	41 56                	push   %r14
    6e62:	41 55                	push   %r13
    6e64:	41 54                	push   %r12
    6e66:	49 89 f4             	mov    %rsi,%r12
    6e69:	55                   	push   %rbp
    6e6a:	48 89 fd             	mov    %rdi,%rbp
    6e6d:	53                   	push   %rbx
    6e6e:	48 83 ec 40          	sub    $0x40,%rsp
    6e72:	64 48 8b 04 25 28 00 	mov    %fs:0x28,%rax
    6e79:	00 00 
    6e7b:	48 89 44 24 38       	mov    %rax,0x38(%rsp)
    6e80:	31 c0                	xor    %eax,%eax
    6e82:	4c 8d 6c 24 10       	lea    0x10(%rsp),%r13
    6e87:	e8 54 c2 ff ff       	call   30e0 <strlen@plt>
    6e8c:	ba 1f 00 00 00       	mov    $0x1f,%edx
    6e91:	48 89 ee             	mov    %rbp,%rsi
    6e94:	4c 89 ef             	mov    %r13,%rdi
    6e97:	39 d0                	cmp    %edx,%eax
    6e99:	0f 4e d0             	cmovle %eax,%edx
    6e9c:	4c 63 f2             	movslq %edx,%r14
    6e9f:	4c 89 f3             	mov    %r14,%rbx
    6ea2:	4c 89 f2             	mov    %r14,%rdx
    6ea5:	e8 b6 c1 ff ff       	call   3060 <strncpy@plt>
    6eaa:	83 eb 01             	sub    $0x1,%ebx
    6ead:	42 c6 44 34 10 00    	movb   $0x0,0x10(%rsp,%r14,1)
    6eb3:	48 63 db             	movslq %ebx,%rbx
    6eb6:	0f b6 44 1c 10       	movzbl 0x10(%rsp,%rbx,1),%eax
    6ebb:	3c 68                	cmp    $0x68,%al
    6ebd:	0f 84 8d 00 00 00    	je     6f50 <number.part.0+0xf0>
    6ec3:	3c 62                	cmp    $0x62,%al
    6ec5:	74 41                	je     6f08 <number.part.0+0xa8>
    6ec7:	66 81 7c 24 10 30 78 	cmpw   $0x7830,0x10(%rsp)
    6ece:	ba 0a 00 00 00       	mov    $0xa,%edx
    6ed3:	b8 10 00 00 00       	mov    $0x10,%eax
    6ed8:	0f 44 d0             	cmove  %eax,%edx
    6edb:	31 c0                	xor    %eax,%eax
    6edd:	80 7c 24 10 00       	cmpb   $0x0,0x10(%rsp)
    6ee2:	75 37                	jne    6f1b <number.part.0+0xbb>
    6ee4:	48 8b 54 24 38       	mov    0x38(%rsp),%rdx
    6ee9:	64 48 2b 14 25 28 00 	sub    %fs:0x28,%rdx
    6ef0:	00 00 
    6ef2:	75 6b                	jne    6f5f <number.part.0+0xff>
    6ef4:	48 83 c4 40          	add    $0x40,%rsp
    6ef8:	5b                   	pop    %rbx
    6ef9:	5d                   	pop    %rbp
    6efa:	41 5c                	pop    %r12
    6efc:	41 5d                	pop    %r13
    6efe:	41 5e                	pop    %r14
    6f00:	c3                   	ret    
    6f01:	0f 1f 80 00 00 00 00 	nopl   0x0(%rax)
    6f08:	c6 44 1c 10 00       	movb   $0x0,0x10(%rsp,%rbx,1)
    6f0d:	31 c0                	xor    %eax,%eax
    6f0f:	80 7c 24 10 00       	cmpb   $0x0,0x10(%rsp)
    6f14:	ba 02 00 00 00       	mov    $0x2,%edx
    6f19:	74 c9                	je     6ee4 <number.part.0+0x84>
    6f1b:	4c 89 ef             	mov    %r13,%rdi
    6f1e:	48 8d 74 24 08       	lea    0x8(%rsp),%rsi
    6f23:	e8 d8 c2 ff ff       	call   3200 <strtol@plt>
    6f28:	4c 89 ef             	mov    %r13,%rdi
    6f2b:	49 89 04 24          	mov    %rax,(%r12)
    6f2f:	e8 ac c1 ff ff       	call   30e0 <strlen@plt>
    6f34:	49 01 c5             	add    %rax,%r13
    6f37:	31 c0                	xor    %eax,%eax
    6f39:	4c 39 6c 24 08       	cmp    %r13,0x8(%rsp)
    6f3e:	0f 94 c0             	sete   %al
    6f41:	48 f7 d8             	neg    %rax
    6f44:	eb 9e                	jmp    6ee4 <number.part.0+0x84>
    6f46:	66 2e 0f 1f 84 00 00 	cs nopw 0x0(%rax,%rax,1)
    6f4d:	00 00 00 
    6f50:	c6 44 1c 10 00       	movb   $0x0,0x10(%rsp,%rbx,1)
    6f55:	ba 10 00 00 00       	mov    $0x10,%edx
    6f5a:	e9 7c ff ff ff       	jmp    6edb <number.part.0+0x7b>
    6f5f:	e8 8c c1 ff ff       	call   30f0 <__stack_chk_fail@plt>
    6f64:	66 66 2e 0f 1f 84 00 	data16 cs nopw 0x0(%rax,%rax,1)
    6f6b:	00 00 00 00 
    6f6f:	90                   	nop

0000000000006f70 <slurp>:
    6f70:	41 55                	push   %r13
    6f72:	41 54                	push   %r12
    6f74:	49 89 fc             	mov    %rdi,%r12
    6f77:	bf 01 04 00 00       	mov    $0x401,%edi
    6f7c:	55                   	push   %rbp
    6f7d:	53                   	push   %rbx
    6f7e:	48 83 ec 08          	sub    $0x8,%rsp
    6f82:	e8 a9 c2 ff ff       	call   3230 <malloc@plt>
    6f87:	48 8d 35 02 21 00 00 	lea    0x2102(%rip),%rsi        # 9090 <_IO_stdin_used+0x90>
    6f8e:	4c 89 e7             	mov    %r12,%rdi
    6f91:	48 89 c5             	mov    %rax,%rbp
    6f94:	e8 27 c3 ff ff       	call   32c0 <fopen@plt>
    6f99:	48 85 c0             	test   %rax,%rax
    6f9c:	74 66                	je     7004 <slurp+0x94>
    6f9e:	49 89 c5             	mov    %rax,%r13
    6fa1:	41 bc 01 08 00 00    	mov    $0x801,%r12d
    6fa7:	31 db                	xor    %ebx,%ebx
    6fa9:	eb 1a                	jmp    6fc5 <slurp+0x55>
    6fab:	0f 1f 44 00 00       	nopl   0x0(%rax,%rax,1)
    6fb0:	4c 89 e6             	mov    %r12,%rsi
    6fb3:	48 89 ef             	mov    %rbp,%rdi
    6fb6:	49 81 c4 00 04 00 00 	add    $0x400,%r12
    6fbd:	e8 8e c2 ff ff       	call   3250 <realloc@plt>
    6fc2:	48 89 c5             	mov    %rax,%rbp
    6fc5:	48 63 fb             	movslq %ebx,%rdi
    6fc8:	ba 00 04 00 00       	mov    $0x400,%edx
    6fcd:	4c 89 e9             	mov    %r13,%rcx
    6fd0:	be 01 00 00 00       	mov    $0x1,%esi
    6fd5:	48 01 ef             	add    %rbp,%rdi
    6fd8:	e8 b3 c0 ff ff       	call   3090 <fread@plt>
    6fdd:	01 c3                	add    %eax,%ebx
    6fdf:	48 63 d3             	movslq %ebx,%rdx
    6fe2:	c6 44 15 00 00       	movb   $0x0,0x0(%rbp,%rdx,1)
    6fe7:	3d ff 03 00 00       	cmp    $0x3ff,%eax
    6fec:	77 c2                	ja     6fb0 <slurp+0x40>
    6fee:	4c 89 ef             	mov    %r13,%rdi
    6ff1:	e8 ca c0 ff ff       	call   30c0 <fclose@plt>
    6ff6:	48 83 c4 08          	add    $0x8,%rsp
    6ffa:	48 89 e8             	mov    %rbp,%rax
    6ffd:	5b                   	pop    %rbx
    6ffe:	5d                   	pop    %rbp
    6fff:	41 5c                	pop    %r12
    7001:	41 5d                	pop    %r13
    7003:	c3                   	ret    
    7004:	31 ed                	xor    %ebp,%ebp
    7006:	eb ee                	jmp    6ff6 <slurp+0x86>
    7008:	0f 1f 84 00 00 00 00 	nopl   0x0(%rax,%rax,1)
    700f:	00 

0000000000007010 <blurt>:
    7010:	41 54                	push   %r12
    7012:	49 89 f4             	mov    %rsi,%r12
    7015:	48 8d 35 eb 1f 00 00 	lea    0x1feb(%rip),%rsi        # 9007 <_IO_stdin_used+0x7>
    701c:	55                   	push   %rbp
    701d:	53                   	push   %rbx
    701e:	89 d3                	mov    %edx,%ebx
    7020:	e8 9b c2 ff ff       	call   32c0 <fopen@plt>
    7025:	48 85 c0             	test   %rax,%rax
    7028:	74 1b                	je     7045 <blurt+0x35>
    702a:	48 89 c1             	mov    %rax,%rcx
    702d:	48 89 da             	mov    %rbx,%rdx
    7030:	be 01 00 00 00       	mov    $0x1,%esi
    7035:	4c 89 e7             	mov    %r12,%rdi
    7038:	48 89 c5             	mov    %rax,%rbp
    703b:	e8 b0 c2 ff ff       	call   32f0 <fwrite@plt>
    7040:	48 39 c3             	cmp    %rax,%rbx
    7043:	74 0b                	je     7050 <blurt+0x40>
    7045:	5b                   	pop    %rbx
    7046:	31 c0                	xor    %eax,%eax
    7048:	5d                   	pop    %rbp
    7049:	41 5c                	pop    %r12
    704b:	c3                   	ret    
    704c:	0f 1f 40 00          	nopl   0x0(%rax)
    7050:	48 89 ef             	mov    %rbp,%rdi
    7053:	e8 68 c0 ff ff       	call   30c0 <fclose@plt>
    7058:	5b                   	pop    %rbx
    7059:	b8 01 00 00 00       	mov    $0x1,%eax
    705e:	5d                   	pop    %rbp
    705f:	41 5c                	pop    %r12
    7061:	c3                   	ret    
    7062:	66 66 2e 0f 1f 84 00 	data16 cs nopw 0x0(%rax,%rax,1)
    7069:	00 00 00 00 
    706d:	0f 1f 00             	nopl   (%rax)

0000000000007070 <compile>:
    7070:	48 8b 06             	mov    (%rsi),%rax
    7073:	48 8d 15 c6 07 23 00 	lea    0x2307c6(%rip),%rdx        # 237840 <current>
    707a:	48 8d 48 04          	lea    0x4(%rax),%rcx
    707e:	48 39 d1             	cmp    %rdx,%rcx
    7081:	0f 83 0c 01 00 00    	jae    7193 <compile+0x123>
    7087:	48 8b 15 9a 87 00 00 	mov    0x879a(%rip),%rdx        # f828 <compile_last>
    708e:	48 8d 48 fe          	lea    -0x2(%rax),%rcx
    7092:	48 39 ca             	cmp    %rcx,%rdx
    7095:	74 21                	je     70b8 <compile+0x48>
    7097:	48 8d 48 f6          	lea    -0xa(%rax),%rcx
    709b:	48 39 ca             	cmp    %rcx,%rdx
    709e:	74 78                	je     7118 <compile+0xa8>
    70a0:	48 89 05 81 87 00 00 	mov    %rax,0x8781(%rip)        # f828 <compile_last>
    70a7:	48 83 c0 02          	add    $0x2,%rax
    70ab:	66 89 78 fe          	mov    %di,-0x2(%rax)
    70af:	48 89 06             	mov    %rax,(%rsi)
    70b2:	c3                   	ret    
    70b3:	0f 1f 44 00 00       	nopl   0x0(%rax,%rax,1)
    70b8:	0f b7 0a             	movzwl (%rdx),%ecx
    70bb:	66 83 f9 19          	cmp    $0x19,%cx
    70bf:	0f 84 ab 00 00 00    	je     7170 <compile+0x100>
    70c5:	7f 39                	jg     7100 <compile+0x90>
    70c7:	66 83 f9 0a          	cmp    $0xa,%cx
    70cb:	74 6b                	je     7138 <compile+0xc8>
    70cd:	66 83 f9 0f          	cmp    $0xf,%cx
    70d1:	75 cd                	jne    70a0 <compile+0x30>
    70d3:	66 83 ff 19          	cmp    $0x19,%di
    70d7:	0f 84 9d 00 00 00    	je     717a <compile+0x10a>
    70dd:	7e 71                	jle    7150 <compile+0xe0>
    70df:	66 83 ff 1b          	cmp    $0x1b,%di
    70e3:	74 27                	je     710c <compile+0x9c>
    70e5:	66 83 ff 79          	cmp    $0x79,%di
    70e9:	75 b5                	jne    70a0 <compile+0x30>
    70eb:	41 b8 a6 00 00 00    	mov    $0xa6,%r8d
    70f1:	66 44 89 02          	mov    %r8w,(%rdx)
    70f5:	c3                   	ret    
    70f6:	66 2e 0f 1f 84 00 00 	cs nopw 0x0(%rax,%rax,1)
    70fd:	00 00 00 
    7100:	66 83 f9 1b          	cmp    $0x1b,%cx
    7104:	75 91                	jne    7097 <compile+0x27>
    7106:	66 83 ff 1c          	cmp    $0x1c,%di
    710a:	75 94                	jne    70a0 <compile+0x30>
    710c:	bf a2 00 00 00       	mov    $0xa2,%edi
    7111:	66 89 3a             	mov    %di,(%rdx)
    7114:	c3                   	ret    
    7115:	0f 1f 00             	nopl   (%rax)
    7118:	66 83 3a 77          	cmpw   $0x77,(%rdx)
    711c:	75 82                	jne    70a0 <compile+0x30>
    711e:	66 83 ff 28          	cmp    $0x28,%di
    7122:	0f 85 78 ff ff ff    	jne    70a0 <compile+0x30>
    7128:	b8 a8 00 00 00       	mov    $0xa8,%eax
    712d:	66 89 02             	mov    %ax,(%rdx)
    7130:	c3                   	ret    
    7131:	0f 1f 80 00 00 00 00 	nopl   0x0(%rax)
    7138:	66 83 ff 28          	cmp    $0x28,%di
    713c:	0f 85 5e ff ff ff    	jne    70a0 <compile+0x30>
    7142:	b9 a7 00 00 00       	mov    $0xa7,%ecx
    7147:	66 89 0a             	mov    %cx,(%rdx)
    714a:	c3                   	ret    
    714b:	0f 1f 44 00 00       	nopl   0x0(%rax,%rax,1)
    7150:	66 83 ff 0d          	cmp    $0xd,%di
    7154:	74 32                	je     7188 <compile+0x118>
    7156:	66 83 ff 0e          	cmp    $0xe,%di
    715a:	0f 85 40 ff ff ff    	jne    70a0 <compile+0x30>
    7160:	41 b9 a5 00 00 00    	mov    $0xa5,%r9d
    7166:	66 44 89 0a          	mov    %r9w,(%rdx)
    716a:	c3                   	ret    
    716b:	0f 1f 44 00 00       	nopl   0x0(%rax,%rax,1)
    7170:	66 83 ff 1a          	cmp    $0x1a,%di
    7174:	0f 85 26 ff ff ff    	jne    70a0 <compile+0x30>
    717a:	be a3 00 00 00       	mov    $0xa3,%esi
    717f:	66 89 32             	mov    %si,(%rdx)
    7182:	c3                   	ret    
    7183:	0f 1f 44 00 00       	nopl   0x0(%rax,%rax,1)
    7188:	41 ba a4 00 00 00    	mov    $0xa4,%r10d
    718e:	66 44 89 12          	mov    %r10w,(%rdx)
    7192:	c3                   	ret    
    7193:	41 53                	push   %r11
    7195:	48 8b 0d e4 80 00 00 	mov    0x80e4(%rip),%rcx        # f280 <stderr@@GLIBC_2.2.5>
    719c:	ba 13 00 00 00       	mov    $0x13,%edx
    71a1:	be 01 00 00 00       	mov    $0x1,%esi
    71a6:	48 8d 3d 5d 1e 00 00 	lea    0x1e5d(%rip),%rdi        # 900a <_IO_stdin_used+0xa>
    71ad:	e8 3e c1 ff ff       	call   32f0 <fwrite@plt>
    71b2:	48 8b 35 c7 80 00 00 	mov    0x80c7(%rip),%rsi        # f280 <stderr@@GLIBC_2.2.5>
    71b9:	bf 0a 00 00 00       	mov    $0xa,%edi
    71be:	e8 cd bf ff ff       	call   3190 <fputc@plt>
    71c3:	bf 01 00 00 00       	mov    $0x1,%edi
    71c8:	e8 13 c1 ff ff       	call   32e0 <exit@plt>
    71cd:	0f 1f 00             	nopl   (%rax)

00000000000071d0 <ncompile>:
    71d0:	48 8b 06             	mov    (%rsi),%rax
    71d3:	48 8d 15 66 06 23 00 	lea    0x230666(%rip),%rdx        # 237840 <current>
    71da:	48 8d 48 10          	lea    0x10(%rax),%rcx
    71de:	48 39 d1             	cmp    %rdx,%rcx
    71e1:	73 13                	jae    71f6 <ncompile+0x26>
    71e3:	48 89 05 36 86 00 00 	mov    %rax,0x8636(%rip)        # f820 <ncompile_last>
    71ea:	48 83 c0 08          	add    $0x8,%rax
    71ee:	48 89 78 f8          	mov    %rdi,-0x8(%rax)
    71f2:	48 89 06             	mov    %rax,(%rsi)
    71f5:	c3                   	ret    
    71f6:	50                   	push   %rax
    71f7:	48 8b 0d 82 80 00 00 	mov    0x8082(%rip),%rcx        # f280 <stderr@@GLIBC_2.2.5>
    71fe:	ba 13 00 00 00       	mov    $0x13,%edx
    7203:	be 01 00 00 00       	mov    $0x1,%esi
    7208:	48 8d 3d fb 1d 00 00 	lea    0x1dfb(%rip),%rdi        # 900a <_IO_stdin_used+0xa>
    720f:	e8 dc c0 ff ff       	call   32f0 <fwrite@plt>
    7214:	48 8b 35 65 80 00 00 	mov    0x8065(%rip),%rsi        # f280 <stderr@@GLIBC_2.2.5>
    721b:	bf 0a 00 00 00       	mov    $0xa,%edi
    7220:	e8 6b bf ff ff       	call   3190 <fputc@plt>
    7225:	bf 01 00 00 00       	mov    $0x1,%edi
    722a:	e8 b1 c0 ff ff       	call   32e0 <exit@plt>
    722f:	90                   	nop

0000000000007230 <scompile>:
    7230:	41 54                	push   %r12
    7232:	55                   	push   %rbp
    7233:	48 89 f5             	mov    %rsi,%rbp
    7236:	53                   	push   %rbx
    7237:	4c 8b 26             	mov    (%rsi),%r12
    723a:	48 89 fb             	mov    %rdi,%rbx
    723d:	e8 9e be ff ff       	call   30e0 <strlen@plt>
    7242:	49 8d 54 44 02       	lea    0x2(%r12,%rax,2),%rdx
    7247:	48 8d 05 f2 05 23 00 	lea    0x2305f2(%rip),%rax        # 237840 <current>
    724e:	48 39 c2             	cmp    %rax,%rdx
    7251:	73 64                	jae    72b7 <scompile+0x87>
    7253:	0f b6 03             	movzbl (%rbx),%eax
    7256:	49 8d 4c 24 02       	lea    0x2(%r12),%rcx
    725b:	48 89 ca             	mov    %rcx,%rdx
    725e:	84 c0                	test   %al,%al
    7260:	74 17                	je     7279 <scompile+0x49>
    7262:	66 0f 1f 44 00 00    	nopw   0x0(%rax,%rax,1)
    7268:	48 83 c3 01          	add    $0x1,%rbx
    726c:	88 02                	mov    %al,(%rdx)
    726e:	48 83 c2 01          	add    $0x1,%rdx
    7272:	0f b6 03             	movzbl (%rbx),%eax
    7275:	84 c0                	test   %al,%al
    7277:	75 ef                	jne    7268 <scompile+0x38>
    7279:	48 8d 42 01          	lea    0x1(%rdx),%rax
    727d:	c6 02 00             	movb   $0x0,(%rdx)
    7280:	48 89 c2             	mov    %rax,%rdx
    7283:	48 29 ca             	sub    %rcx,%rdx
    7286:	83 e2 01             	and    $0x1,%edx
    7289:	74 18                	je     72a3 <scompile+0x73>
    728b:	0f 1f 44 00 00       	nopl   0x0(%rax,%rax,1)
    7290:	48 83 c0 01          	add    $0x1,%rax
    7294:	c6 40 ff 00          	movb   $0x0,-0x1(%rax)
    7298:	48 89 c2             	mov    %rax,%rdx
    729b:	48 29 ca             	sub    %rcx,%rdx
    729e:	83 e2 01             	and    $0x1,%edx
    72a1:	75 ed                	jne    7290 <scompile+0x60>
    72a3:	48 89 c2             	mov    %rax,%rdx
    72a6:	4c 29 e2             	sub    %r12,%rdx
    72a9:	66 41 89 14 24       	mov    %dx,(%r12)
    72ae:	5b                   	pop    %rbx
    72af:	48 89 45 00          	mov    %rax,0x0(%rbp)
    72b3:	5d                   	pop    %rbp
    72b4:	41 5c                	pop    %r12
    72b6:	c3                   	ret    
    72b7:	48 8b 0d c2 7f 00 00 	mov    0x7fc2(%rip),%rcx        # f280 <stderr@@GLIBC_2.2.5>
    72be:	ba 13 00 00 00       	mov    $0x13,%edx
    72c3:	be 01 00 00 00       	mov    $0x1,%esi
    72c8:	48 8d 3d 3b 1d 00 00 	lea    0x1d3b(%rip),%rdi        # 900a <_IO_stdin_used+0xa>
    72cf:	e8 1c c0 ff ff       	call   32f0 <fwrite@plt>
    72d4:	48 8b 35 a5 7f 00 00 	mov    0x7fa5(%rip),%rsi        # f280 <stderr@@GLIBC_2.2.5>
    72db:	bf 0a 00 00 00       	mov    $0xa,%edi
    72e0:	e8 ab be ff ff       	call   3190 <fputc@plt>
    72e5:	bf 01 00 00 00       	mov    $0x1,%edi
    72ea:	e8 f1 bf ff ff       	call   32e0 <exit@plt>
    72ef:	90                   	nop

00000000000072f0 <mark>:
    72f0:	41 54                	push   %r12
    72f2:	4c 8b 27             	mov    (%rdi),%r12
    72f5:	48 89 fe             	mov    %rdi,%rsi
    72f8:	31 ff                	xor    %edi,%edi
    72fa:	e8 71 fd ff ff       	call   7070 <compile>
    72ff:	4c 89 e0             	mov    %r12,%rax
    7302:	41 5c                	pop    %r12
    7304:	c3                   	ret    
    7305:	66 66 2e 0f 1f 84 00 	data16 cs nopw 0x0(%rax,%rax,1)
    730c:	00 00 00 00 

0000000000007310 <patch>:
    7310:	48 8b 06             	mov    (%rsi),%rax
    7313:	48 29 f8             	sub    %rdi,%rax
    7316:	66 89 07             	mov    %ax,(%rdi)
    7319:	c3                   	ret    
    731a:	66 0f 1f 44 00 00    	nopw   0x0(%rax,%rax,1)

0000000000007320 <parse>:
    7320:	48 8b 15 59 05 23 00 	mov    0x230559(%rip),%rdx        # 237880 <source>
    7327:	0f b6 0a             	movzbl (%rdx),%ecx
    732a:	84 c9                	test   %cl,%cl
    732c:	75 0e                	jne    733c <parse+0x1c>
    732e:	eb 58                	jmp    7388 <parse+0x68>
    7330:	0f b6 4a 01          	movzbl 0x1(%rdx),%ecx
    7334:	48 83 c2 01          	add    $0x1,%rdx
    7338:	84 c9                	test   %cl,%cl
    733a:	74 4c                	je     7388 <parse+0x68>
    733c:	80 f9 20             	cmp    $0x20,%cl
    733f:	7e ef                	jle    7330 <parse+0x10>
    7341:	b8 01 00 00 00       	mov    $0x1,%eax
    7346:	48 8d 3d d2 80 00 00 	lea    0x80d2(%rip),%rdi        # f41f <sparse_i+0x17>
    734d:	eb 0d                	jmp    735c <parse+0x3c>
    734f:	90                   	nop
    7350:	48 83 c0 01          	add    $0x1,%rax
    7354:	48 3d 00 04 00 00    	cmp    $0x400,%rax
    735a:	74 42                	je     739e <parse+0x7e>
    735c:	48 83 c2 01          	add    $0x1,%rdx
    7360:	88 0c 07             	mov    %cl,(%rdi,%rax,1)
    7363:	48 63 f0             	movslq %eax,%rsi
    7366:	0f b6 0a             	movzbl (%rdx),%ecx
    7369:	80 f9 20             	cmp    $0x20,%cl
    736c:	7f e2                	jg     7350 <parse+0x30>
    736e:	48 8d 05 ab 80 00 00 	lea    0x80ab(%rip),%rax        # f420 <parsed>
    7375:	48 89 15 04 05 23 00 	mov    %rdx,0x230504(%rip)        # 237880 <source>
    737c:	c6 04 30 00          	movb   $0x0,(%rax,%rsi,1)
    7380:	c3                   	ret    
    7381:	0f 1f 80 00 00 00 00 	nopl   0x0(%rax)
    7388:	80 f9 20             	cmp    $0x20,%cl
    738b:	7f b4                	jg     7341 <parse+0x21>
    738d:	c6 05 8c 80 00 00 00 	movb   $0x0,0x808c(%rip)        # f420 <parsed>
    7394:	31 c0                	xor    %eax,%eax
    7396:	48 89 15 e3 04 23 00 	mov    %rdx,0x2304e3(%rip)        # 237880 <source>
    739d:	c3                   	ret    
    739e:	c6 05 7a 84 00 00 00 	movb   $0x0,0x847a(%rip)        # f81f <parsed+0x3ff>
    73a5:	48 8d 05 74 80 00 00 	lea    0x8074(%rip),%rax        # f420 <parsed>
    73ac:	48 89 15 cd 04 23 00 	mov    %rdx,0x2304cd(%rip)        # 237880 <source>
    73b3:	c3                   	ret    
    73b4:	66 66 2e 0f 1f 84 00 	data16 cs nopw 0x0(%rax,%rax,1)
    73bb:	00 00 00 00 
    73bf:	90                   	nop

00000000000073c0 <sparse>:
    73c0:	41 54                	push   %r12
    73c2:	bf 00 04 00 00       	mov    $0x400,%edi
    73c7:	55                   	push   %rbp
    73c8:	48 8d 2d 21 80 00 00 	lea    0x8021(%rip),%rbp        # f3f0 <sparse_bufs>
    73cf:	53                   	push   %rbx
    73d0:	e8 5b be ff ff       	call   3230 <malloc@plt>
    73d5:	48 63 1d 2c 80 00 00 	movslq 0x802c(%rip),%rbx        # f408 <sparse_i>
    73dc:	31 c9                	xor    %ecx,%ecx
    73de:	49 89 c4             	mov    %rax,%r12
    73e1:	83 fb 02             	cmp    $0x2,%ebx
    73e4:	8d 53 01             	lea    0x1(%rbx),%edx
    73e7:	48 8b 7c dd 00       	mov    0x0(%rbp,%rbx,8),%rdi
    73ec:	0f 44 d1             	cmove  %ecx,%edx
    73ef:	89 15 13 80 00 00    	mov    %edx,0x8013(%rip)        # f408 <sparse_i>
    73f5:	e8 46 bc ff ff       	call   3040 <free@plt>
    73fa:	48 8b 05 7f 04 23 00 	mov    0x23047f(%rip),%rax        # 237880 <source>
    7401:	4c 89 64 dd 00       	mov    %r12,0x0(%rbp,%rbx,8)
    7406:	48 8d 50 01          	lea    0x1(%rax),%rdx
    740a:	44 0f b6 00          	movzbl (%rax),%r8d
    740e:	48 8d 78 02          	lea    0x2(%rax),%rdi
    7412:	0f b6 40 01          	movzbl 0x1(%rax),%eax
    7416:	84 c0                	test   %al,%al
    7418:	0f 84 ec 00 00 00    	je     750a <sparse+0x14a>
    741e:	4c 89 e6             	mov    %r12,%rsi
    7421:	31 c9                	xor    %ecx,%ecx
    7423:	4c 8d 1d b6 1f 00 00 	lea    0x1fb6(%rip),%r11        # 93e0 <_IO_stdin_used+0x3e0>
    742a:	eb 27                	jmp    7453 <sparse+0x93>
    742c:	0f 1f 40 00          	nopl   0x0(%rax)
    7430:	48 89 fa             	mov    %rdi,%rdx
    7433:	88 06                	mov    %al,(%rsi)
    7435:	0f b6 02             	movzbl (%rdx),%eax
    7438:	83 c1 01             	add    $0x1,%ecx
    743b:	48 8d 7a 01          	lea    0x1(%rdx),%rdi
    743f:	84 c0                	test   %al,%al
    7441:	74 4d                	je     7490 <sparse+0xd0>
    7443:	48 83 c6 01          	add    $0x1,%rsi
    7447:	81 f9 ff 03 00 00    	cmp    $0x3ff,%ecx
    744d:	0f 84 ad 00 00 00    	je     7500 <sparse+0x140>
    7453:	41 38 c0             	cmp    %al,%r8b
    7456:	74 38                	je     7490 <sparse+0xd0>
    7458:	3c 5c                	cmp    $0x5c,%al
    745a:	75 d4                	jne    7430 <sparse+0x70>
    745c:	44 0f b6 4a 01       	movzbl 0x1(%rdx),%r9d
    7461:	45 84 c9             	test   %r9b,%r9b
    7464:	74 ca                	je     7430 <sparse+0x70>
    7466:	48 83 c2 02          	add    $0x2,%rdx
    746a:	41 80 f9 6e          	cmp    $0x6e,%r9b
    746e:	74 40                	je     74b0 <sparse+0xf0>
    7470:	45 8d 51 a4          	lea    -0x5c(%r9),%r10d
    7474:	41 80 fa 18          	cmp    $0x18,%r10b
    7478:	77 46                	ja     74c0 <sparse+0x100>
    747a:	45 0f b6 d2          	movzbl %r10b,%r10d
    747e:	4f 63 14 93          	movslq (%r11,%r10,4),%r10
    7482:	4d 01 da             	add    %r11,%r10
    7485:	41 ff e2             	jmp    *%r10
    7488:	0f 1f 84 00 00 00 00 	nopl   0x0(%rax,%rax,1)
    748f:	00 
    7490:	48 63 c9             	movslq %ecx,%rcx
    7493:	4c 01 e1             	add    %r12,%rcx
    7496:	c6 01 00             	movb   $0x0,(%rcx)
    7499:	4c 89 e0             	mov    %r12,%rax
    749c:	5b                   	pop    %rbx
    749d:	5d                   	pop    %rbp
    749e:	41 5c                	pop    %r12
    74a0:	48 89 3d d9 03 23 00 	mov    %rdi,0x2303d9(%rip)        # 237880 <source>
    74a7:	c3                   	ret    
    74a8:	0f 1f 84 00 00 00 00 	nopl   0x0(%rax,%rax,1)
    74af:	00 
    74b0:	b8 0a 00 00 00       	mov    $0xa,%eax
    74b5:	e9 79 ff ff ff       	jmp    7433 <sparse+0x73>
    74ba:	66 0f 1f 44 00 00    	nopw   0x0(%rax,%rax,1)
    74c0:	45 38 c1             	cmp    %r8b,%r9b
    74c3:	48 0f 45 d7          	cmovne %rdi,%rdx
    74c7:	41 0f 44 c0          	cmove  %r8d,%eax
    74cb:	e9 63 ff ff ff       	jmp    7433 <sparse+0x73>
    74d0:	b8 09 00 00 00       	mov    $0x9,%eax
    74d5:	e9 59 ff ff ff       	jmp    7433 <sparse+0x73>
    74da:	b8 07 00 00 00       	mov    $0x7,%eax
    74df:	e9 4f ff ff ff       	jmp    7433 <sparse+0x73>
    74e4:	44 89 c8             	mov    %r9d,%eax
    74e7:	e9 47 ff ff ff       	jmp    7433 <sparse+0x73>
    74ec:	b8 0d 00 00 00       	mov    $0xd,%eax
    74f1:	e9 3d ff ff ff       	jmp    7433 <sparse+0x73>
    74f6:	b8 1b 00 00 00       	mov    $0x1b,%eax
    74fb:	e9 33 ff ff ff       	jmp    7433 <sparse+0x73>
    7500:	49 8d 8c 24 ff 03 00 	lea    0x3ff(%r12),%rcx
    7507:	00 
    7508:	eb 8c                	jmp    7496 <sparse+0xd6>
    750a:	4c 89 e1             	mov    %r12,%rcx
    750d:	eb 87                	jmp    7496 <sparse+0xd6>
    750f:	90                   	nop

0000000000007510 <label>:
    7510:	55                   	push   %rbp
    7511:	31 c0                	xor    %eax,%eax
    7513:	48 89 fd             	mov    %rdi,%rbp
    7516:	53                   	push   %rbx
    7517:	48 83 ec 08          	sub    $0x8,%rsp
    751b:	48 8b 1f             	mov    (%rdi),%rbx
    751e:	e8 fd fd ff ff       	call   7320 <parse>
    7523:	48 8d 3d f6 7e 00 00 	lea    0x7ef6(%rip),%rdi        # f420 <parsed>
    752a:	e8 d1 bd ff ff       	call   3300 <strdup@plt>
    752f:	48 89 03             	mov    %rax,(%rbx)
    7532:	48 8b 05 07 03 23 00 	mov    0x230307(%rip),%rax        # 237840 <current>
    7539:	48 8b 10             	mov    (%rax),%rdx
    753c:	48 89 5b 10          	mov    %rbx,0x10(%rbx)
    7540:	48 89 53 08          	mov    %rdx,0x8(%rbx)
    7544:	48 89 18             	mov    %rbx,(%rax)
    7547:	48 8d 43 18          	lea    0x18(%rbx),%rax
    754b:	48 89 45 00          	mov    %rax,0x0(%rbp)
    754f:	48 8d 05 ea 82 01 00 	lea    0x182ea(%rip),%rax        # 1f840 <head>
    7556:	48 c7 05 c7 82 00 00 	movq   $0x0,0x82c7(%rip)        # f828 <compile_last>
    755d:	00 00 00 00 
    7561:	48 29 c3             	sub    %rax,%rbx
    7564:	48 c7 05 b1 82 00 00 	movq   $0x0,0x82b1(%rip)        # f820 <ncompile_last>
    756b:	00 00 00 00 
    756f:	48 c1 fb 03          	sar    $0x3,%rbx
    7573:	48 83 c4 08          	add    $0x8,%rsp
    7577:	66 69 c3 ab aa       	imul   $0xaaab,%bx,%ax
    757c:	5b                   	pop    %rbx
    757d:	5d                   	pop    %rbp
    757e:	c3                   	ret    
    757f:	90                   	nop

0000000000007580 <format>:
    7580:	41 57                	push   %r15
    7582:	41 56                	push   %r14
    7584:	41 55                	push   %r13
    7586:	41 54                	push   %r12
    7588:	55                   	push   %rbp
    7589:	53                   	push   %rbx
    758a:	48 89 fb             	mov    %rdi,%rbx
    758d:	bf 00 00 01 00       	mov    $0x10000,%edi
    7592:	48 83 ec 68          	sub    $0x68,%rsp
    7596:	48 89 74 24 10       	mov    %rsi,0x10(%rsp)
    759b:	64 48 8b 04 25 28 00 	mov    %fs:0x28,%rax
    75a2:	00 00 
    75a4:	48 89 44 24 58       	mov    %rax,0x58(%rsp)
    75a9:	48 8b 06             	mov    (%rsi),%rax
    75ac:	48 89 04 24          	mov    %rax,(%rsp)
    75b0:	e8 7b bc ff ff       	call   3230 <malloc@plt>
    75b5:	8b 0d 2d 7e 00 00    	mov    0x7e2d(%rip),%ecx        # f3e8 <format_i>
    75bb:	31 d2                	xor    %edx,%edx
    75bd:	49 89 c6             	mov    %rax,%r14
    75c0:	83 f9 02             	cmp    $0x2,%ecx
    75c3:	8d 41 01             	lea    0x1(%rcx),%eax
    75c6:	89 4c 24 0c          	mov    %ecx,0xc(%rsp)
    75ca:	0f 44 c2             	cmove  %edx,%eax
    75cd:	89 05 15 7e 00 00    	mov    %eax,0x7e15(%rip)        # f3e8 <format_i>
    75d3:	0f b6 03             	movzbl (%rbx),%eax
    75d6:	84 c0                	test   %al,%al
    75d8:	0f 84 ea 01 00 00    	je     77c8 <format+0x248>
    75de:	48 8d 4c 24 30       	lea    0x30(%rsp),%rcx
    75e3:	31 ed                	xor    %ebp,%ebp
    75e5:	45 31 e4             	xor    %r12d,%r12d
    75e8:	48 89 4c 24 18       	mov    %rcx,0x18(%rsp)
    75ed:	eb 1d                	jmp    760c <format+0x8c>
    75ef:	90                   	nop
    75f0:	83 c5 01             	add    $0x1,%ebp
    75f3:	43 88 04 26          	mov    %al,(%r14,%r12,1)
    75f7:	4c 89 fb             	mov    %r15,%rbx
    75fa:	44 89 e8             	mov    %r13d,%eax
    75fd:	4c 63 e5             	movslq %ebp,%r12
    7600:	81 fd fd ff 00 00    	cmp    $0xfffd,%ebp
    7606:	7f 38                	jg     7640 <format+0xc0>
    7608:	84 d2                	test   %dl,%dl
    760a:	74 34                	je     7640 <format+0xc0>
    760c:	44 0f b6 6b 01       	movzbl 0x1(%rbx),%r13d
    7611:	4c 8d 7b 01          	lea    0x1(%rbx),%r15
    7615:	45 84 ed             	test   %r13b,%r13b
    7618:	0f 95 c2             	setne  %dl
    761b:	3c 25                	cmp    $0x25,%al
    761d:	75 d1                	jne    75f0 <format+0x70>
    761f:	84 d2                	test   %dl,%dl
    7621:	74 cd                	je     75f0 <format+0x70>
    7623:	41 80 fd 25          	cmp    $0x25,%r13b
    7627:	75 6f                	jne    7698 <format+0x118>
    7629:	44 0f b6 6b 02       	movzbl 0x2(%rbx),%r13d
    762e:	4c 8d 7b 02          	lea    0x2(%rbx),%r15
    7632:	45 84 ed             	test   %r13b,%r13b
    7635:	0f 95 c2             	setne  %dl
    7638:	eb b6                	jmp    75f0 <format+0x70>
    763a:	66 0f 1f 44 00 00    	nopw   0x0(%rax,%rax,1)
    7640:	4b 8d 14 26          	lea    (%r14,%r12,1),%rdx
    7644:	48 63 6c 24 0c       	movslq 0xc(%rsp),%rbp
    7649:	48 8d 1d 80 7d 00 00 	lea    0x7d80(%rip),%rbx        # f3d0 <format_bufs>
    7650:	c6 02 00             	movb   $0x0,(%rdx)
    7653:	48 8b 3c eb          	mov    (%rbx,%rbp,8),%rdi
    7657:	e8 e4 b9 ff ff       	call   3040 <free@plt>
    765c:	48 8b 44 24 10       	mov    0x10(%rsp),%rax
    7661:	48 8b 3c 24          	mov    (%rsp),%rdi
    7665:	4c 89 34 eb          	mov    %r14,(%rbx,%rbp,8)
    7669:	48 89 38             	mov    %rdi,(%rax)
    766c:	48 8b 44 24 58       	mov    0x58(%rsp),%rax
    7671:	64 48 2b 04 25 28 00 	sub    %fs:0x28,%rax
    7678:	00 00 
    767a:	0f 85 5f 01 00 00    	jne    77df <format+0x25f>
    7680:	48 83 c4 68          	add    $0x68,%rsp
    7684:	4c 89 f0             	mov    %r14,%rax
    7687:	5b                   	pop    %rbx
    7688:	5d                   	pop    %rbp
    7689:	41 5c                	pop    %r12
    768b:	41 5d                	pop    %r13
    768d:	41 5e                	pop    %r14
    768f:	41 5f                	pop    %r15
    7691:	c3                   	ret    
    7692:	66 0f 1f 44 00 00    	nopw   0x0(%rax,%rax,1)
    7698:	4c 89 e0             	mov    %r12,%rax
    769b:	48 8d 54 24 31       	lea    0x31(%rsp),%rdx
    76a0:	4d 89 fc             	mov    %r15,%r12
    76a3:	89 6c 24 20          	mov    %ebp,0x20(%rsp)
    76a7:	c6 44 24 30 25       	movb   $0x25,0x30(%rsp)
    76ac:	48 89 d3             	mov    %rdx,%rbx
    76af:	49 89 c7             	mov    %rax,%r15
    76b2:	4c 89 74 24 28       	mov    %r14,0x28(%rsp)
    76b7:	eb 10                	jmp    76c9 <format+0x149>
    76b9:	0f 1f 80 00 00 00 00 	nopl   0x0(%rax)
    76c0:	45 0f b6 6c 24 01    	movzbl 0x1(%r12),%r13d
    76c6:	49 89 ec             	mov    %rbp,%r12
    76c9:	44 88 2b             	mov    %r13b,(%rbx)
    76cc:	45 0f be f5          	movsbl %r13b,%r14d
    76d0:	48 83 c3 01          	add    $0x1,%rbx
    76d4:	49 8d 6c 24 01       	lea    0x1(%r12),%rbp
    76d9:	44 89 f6             	mov    %r14d,%esi
    76dc:	48 8d 3d 3b 19 00 00 	lea    0x193b(%rip),%rdi        # 901e <_IO_stdin_used+0x1e>
    76e3:	e8 28 ba ff ff       	call   3110 <strchr@plt>
    76e8:	48 85 c0             	test   %rax,%rax
    76eb:	74 d3                	je     76c0 <format+0x140>
    76ed:	44 89 f6             	mov    %r14d,%esi
    76f0:	4c 8b 74 24 28       	mov    0x28(%rsp),%r14
    76f5:	4c 89 f8             	mov    %r15,%rax
    76f8:	48 89 da             	mov    %rbx,%rdx
    76fb:	4d 89 e7             	mov    %r12,%r15
    76fe:	48 89 eb             	mov    %rbp,%rbx
    7701:	c6 02 00             	movb   $0x0,(%rdx)
    7704:	8b 6c 24 20          	mov    0x20(%rsp),%ebp
    7708:	49 89 c4             	mov    %rax,%r12
    770b:	4d 8d 04 06          	lea    (%r14,%rax,1),%r8
    770f:	41 80 fd 73          	cmp    $0x73,%r13b
    7713:	74 23                	je     7738 <format+0x1b8>
    7715:	48 8d 3d 10 19 00 00 	lea    0x1910(%rip),%rdi        # 902c <_IO_stdin_used+0x2c>
    771c:	4c 89 44 24 28       	mov    %r8,0x28(%rsp)
    7721:	89 74 24 20          	mov    %esi,0x20(%rsp)
    7725:	e8 e6 b9 ff ff       	call   3110 <strchr@plt>
    772a:	8b 74 24 20          	mov    0x20(%rsp),%esi
    772e:	4c 8b 44 24 28       	mov    0x28(%rsp),%r8
    7733:	48 85 c0             	test   %rax,%rax
    7736:	74 40                	je     7778 <format+0x1f8>
    7738:	48 8b 04 24          	mov    (%rsp),%rax
    773c:	be 00 00 01 00       	mov    $0x10000,%esi
    7741:	48 8b 54 24 18       	mov    0x18(%rsp),%rdx
    7746:	4c 89 c7             	mov    %r8,%rdi
    7749:	29 ee                	sub    %ebp,%esi
    774b:	48 8b 48 f8          	mov    -0x8(%rax),%rcx
    774f:	4c 8d 60 f8          	lea    -0x8(%rax),%r12
    7753:	48 63 f6             	movslq %esi,%rsi
    7756:	31 c0                	xor    %eax,%eax
    7758:	e8 c3 b9 ff ff       	call   3120 <snprintf@plt>
    775d:	01 c5                	add    %eax,%ebp
    775f:	41 0f b6 47 01       	movzbl 0x1(%r15),%eax
    7764:	4c 89 24 24          	mov    %r12,(%rsp)
    7768:	4c 63 e5             	movslq %ebp,%r12
    776b:	84 c0                	test   %al,%al
    776d:	0f 95 c2             	setne  %dl
    7770:	e9 8b fe ff ff       	jmp    7600 <format+0x80>
    7775:	0f 1f 00             	nopl   (%rax)
    7778:	48 8d 3d b5 18 00 00 	lea    0x18b5(%rip),%rdi        # 9034 <_IO_stdin_used+0x34>
    777f:	4c 89 44 24 20       	mov    %r8,0x20(%rsp)
    7784:	e8 87 b9 ff ff       	call   3110 <strchr@plt>
    7789:	4c 8b 44 24 20       	mov    0x20(%rsp),%r8
    778e:	48 85 c0             	test   %rax,%rax
    7791:	74 3d                	je     77d0 <format+0x250>
    7793:	48 8b 04 24          	mov    (%rsp),%rax
    7797:	66 0f ef c0          	pxor   %xmm0,%xmm0
    779b:	be 00 00 01 00       	mov    $0x10000,%esi
    77a0:	4c 89 c7             	mov    %r8,%rdi
    77a3:	29 ee                	sub    %ebp,%esi
    77a5:	48 8b 54 24 18       	mov    0x18(%rsp),%rdx
    77aa:	f2 48 0f 2a 40 f8    	cvtsi2sdq -0x8(%rax),%xmm0
    77b0:	4c 8d 60 f8          	lea    -0x8(%rax),%r12
    77b4:	48 63 f6             	movslq %esi,%rsi
    77b7:	b8 01 00 00 00       	mov    $0x1,%eax
    77bc:	e8 5f b9 ff ff       	call   3120 <snprintf@plt>
    77c1:	eb 9a                	jmp    775d <format+0x1dd>
    77c3:	0f 1f 44 00 00       	nopl   0x0(%rax,%rax,1)
    77c8:	4c 89 f2             	mov    %r14,%rdx
    77cb:	e9 74 fe ff ff       	jmp    7644 <format+0xc4>
    77d0:	41 0f b6 47 01       	movzbl 0x1(%r15),%eax
    77d5:	84 c0                	test   %al,%al
    77d7:	0f 95 c2             	setne  %dl
    77da:	e9 21 fe ff ff       	jmp    7600 <format+0x80>
    77df:	e8 0c b9 ff ff       	call   30f0 <__stack_chk_fail@plt>
    77e4:	66 66 2e 0f 1f 84 00 	data16 cs nopw 0x0(%rax,%rax,1)
    77eb:	00 00 00 00 
    77ef:	90                   	nop

00000000000077f0 <date_format>:
    77f0:	41 56                	push   %r14
    77f2:	41 55                	push   %r13
    77f4:	49 89 fd             	mov    %rdi,%r13
    77f7:	41 54                	push   %r12
    77f9:	53                   	push   %rbx
    77fa:	48 83 ec 18          	sub    $0x18,%rsp
    77fe:	64 48 8b 04 25 28 00 	mov    %fs:0x28,%rax
    7805:	00 00 
    7807:	48 89 44 24 08       	mov    %rax,0x8(%rsp)
    780c:	31 c0                	xor    %eax,%eax
    780e:	48 89 e7             	mov    %rsp,%rdi
    7811:	48 89 34 24          	mov    %rsi,(%rsp)
    7815:	e8 36 b8 ff ff       	call   3050 <localtime@plt>
    781a:	bf 00 00 01 00       	mov    $0x10000,%edi
    781f:	49 89 c6             	mov    %rax,%r14
    7822:	e8 09 ba ff ff       	call   3230 <malloc@plt>
    7827:	31 d2                	xor    %edx,%edx
    7829:	4c 89 f1             	mov    %r14,%rcx
    782c:	be 00 00 01 00       	mov    $0x10000,%esi
    7831:	48 63 1d b0 7b 00 00 	movslq 0x7bb0(%rip),%rbx        # f3e8 <format_i>
    7838:	49 89 c4             	mov    %rax,%r12
    783b:	4c 89 e7             	mov    %r12,%rdi
    783e:	83 fb 02             	cmp    $0x2,%ebx
    7841:	8d 43 01             	lea    0x1(%rbx),%eax
    7844:	0f 44 c2             	cmove  %edx,%eax
    7847:	4c 89 ea             	mov    %r13,%rdx
    784a:	4c 8d 2d 7f 7b 00 00 	lea    0x7b7f(%rip),%r13        # f3d0 <format_bufs>
    7851:	89 05 91 7b 00 00    	mov    %eax,0x7b91(%rip)        # f3e8 <format_i>
    7857:	e8 14 ba ff ff       	call   3270 <strftime@plt>
    785c:	49 8b 7c dd 00       	mov    0x0(%r13,%rbx,8),%rdi
    7861:	e8 da b7 ff ff       	call   3040 <free@plt>
    7866:	4d 89 64 dd 00       	mov    %r12,0x0(%r13,%rbx,8)
    786b:	48 8b 44 24 08       	mov    0x8(%rsp),%rax
    7870:	64 48 2b 04 25 28 00 	sub    %fs:0x28,%rax
    7877:	00 00 
    7879:	75 0f                	jne    788a <date_format+0x9a>
    787b:	48 83 c4 18          	add    $0x18,%rsp
    787f:	4c 89 e0             	mov    %r12,%rax
    7882:	5b                   	pop    %rbx
    7883:	41 5c                	pop    %r12
    7885:	41 5d                	pop    %r13
    7887:	41 5e                	pop    %r14
    7889:	c3                   	ret    
    788a:	e8 61 b8 ff ff       	call   30f0 <__stack_chk_fail@plt>
    788f:	90                   	nop

0000000000007890 <find>:
    7890:	80 3e 00             	cmpb   $0x0,(%rsi)
    7893:	74 0b                	je     78a0 <find+0x10>
    7895:	e9 76 f4 ff ff       	jmp    6d10 <find.part.0>
    789a:	66 0f 1f 44 00 00    	nopw   0x0(%rax,%rax,1)
    78a0:	31 c0                	xor    %eax,%eax
    78a2:	c3                   	ret    
    78a3:	66 66 2e 0f 1f 84 00 	data16 cs nopw 0x0(%rax,%rax,1)
    78aa:	00 00 00 00 
    78ae:	66 90                	xchg   %ax,%ax

00000000000078b0 <findpair>:
    78b0:	41 57                	push   %r15
    78b2:	41 56                	push   %r14
    78b4:	41 55                	push   %r13
    78b6:	41 54                	push   %r12
    78b8:	49 89 d4             	mov    %rdx,%r12
    78bb:	55                   	push   %rbp
    78bc:	53                   	push   %rbx
    78bd:	48 83 ec 08          	sub    $0x8,%rsp
    78c1:	0f b6 06             	movzbl (%rsi),%eax
    78c4:	84 c0                	test   %al,%al
    78c6:	0f 84 d4 00 00 00    	je     79a0 <findpair+0xf0>
    78cc:	3c 2e                	cmp    $0x2e,%al
    78ce:	0f 84 cc 00 00 00    	je     79a0 <findpair+0xf0>
    78d4:	48 89 f5             	mov    %rsi,%rbp
    78d7:	48 89 fb             	mov    %rdi,%rbx
    78da:	be 2e 00 00 00       	mov    $0x2e,%esi
    78df:	48 89 ef             	mov    %rbp,%rdi
    78e2:	e8 29 b8 ff ff       	call   3110 <strchr@plt>
    78e7:	49 89 c5             	mov    %rax,%r13
    78ea:	48 85 c0             	test   %rax,%rax
    78ed:	0f 84 ad 00 00 00    	je     79a0 <findpair+0xf0>
    78f3:	c6 00 00             	movb   $0x0,(%rax)
    78f6:	48 85 db             	test   %rbx,%rbx
    78f9:	0f 84 c1 00 00 00    	je     79c0 <findpair+0x110>
    78ff:	44 0f b7 75 00       	movzwl 0x0(%rbp),%r14d
    7904:	eb 17                	jmp    791d <findpair+0x6d>
    7906:	66 2e 0f 1f 84 00 00 	cs nopw 0x0(%rax,%rax,1)
    790d:	00 00 00 
    7910:	48 8b 5b 08          	mov    0x8(%rbx),%rbx
    7914:	48 85 db             	test   %rbx,%rbx
    7917:	0f 84 a3 00 00 00    	je     79c0 <findpair+0x110>
    791d:	48 8b 3b             	mov    (%rbx),%rdi
    7920:	66 44 39 37          	cmp    %r14w,(%rdi)
    7924:	75 ea                	jne    7910 <findpair+0x60>
    7926:	48 89 ee             	mov    %rbp,%rsi
    7929:	e8 b2 b8 ff ff       	call   31e0 <strcmp@plt>
    792e:	85 c0                	test   %eax,%eax
    7930:	75 de                	jne    7910 <findpair+0x60>
    7932:	48 8b 6b 10          	mov    0x10(%rbx),%rbp
    7936:	48 85 ed             	test   %rbp,%rbp
    7939:	0f 84 81 00 00 00    	je     79c0 <findpair+0x110>
    793f:	45 0f b7 7d 01       	movzwl 0x1(%r13),%r15d
    7944:	4d 8d 75 01          	lea    0x1(%r13),%r14
    7948:	eb 0f                	jmp    7959 <findpair+0xa9>
    794a:	66 0f 1f 44 00 00    	nopw   0x0(%rax,%rax,1)
    7950:	48 8b 6d 08          	mov    0x8(%rbp),%rbp
    7954:	48 85 ed             	test   %rbp,%rbp
    7957:	74 67                	je     79c0 <findpair+0x110>
    7959:	48 8b 7d 00          	mov    0x0(%rbp),%rdi
    795d:	66 44 39 3f          	cmp    %r15w,(%rdi)
    7961:	75 ed                	jne    7950 <findpair+0xa0>
    7963:	4c 89 f6             	mov    %r14,%rsi
    7966:	e8 75 b8 ff ff       	call   31e0 <strcmp@plt>
    796b:	85 c0                	test   %eax,%eax
    796d:	75 e1                	jne    7950 <findpair+0xa0>
    796f:	48 8d 0d ca 7e 01 00 	lea    0x17eca(%rip),%rcx        # 1f840 <head>
    7976:	48 89 d8             	mov    %rbx,%rax
    7979:	48 ba ab aa aa aa aa 	movabs $0xaaaaaaaaaaaaaaab,%rdx
    7980:	aa aa aa 
    7983:	48 29 cd             	sub    %rcx,%rbp
    7986:	48 29 c8             	sub    %rcx,%rax
    7989:	48 c1 fd 03          	sar    $0x3,%rbp
    798d:	48 c1 f8 03          	sar    $0x3,%rax
    7991:	0f af ea             	imul   %edx,%ebp
    7994:	0f af c2             	imul   %edx,%eax
    7997:	eb 2b                	jmp    79c4 <findpair+0x114>
    7999:	0f 1f 80 00 00 00 00 	nopl   0x0(%rax)
    79a0:	31 c0                	xor    %eax,%eax
    79a2:	31 ed                	xor    %ebp,%ebp
    79a4:	66 41 89 2c 24       	mov    %bp,(%r12)
    79a9:	48 83 c4 08          	add    $0x8,%rsp
    79ad:	5b                   	pop    %rbx
    79ae:	5d                   	pop    %rbp
    79af:	41 5c                	pop    %r12
    79b1:	41 5d                	pop    %r13
    79b3:	41 5e                	pop    %r14
    79b5:	41 5f                	pop    %r15
    79b7:	c3                   	ret    
    79b8:	0f 1f 84 00 00 00 00 	nopl   0x0(%rax,%rax,1)
    79bf:	00 
    79c0:	31 c0                	xor    %eax,%eax
    79c2:	31 ed                	xor    %ebp,%ebp
    79c4:	41 c6 45 00 2e       	movb   $0x2e,0x0(%r13)
    79c9:	eb d9                	jmp    79a4 <findpair+0xf4>
    79cb:	0f 1f 44 00 00       	nopl   0x0(%rax,%rax,1)

00000000000079d0 <number>:
    79d0:	48 c7 06 00 00 00 00 	movq   $0x0,(%rsi)
    79d7:	48 85 ff             	test   %rdi,%rdi
    79da:	74 0c                	je     79e8 <number+0x18>
    79dc:	e9 7f f4 ff ff       	jmp    6e60 <number.part.0>
    79e1:	0f 1f 80 00 00 00 00 	nopl   0x0(%rax)
    79e8:	31 c0                	xor    %eax,%eax
    79ea:	c3                   	ret    
    79eb:	0f 1f 44 00 00       	nopl   0x0(%rax,%rax,1)

00000000000079f0 <at_xy>:
    79f0:	41 54                	push   %r12
    79f2:	55                   	push   %rbp
    79f3:	48 83 ec 38          	sub    $0x38,%rsp
    79f7:	64 48 8b 04 25 28 00 	mov    %fs:0x28,%rax
    79fe:	00 00 
    7a00:	48 89 44 24 28       	mov    %rax,0x28(%rsp)
    7a05:	31 c0                	xor    %eax,%eax
    7a07:	85 ff                	test   %edi,%edi
    7a09:	48 89 e5             	mov    %rsp,%rbp
    7a0c:	0f 48 f8             	cmovs  %eax,%edi
    7a0f:	85 f6                	test   %esi,%esi
    7a11:	0f 48 f0             	cmovs  %eax,%esi
    7a14:	8d 4f 01             	lea    0x1(%rdi),%ecx
    7a17:	48 89 ef             	mov    %rbp,%rdi
    7a1a:	8d 56 01             	lea    0x1(%rsi),%edx
    7a1d:	48 8d 35 16 16 00 00 	lea    0x1616(%rip),%rsi        # 903a <_IO_stdin_used+0x3a>
    7a24:	e8 a7 b8 ff ff       	call   32d0 <sprintf@plt>
    7a29:	48 89 ef             	mov    %rbp,%rdi
    7a2c:	e8 af b6 ff ff       	call   30e0 <strlen@plt>
    7a31:	48 8b 3d 88 79 00 00 	mov    0x7988(%rip),%rdi        # f3c0 <stdout_current>
    7a38:	49 89 c4             	mov    %rax,%r12
    7a3b:	e8 e0 b7 ff ff       	call   3220 <fileno@plt>
    7a40:	4c 89 e2             	mov    %r12,%rdx
    7a43:	48 89 ee             	mov    %rbp,%rsi
    7a46:	89 c7                	mov    %eax,%edi
    7a48:	e8 53 b6 ff ff       	call   30a0 <write@plt>
    7a4d:	48 8b 44 24 28       	mov    0x28(%rsp),%rax
    7a52:	64 48 2b 04 25 28 00 	sub    %fs:0x28,%rax
    7a59:	00 00 
    7a5b:	75 08                	jne    7a65 <at_xy+0x75>
    7a5d:	48 83 c4 38          	add    $0x38,%rsp
    7a61:	5d                   	pop    %rbp
    7a62:	41 5c                	pop    %r12
    7a64:	c3                   	ret    
    7a65:	e8 86 b6 ff ff       	call   30f0 <__stack_chk_fail@plt>
    7a6a:	66 0f 1f 44 00 00    	nopw   0x0(%rax,%rax,1)

0000000000007a70 <max_xy>:
    7a70:	55                   	push   %rbp
    7a71:	48 89 fd             	mov    %rdi,%rbp
    7a74:	53                   	push   %rbx
    7a75:	48 89 f3             	mov    %rsi,%rbx
    7a78:	48 83 ec 18          	sub    $0x18,%rsp
    7a7c:	48 8b 3d 45 79 00 00 	mov    0x7945(%rip),%rdi        # f3c8 <stdin_current>
